
CAN_QUICK_START1_FD.elf:     file format elf32-littlearm

Sections:
Idx Name          Size      VMA       LMA       File off  Algn
  0 .text         0000ae60  00000000  00000000  00010000  2**3
                  CONTENTS, ALLOC, LOAD, READONLY, CODE
  1 .relocate     00000264  20000000  0000ae60  00020000  2**2
                  CONTENTS, ALLOC, LOAD, DATA
  2 .bss          0000293c  20000264  0000b0c4  00020264  2**2
                  ALLOC
  3 .stack        00004000  20002ba0  0000da00  00020264  2**0
                  ALLOC
  4 .ARM.attributes 00000028  00000000  00000000  00020264  2**0
                  CONTENTS, READONLY
  5 .comment      00000059  00000000  00000000  0002028c  2**0
                  CONTENTS, READONLY
  6 .debug_info   000506cc  00000000  00000000  000202e5  2**0
                  CONTENTS, READONLY, DEBUGGING
  7 .debug_abbrev 00006105  00000000  00000000  000709b1  2**0
                  CONTENTS, READONLY, DEBUGGING
  8 .debug_loc    0000e4b2  00000000  00000000  00076ab6  2**0
                  CONTENTS, READONLY, DEBUGGING
  9 .debug_aranges 00000a00  00000000  00000000  00084f68  2**0
                  CONTENTS, READONLY, DEBUGGING
 10 .debug_ranges 00000de0  00000000  00000000  00085968  2**0
                  CONTENTS, READONLY, DEBUGGING
 11 .debug_macro  00024907  00000000  00000000  00086748  2**0
                  CONTENTS, READONLY, DEBUGGING
 12 .debug_line   00015528  00000000  00000000  000ab04f  2**0
                  CONTENTS, READONLY, DEBUGGING
 13 .debug_str    000a8713  00000000  00000000  000c0577  2**0
                  CONTENTS, READONLY, DEBUGGING
 14 .debug_frame  000023a0  00000000  00000000  00168c8c  2**2
                  CONTENTS, READONLY, DEBUGGING

Disassembly of section .text:

00000000 <exception_table>:
       0:	a0 6b 00 20 6d 3a 00 00 69 3a 00 00 69 3a 00 00     .k. m:..i:..i:..
	...
      2c:	69 3a 00 00 00 00 00 00 00 00 00 00 69 3a 00 00     i:..........i:..
      3c:	69 3a 00 00 69 3a 00 00 69 3a 00 00 69 3a 00 00     i:..i:..i:..i:..
      4c:	69 3a 00 00 69 3a 00 00 e5 09 00 00 69 3a 00 00     i:..i:......i:..
      5c:	69 3a 00 00 69 3a 00 00 65 2d 00 00 75 2d 00 00     i:..i:..e-..u-..
      6c:	85 2d 00 00 95 2d 00 00 a5 2d 00 00 b5 2d 00 00     .-...-...-...-..
      7c:	f9 65 00 00 69 3a 00 00 69 3a 00 00 69 3a 00 00     .e..i:..i:..i:..
      8c:	69 3a 00 00 c9 07 00 00 d9 07 00 00 e9 07 00 00     i:..............
      9c:	f9 07 00 00 09 08 00 00 69 3a 00 00 69 3a 00 00     ........i:..i:..
      ac:	69 3a 00 00 69 3a 00 00 69 3a 00 00 69 3a 00 00     i:..i:..i:..i:..

000000bc <__do_global_dtors_aux>:
      bc:	b510      	push	{r4, lr}
      be:	4c06      	ldr	r4, [pc, #24]	; (d8 <__do_global_dtors_aux+0x1c>)
      c0:	7823      	ldrb	r3, [r4, #0]
      c2:	2b00      	cmp	r3, #0
      c4:	d107      	bne.n	d6 <__do_global_dtors_aux+0x1a>
      c6:	4b05      	ldr	r3, [pc, #20]	; (dc <__do_global_dtors_aux+0x20>)
      c8:	2b00      	cmp	r3, #0
      ca:	d002      	beq.n	d2 <__do_global_dtors_aux+0x16>
      cc:	4804      	ldr	r0, [pc, #16]	; (e0 <__do_global_dtors_aux+0x24>)
      ce:	e000      	b.n	d2 <__do_global_dtors_aux+0x16>
      d0:	bf00      	nop
      d2:	2301      	movs	r3, #1
      d4:	7023      	strb	r3, [r4, #0]
      d6:	bd10      	pop	{r4, pc}
      d8:	20000264 	.word	0x20000264
      dc:	00000000 	.word	0x00000000
      e0:	0000ae60 	.word	0x0000ae60

000000e4 <frame_dummy>:
      e4:	4b08      	ldr	r3, [pc, #32]	; (108 <frame_dummy+0x24>)
      e6:	b510      	push	{r4, lr}
      e8:	2b00      	cmp	r3, #0
      ea:	d003      	beq.n	f4 <frame_dummy+0x10>
      ec:	4907      	ldr	r1, [pc, #28]	; (10c <frame_dummy+0x28>)
      ee:	4808      	ldr	r0, [pc, #32]	; (110 <frame_dummy+0x2c>)
      f0:	e000      	b.n	f4 <frame_dummy+0x10>
      f2:	bf00      	nop
      f4:	4807      	ldr	r0, [pc, #28]	; (114 <frame_dummy+0x30>)
      f6:	6803      	ldr	r3, [r0, #0]
      f8:	2b00      	cmp	r3, #0
      fa:	d100      	bne.n	fe <frame_dummy+0x1a>
      fc:	bd10      	pop	{r4, pc}
      fe:	4b06      	ldr	r3, [pc, #24]	; (118 <frame_dummy+0x34>)
     100:	2b00      	cmp	r3, #0
     102:	d0fb      	beq.n	fc <frame_dummy+0x18>
     104:	4798      	blx	r3
     106:	e7f9      	b.n	fc <frame_dummy+0x18>
     108:	00000000 	.word	0x00000000
     10c:	20000268 	.word	0x20000268
     110:	0000ae60 	.word	0x0000ae60
     114:	0000ae60 	.word	0x0000ae60
     118:	00000000 	.word	0x00000000

0000011c <node_msg_cmd_to_len>:
			for (int i = 0; i < tempLen[0]; i++) {
				printf("%x ", buff[sizeof(struct node_msg_header)+i]);
			}
			printf("\r\n");
			debug_print("Session Key: \n");
			for (int i = 0; i < 16; i++) {
     11c:	280f      	cmp	r0, #15
				printf("%x ",source->encryption_data->session_key[i]);
     11e:	d811      	bhi.n	144 <node_msg_cmd_to_len+0x28>
     120:	0080      	lsls	r0, r0, #2
     122:	4b0a      	ldr	r3, [pc, #40]	; (14c <node_msg_cmd_to_len+0x30>)
     124:	581b      	ldr	r3, [r3, r0]
     126:	469f      	mov	pc, r3
     128:	200c      	movs	r0, #12
			for (int i = 0; i < 16; i++) {
     12a:	4770      	bx	lr
     12c:	200d      	movs	r0, #13
     12e:	e7fc      	b.n	12a <node_msg_cmd_to_len+0xe>
			}
			printf("\r\n");
     130:	200e      	movs	r0, #14
     132:	e7fa      	b.n	12a <node_msg_cmd_to_len+0xe>
     134:	2038      	movs	r0, #56	; 0x38
			debug_print("Nonce: \n");
     136:	e7f8      	b.n	12a <node_msg_cmd_to_len+0xe>
     138:	2038      	movs	r0, #56	; 0x38
     13a:	e7f6      	b.n	12a <node_msg_cmd_to_len+0xe>
     13c:	201c      	movs	r0, #28
     13e:	e7f4      	b.n	12a <node_msg_cmd_to_len+0xe>
			for (int i = 0; i < 16; i++) {
     140:	2010      	movs	r0, #16
				printf("%x ",source->encryption_data->nonce[i]);
     142:	e7f2      	b.n	12a <node_msg_cmd_to_len+0xe>
     144:	2000      	movs	r0, #0
     146:	e7f0      	b.n	12a <node_msg_cmd_to_len+0xe>
     148:	2008      	movs	r0, #8
     14a:	e7ee      	b.n	12a <node_msg_cmd_to_len+0xe>
     14c:	000080b4 	.word	0x000080b4

00000150 <node_msg_addr_fill>:
     150:	b570      	push	{r4, r5, r6, lr}
			for (int i = 0; i < 16; i++) {
     152:	2301      	movs	r3, #1
     154:	425b      	negs	r3, r3
     156:	8003      	strh	r3, [r0, #0]
			}
			printf("\r\n");
     158:	680b      	ldr	r3, [r1, #0]
     15a:	2b00      	cmp	r3, #0
     15c:	dd0c      	ble.n	178 <node_msg_addr_fill+0x28>
			*((uint32_t *)&source->encryption_data->nonce[0]) -= msg_generic->header.counter;
     15e:	1d0d      	adds	r5, r1, #4
     160:	2400      	movs	r4, #0
     162:	260f      	movs	r6, #15
     164:	8803      	ldrh	r3, [r0, #0]
     166:	011b      	lsls	r3, r3, #4
     168:	cd04      	ldmia	r5!, {r2}
			exit(1);
     16a:	4032      	ands	r2, r6
     16c:	4313      	orrs	r3, r2
     16e:	8003      	strh	r3, [r0, #0]
     170:	3401      	adds	r4, #1
     172:	680b      	ldr	r3, [r1, #0]
     174:	42a3      	cmp	r3, r4
     176:	dcf5      	bgt.n	164 <node_msg_addr_fill+0x14>
     178:	bd70      	pop	{r4, r5, r6, pc}
	...

0000017c <node_make_parent>:
     17c:	b570      	push	{r4, r5, r6, lr}
     17e:	0006      	movs	r6, r0
     180:	000c      	movs	r4, r1
     182:	2300      	movs	r3, #0
     184:	830b      	strh	r3, [r1, #24]
     186:	604b      	str	r3, [r1, #4]
     188:	2501      	movs	r5, #1
     18a:	600d      	str	r5, [r1, #0]
     18c:	0008      	movs	r0, r1
     18e:	3014      	adds	r0, #20
     190:	2204      	movs	r2, #4
     192:	2100      	movs	r1, #0
     194:	4b02      	ldr	r3, [pc, #8]	; (1a0 <node_make_parent+0x24>)
     196:	4798      	blx	r3
     198:	61e5      	str	r5, [r4, #28]
     19a:	6266      	str	r6, [r4, #36]	; 0x24
     19c:	bd70      	pop	{r4, r5, r6, pc}
     19e:	46c0      	nop			; (mov r8, r8)
     1a0:	00006f89 	.word	0x00006f89

000001a4 <node_make_broadcast>:
     1a4:	b570      	push	{r4, r5, r6, lr}
     1a6:	0005      	movs	r5, r0
     1a8:	000c      	movs	r4, r1
     1aa:	2301      	movs	r3, #1
	addr->CAN_addr = PARENT_NODE_ID;
}

inline void network_addr_make_broadcast(struct network* network, struct network_addr* addr) {
	(void)network;
	addr->CAN_addr = BROADCAST_ID;
     1ac:	425b      	negs	r3, r3
     1ae:	830b      	strh	r3, [r1, #24]
	broadcast->addr.hops[0] = (uint16_t) -1U;
     1b0:	4b06      	ldr	r3, [pc, #24]	; (1cc <node_make_broadcast+0x28>)
     1b2:	604b      	str	r3, [r1, #4]
	broadcast->addr.len = 1;
     1b4:	2301      	movs	r3, #1
     1b6:	600b      	str	r3, [r1, #0]
	memset((char*)&broadcast->hid, 0, sizeof(broadcast->hid));
     1b8:	0008      	movs	r0, r1
     1ba:	3014      	adds	r0, #20
     1bc:	2204      	movs	r2, #4
     1be:	2100      	movs	r1, #0
     1c0:	4b03      	ldr	r3, [pc, #12]	; (1d0 <node_make_broadcast+0x2c>)
     1c2:	4798      	blx	r3
	broadcast->type = NODE_TYPE_NONE;
     1c4:	2300      	movs	r3, #0
     1c6:	61e3      	str	r3, [r4, #28]
	broadcast->network = network;
     1c8:	6265      	str	r5, [r4, #36]	; 0x24
}
     1ca:	bd70      	pop	{r4, r5, r6, pc}
     1cc:	0000ffff 	.word	0x0000ffff
     1d0:	00006f89 	.word	0x00006f89

000001d4 <node_make_source_from_msg>:
void node_make_source_from_msg(struct network* network, struct node* source, struct node* node_table, int num_nodes, void* msg) {
     1d4:	b5f0      	push	{r4, r5, r6, r7, lr}
     1d6:	46de      	mov	lr, fp
     1d8:	4657      	mov	r7, sl
     1da:	464e      	mov	r6, r9
     1dc:	4645      	mov	r5, r8
     1de:	b5e0      	push	{r5, r6, r7, lr}
     1e0:	b083      	sub	sp, #12
     1e2:	9000      	str	r0, [sp, #0]
     1e4:	4689      	mov	r9, r1
     1e6:	9201      	str	r2, [sp, #4]
     1e8:	9f0c      	ldr	r7, [sp, #48]	; 0x30
	int addr_len = 0;
     1ea:	2400      	movs	r4, #0
		debug_print("addr[%d] = %d\n", addr_len, ((msg_generic->header.addr >> (addr_len * 4)) & 0xf));
     1ec:	4b2c      	ldr	r3, [pc, #176]	; (2a0 <node_make_source_from_msg+0xcc>)
     1ee:	469b      	mov	fp, r3
     1f0:	4b2c      	ldr	r3, [pc, #176]	; (2a4 <node_make_source_from_msg+0xd0>)
     1f2:	469a      	mov	sl, r3
     1f4:	00a6      	lsls	r6, r4, #2
     1f6:	883b      	ldrh	r3, [r7, #0]
     1f8:	4133      	asrs	r3, r6
     1fa:	250f      	movs	r5, #15
     1fc:	402b      	ands	r3, r5
     1fe:	0022      	movs	r2, r4
     200:	4659      	mov	r1, fp
     202:	6809      	ldr	r1, [r1, #0]
     204:	4828      	ldr	r0, [pc, #160]	; (2a8 <node_make_source_from_msg+0xd4>)
     206:	47d0      	blx	sl
		if (((msg_generic->header.addr >> (addr_len * 4)) & 0xf) == 0xf) {
     208:	883b      	ldrh	r3, [r7, #0]
     20a:	4133      	asrs	r3, r6
     20c:	401d      	ands	r5, r3
     20e:	2d0f      	cmp	r5, #15
     210:	d007      	beq.n	222 <node_make_source_from_msg+0x4e>
	for (; addr_len < 4; addr_len++) {
     212:	3401      	adds	r4, #1
     214:	2c04      	cmp	r4, #4
     216:	d1ed      	bne.n	1f4 <node_make_source_from_msg+0x20>
	for (int i = addr_len - 1; i >= 0; i--) {
     218:	46a3      	mov	fp, r4
     21a:	1e63      	subs	r3, r4, #1
     21c:	d41c      	bmi.n	258 <node_make_source_from_msg+0x84>
     21e:	001c      	movs	r4, r3
     220:	e003      	b.n	22a <node_make_source_from_msg+0x56>
		addr_len = 1;
     222:	2301      	movs	r3, #1
     224:	469b      	mov	fp, r3
	if (addr_len == 0) {
     226:	2c00      	cmp	r4, #0
     228:	d1f6      	bne.n	218 <node_make_source_from_msg+0x44>
     22a:	00a5      	lsls	r5, r4, #2
		debug_print("hops[%d] = %d\n", i, source->addr.hops[i]);
     22c:	4b1c      	ldr	r3, [pc, #112]	; (2a0 <node_make_source_from_msg+0xcc>)
     22e:	469a      	mov	sl, r3
     230:	4e1c      	ldr	r6, [pc, #112]	; (2a4 <node_make_source_from_msg+0xd0>)
     232:	46b8      	mov	r8, r7
     234:	464f      	mov	r7, r9
		source->addr.hops[i] = (msg_generic->header.addr >> (i * 4)) & 0xf;
     236:	4643      	mov	r3, r8
     238:	881a      	ldrh	r2, [r3, #0]
     23a:	412a      	asrs	r2, r5
     23c:	230f      	movs	r3, #15
     23e:	4013      	ands	r3, r2
     240:	197a      	adds	r2, r7, r5
     242:	6053      	str	r3, [r2, #4]
		debug_print("hops[%d] = %d\n", i, source->addr.hops[i]);
     244:	0022      	movs	r2, r4
     246:	4651      	mov	r1, sl
     248:	6809      	ldr	r1, [r1, #0]
     24a:	4818      	ldr	r0, [pc, #96]	; (2ac <node_make_source_from_msg+0xd8>)
     24c:	47b0      	blx	r6
     24e:	3d04      	subs	r5, #4
	for (int i = addr_len - 1; i >= 0; i--) {
     250:	3c01      	subs	r4, #1
     252:	d5f0      	bpl.n	236 <node_make_source_from_msg+0x62>
     254:	46b9      	mov	r9, r7
     256:	4647      	mov	r7, r8
	source->addr.len = addr_len;
     258:	464b      	mov	r3, r9
     25a:	465a      	mov	r2, fp
     25c:	601a      	str	r2, [r3, #0]
	memset((char*)&source->hid, 0, sizeof(source->hid));
     25e:	4648      	mov	r0, r9
     260:	3014      	adds	r0, #20
     262:	2204      	movs	r2, #4
     264:	2100      	movs	r1, #0
     266:	4b12      	ldr	r3, [pc, #72]	; (2b0 <node_make_source_from_msg+0xdc>)
     268:	4798      	blx	r3
	memmove(&source->haddr, &node_table[msg_generic->header.ret].haddr, sizeof(source->haddr));
     26a:	797b      	ldrb	r3, [r7, #5]
     26c:	0099      	lsls	r1, r3, #2
     26e:	18c9      	adds	r1, r1, r3
     270:	00c9      	lsls	r1, r1, #3
     272:	9b01      	ldr	r3, [sp, #4]
     274:	469c      	mov	ip, r3
     276:	4461      	add	r1, ip
     278:	3118      	adds	r1, #24
     27a:	4648      	mov	r0, r9
     27c:	3018      	adds	r0, #24
     27e:	2202      	movs	r2, #2
     280:	4b0c      	ldr	r3, [pc, #48]	; (2b4 <node_make_source_from_msg+0xe0>)
     282:	4798      	blx	r3
	source->type = NODE_TYPE_NONE;
     284:	2300      	movs	r3, #0
     286:	464a      	mov	r2, r9
     288:	61d3      	str	r3, [r2, #28]
	source->network = network;
     28a:	464b      	mov	r3, r9
     28c:	9a00      	ldr	r2, [sp, #0]
     28e:	625a      	str	r2, [r3, #36]	; 0x24
}
     290:	b003      	add	sp, #12
     292:	bc3c      	pop	{r2, r3, r4, r5}
     294:	4690      	mov	r8, r2
     296:	4699      	mov	r9, r3
     298:	46a2      	mov	sl, r4
     29a:	46ab      	mov	fp, r5
     29c:	bdf0      	pop	{r4, r5, r6, r7, pc}
     29e:	46c0      	nop			; (mov r8, r8)
     2a0:	20002b98 	.word	0x20002b98
     2a4:	000070e9 	.word	0x000070e9
     2a8:	000080f4 	.word	0x000080f4
     2ac:	00008108 	.word	0x00008108
     2b0:	00006f89 	.word	0x00006f89
     2b4:	00006f65 	.word	0x00006f65

000002b8 <node_msg_cmd_encrypted>:
	switch (cmd) {
     2b8:	3805      	subs	r0, #5
     2ba:	b2c3      	uxtb	r3, r0
		return 1;
     2bc:	2000      	movs	r0, #0
     2be:	220a      	movs	r2, #10
     2c0:	429a      	cmp	r2, r3
     2c2:	4140      	adcs	r0, r0
}
     2c4:	4770      	bx	lr
	...

000002c8 <node_msg_send>:
void node_msg_send(struct node* self, struct node* destination, enum node_cmd cmd, void* msg) {
     2c8:	b5f0      	push	{r4, r5, r6, r7, lr}
     2ca:	46c6      	mov	lr, r8
     2cc:	b500      	push	{lr}
     2ce:	b09a      	sub	sp, #104	; 0x68
     2d0:	0006      	movs	r6, r0
     2d2:	000d      	movs	r5, r1
     2d4:	9207      	str	r2, [sp, #28]
     2d6:	001c      	movs	r4, r3
	node_msg_addr_fill(&msg_generic->header, &destination->addr);
     2d8:	0018      	movs	r0, r3
     2da:	4b2c      	ldr	r3, [pc, #176]	; (38c <node_msg_send+0xc4>)
     2dc:	4798      	blx	r3
	debug_print("Sending to naddr %x, len %d\n", *((uint16_t*)&msg_generic->header.addr), destination->addr.len);
     2de:	8822      	ldrh	r2, [r4, #0]
     2e0:	4b2b      	ldr	r3, [pc, #172]	; (390 <node_msg_send+0xc8>)
     2e2:	6819      	ldr	r1, [r3, #0]
     2e4:	682b      	ldr	r3, [r5, #0]
     2e6:	482b      	ldr	r0, [pc, #172]	; (394 <node_msg_send+0xcc>)
     2e8:	4f2b      	ldr	r7, [pc, #172]	; (398 <node_msg_send+0xd0>)
     2ea:	47b8      	blx	r7
	msg_generic->header.counter = rand(); // need to figure out how to configure this
     2ec:	4b2b      	ldr	r3, [pc, #172]	; (39c <node_msg_send+0xd4>)
     2ee:	4798      	blx	r3
     2f0:	4680      	mov	r8, r0
     2f2:	8060      	strh	r0, [r4, #2]
	msg_generic->header.TTL = destination->addr.len - 1;
     2f4:	6829      	ldr	r1, [r5, #0]
     2f6:	1e4b      	subs	r3, r1, #1
     2f8:	7123      	strb	r3, [r4, #4]
	header->ret = ret_addr->hops[0]; // by convention, first is local addr
     2fa:	7931      	ldrb	r1, [r6, #4]
     2fc:	7161      	strb	r1, [r4, #5]
	msg_generic->header.cmd = cmd;
     2fe:	9b07      	ldr	r3, [sp, #28]
     300:	71a3      	strb	r3, [r4, #6]
	msg_generic->header.len = node_msg_cmd_to_len(cmd);
     302:	0018      	movs	r0, r3
     304:	4b26      	ldr	r3, [pc, #152]	; (3a0 <node_msg_send+0xd8>)
     306:	4798      	blx	r3
     308:	0007      	movs	r7, r0
     30a:	71e0      	strb	r0, [r4, #7]
	if(node_msg_cmd_encrypted(cmd)) {
     30c:	9807      	ldr	r0, [sp, #28]
     30e:	4b25      	ldr	r3, [pc, #148]	; (3a4 <node_msg_send+0xdc>)
     310:	4798      	blx	r3
     312:	2800      	cmp	r0, #0
     314:	d10a      	bne.n	32c <node_msg_send+0x64>
	network_send(destination->network, &destination->haddr, (uint8_t*)msg_generic, msg_generic->header.len);
     316:	0029      	movs	r1, r5
     318:	3118      	adds	r1, #24
     31a:	6a68      	ldr	r0, [r5, #36]	; 0x24
     31c:	003b      	movs	r3, r7
     31e:	0022      	movs	r2, r4
     320:	4c21      	ldr	r4, [pc, #132]	; (3a8 <node_msg_send+0xe0>)
     322:	47a0      	blx	r4
}
     324:	b01a      	add	sp, #104	; 0x68
     326:	bc04      	pop	{r2}
     328:	4690      	mov	r8, r2
     32a:	bdf0      	pop	{r4, r5, r6, r7, pc}
		*((uint32_t *)&self->encryption_data->nonce[0]) += msg_generic->header.counter;
     32c:	6a32      	ldr	r2, [r6, #32]
     32e:	4643      	mov	r3, r8
     330:	041b      	lsls	r3, r3, #16
     332:	0c1b      	lsrs	r3, r3, #16
     334:	6911      	ldr	r1, [r2, #16]
     336:	468c      	mov	ip, r1
     338:	4463      	add	r3, ip
     33a:	6113      	str	r3, [r2, #16]
		uint32_t tempLen[2] = {0,0};
     33c:	2100      	movs	r1, #0
     33e:	9108      	str	r1, [sp, #32]
     340:	9109      	str	r1, [sp, #36]	; 0x24
		crypto_aead_encrypt(&buff[sizeof(struct node_msg_header)],&tempLen[0],msg_generic->data,tempInLen[0],NULL,NULL,NULL,self->encryption_data->nonce,self->encryption_data->session_key);
     342:	6a30      	ldr	r0, [r6, #32]
		uint32_t tempInLen[2] = {((msg_generic->header.len-sizeof(struct node_msg_header)+7)/8)*8,0};
     344:	79e3      	ldrb	r3, [r4, #7]
     346:	3b01      	subs	r3, #1
     348:	2207      	movs	r2, #7
     34a:	4393      	bics	r3, r2
		crypto_aead_encrypt(&buff[sizeof(struct node_msg_header)],&tempLen[0],msg_generic->data,tempInLen[0],NULL,NULL,NULL,self->encryption_data->nonce,self->encryption_data->session_key);
     34c:	0022      	movs	r2, r4
     34e:	3208      	adds	r2, #8
     350:	9004      	str	r0, [sp, #16]
     352:	3010      	adds	r0, #16
     354:	9003      	str	r0, [sp, #12]
     356:	9102      	str	r1, [sp, #8]
     358:	9101      	str	r1, [sp, #4]
     35a:	9100      	str	r1, [sp, #0]
     35c:	a908      	add	r1, sp, #32
     35e:	a80c      	add	r0, sp, #48	; 0x30
     360:	4f12      	ldr	r7, [pc, #72]	; (3ac <node_msg_send+0xe4>)
     362:	47b8      	blx	r7
		*((uint32_t *)&self->encryption_data->nonce[0]) -= msg_generic->header.counter;
     364:	6a32      	ldr	r2, [r6, #32]
     366:	8863      	ldrh	r3, [r4, #2]
     368:	6911      	ldr	r1, [r2, #16]
     36a:	1acb      	subs	r3, r1, r3
     36c:	6113      	str	r3, [r2, #16]
		memcpy(buff,&msg_generic->header,sizeof(struct node_msg_header));
     36e:	2208      	movs	r2, #8
     370:	0021      	movs	r1, r4
     372:	a80a      	add	r0, sp, #40	; 0x28
     374:	4b0e      	ldr	r3, [pc, #56]	; (3b0 <node_msg_send+0xe8>)
     376:	4798      	blx	r3
		network_send(destination->network, &destination->haddr, (uint8_t*)buff, tempLen[0]+sizeof(struct node_msg_header));
     378:	9b08      	ldr	r3, [sp, #32]
     37a:	3308      	adds	r3, #8
     37c:	0029      	movs	r1, r5
     37e:	3118      	adds	r1, #24
     380:	6a68      	ldr	r0, [r5, #36]	; 0x24
     382:	aa0a      	add	r2, sp, #40	; 0x28
     384:	4c08      	ldr	r4, [pc, #32]	; (3a8 <node_msg_send+0xe0>)
     386:	47a0      	blx	r4
     388:	e7cc      	b.n	324 <node_msg_send+0x5c>
     38a:	46c0      	nop			; (mov r8, r8)
     38c:	00000151 	.word	0x00000151
     390:	20002b98 	.word	0x20002b98
     394:	00008144 	.word	0x00008144
     398:	000070e9 	.word	0x000070e9
     39c:	000071f1 	.word	0x000071f1
     3a0:	0000011d 	.word	0x0000011d
     3a4:	000002b9 	.word	0x000002b9
     3a8:	00000c45 	.word	0x00000c45
     3ac:	00001239 	.word	0x00001239
     3b0:	00006f53 	.word	0x00006f53

000003b4 <node_msg_send_generic>:
void node_msg_send_generic(struct node* self, struct node* destination, enum node_cmd cmd, void* msg, uint8_t len) {
     3b4:	b5f0      	push	{r4, r5, r6, r7, lr}
     3b6:	46ce      	mov	lr, r9
     3b8:	4647      	mov	r7, r8
     3ba:	b580      	push	{r7, lr}
     3bc:	b09b      	sub	sp, #108	; 0x6c
     3be:	4680      	mov	r8, r0
     3c0:	000f      	movs	r7, r1
     3c2:	9207      	str	r2, [sp, #28]
     3c4:	001e      	movs	r6, r3
     3c6:	ab22      	add	r3, sp, #136	; 0x88
     3c8:	781c      	ldrb	r4, [r3, #0]
	len += sizeof(struct node_msg_header);
     3ca:	3408      	adds	r4, #8
     3cc:	b2e4      	uxtb	r4, r4
	int proper_len = (len < sizeof(struct node_msg_generic)) ? len : sizeof(struct node_msg_generic);
     3ce:	2c37      	cmp	r4, #55	; 0x37
     3d0:	d900      	bls.n	3d4 <node_msg_send_generic+0x20>
     3d2:	2438      	movs	r4, #56	; 0x38
	node_msg_addr_fill(&msg_generic->header, &destination->addr);
     3d4:	0039      	movs	r1, r7
     3d6:	0030      	movs	r0, r6
     3d8:	4b25      	ldr	r3, [pc, #148]	; (470 <node_msg_send_generic+0xbc>)
     3da:	4798      	blx	r3
	debug_print("Sending to naddr %x, len %d\n", *((uint16_t*)&msg_generic->header.addr), destination->addr.len);
     3dc:	8832      	ldrh	r2, [r6, #0]
     3de:	4b25      	ldr	r3, [pc, #148]	; (474 <node_msg_send_generic+0xc0>)
     3e0:	6819      	ldr	r1, [r3, #0]
     3e2:	683b      	ldr	r3, [r7, #0]
     3e4:	4824      	ldr	r0, [pc, #144]	; (478 <node_msg_send_generic+0xc4>)
     3e6:	4d25      	ldr	r5, [pc, #148]	; (47c <node_msg_send_generic+0xc8>)
     3e8:	47a8      	blx	r5
	msg_generic->header.counter = 0;
     3ea:	2300      	movs	r3, #0
     3ec:	8073      	strh	r3, [r6, #2]
	msg_generic->header.TTL = destination->addr.len - 1;
     3ee:	683b      	ldr	r3, [r7, #0]
     3f0:	3b01      	subs	r3, #1
     3f2:	7133      	strb	r3, [r6, #4]
	header->ret = ret_addr->hops[0]; // by convention, first is local addr
     3f4:	4643      	mov	r3, r8
     3f6:	791b      	ldrb	r3, [r3, #4]
     3f8:	7173      	strb	r3, [r6, #5]
	msg_generic->header.cmd = cmd;
     3fa:	9807      	ldr	r0, [sp, #28]
     3fc:	71b0      	strb	r0, [r6, #6]
	msg_generic->header.len = proper_len;
     3fe:	71f4      	strb	r4, [r6, #7]
	if(node_msg_cmd_encrypted(cmd)) {
     400:	4b1f      	ldr	r3, [pc, #124]	; (480 <node_msg_send_generic+0xcc>)
     402:	4798      	blx	r3
     404:	2800      	cmp	r0, #0
     406:	d10b      	bne.n	420 <node_msg_send_generic+0x6c>
	network_send(destination->network, &destination->haddr, (uint8_t*)msg_generic, proper_len);
     408:	0039      	movs	r1, r7
     40a:	3118      	adds	r1, #24
     40c:	6a78      	ldr	r0, [r7, #36]	; 0x24
     40e:	0023      	movs	r3, r4
     410:	0032      	movs	r2, r6
     412:	4c1c      	ldr	r4, [pc, #112]	; (484 <node_msg_send_generic+0xd0>)
     414:	47a0      	blx	r4
}
     416:	b01b      	add	sp, #108	; 0x6c
     418:	bc0c      	pop	{r2, r3}
     41a:	4690      	mov	r8, r2
     41c:	4699      	mov	r9, r3
     41e:	bdf0      	pop	{r4, r5, r6, r7, pc}
		*((uint32_t *)&self->encryption_data->nonce[0]) += msg_generic->header.counter;
     420:	4643      	mov	r3, r8
     422:	6a18      	ldr	r0, [r3, #32]
		uint32_t tempLen[2] = {0,0};
     424:	2100      	movs	r1, #0
     426:	9108      	str	r1, [sp, #32]
     428:	9109      	str	r1, [sp, #36]	; 0x24
		uint32_t tempInLen[2] = {((msg_generic->header.len-sizeof(struct node_msg_header)+7)/8)*8,0};
     42a:	1e63      	subs	r3, r4, #1
     42c:	2207      	movs	r2, #7
     42e:	4393      	bics	r3, r2
		crypto_aead_encrypt(&buff[sizeof(struct node_msg_header)],&tempLen[0],msg_generic->data,tempInLen[0],NULL,NULL,NULL,self->encryption_data->nonce,self->encryption_data->session_key);
     430:	0032      	movs	r2, r6
     432:	3208      	adds	r2, #8
     434:	9004      	str	r0, [sp, #16]
     436:	3010      	adds	r0, #16
     438:	9003      	str	r0, [sp, #12]
     43a:	9102      	str	r1, [sp, #8]
     43c:	9101      	str	r1, [sp, #4]
     43e:	9100      	str	r1, [sp, #0]
     440:	a908      	add	r1, sp, #32
     442:	a80c      	add	r0, sp, #48	; 0x30
     444:	4c10      	ldr	r4, [pc, #64]	; (488 <node_msg_send_generic+0xd4>)
     446:	47a0      	blx	r4
		*((uint32_t *)&self->encryption_data->nonce[0]) -= msg_generic->header.counter;
     448:	4643      	mov	r3, r8
     44a:	6a1a      	ldr	r2, [r3, #32]
     44c:	8873      	ldrh	r3, [r6, #2]
     44e:	6911      	ldr	r1, [r2, #16]
     450:	1acb      	subs	r3, r1, r3
     452:	6113      	str	r3, [r2, #16]
		memcpy(buff,&msg_generic->header,sizeof(struct node_msg_header));
     454:	2208      	movs	r2, #8
     456:	0031      	movs	r1, r6
     458:	a80a      	add	r0, sp, #40	; 0x28
     45a:	4b0c      	ldr	r3, [pc, #48]	; (48c <node_msg_send_generic+0xd8>)
     45c:	4798      	blx	r3
		network_send(destination->network, &destination->haddr, (uint8_t*)buff, tempLen[0]+sizeof(struct node_msg_header));
     45e:	9b08      	ldr	r3, [sp, #32]
     460:	3308      	adds	r3, #8
     462:	0039      	movs	r1, r7
     464:	3118      	adds	r1, #24
     466:	6a78      	ldr	r0, [r7, #36]	; 0x24
     468:	aa0a      	add	r2, sp, #40	; 0x28
     46a:	4c06      	ldr	r4, [pc, #24]	; (484 <node_msg_send_generic+0xd0>)
     46c:	47a0      	blx	r4
     46e:	e7d2      	b.n	416 <node_msg_send_generic+0x62>
     470:	00000151 	.word	0x00000151
     474:	20002b98 	.word	0x20002b98
     478:	00008144 	.word	0x00008144
     47c:	000070e9 	.word	0x000070e9
     480:	000002b9 	.word	0x000002b9
     484:	00000c45 	.word	0x00000c45
     488:	00001239 	.word	0x00001239
     48c:	00006f53 	.word	0x00006f53

00000490 <node_msg_wait>:
void node_msg_wait(struct node* self, void* msg_buff) {
     490:	b5f0      	push	{r4, r5, r6, r7, lr}
     492:	46c6      	mov	lr, r8
     494:	b500      	push	{lr}
     496:	b096      	sub	sp, #88	; 0x58
     498:	0005      	movs	r5, r0
     49a:	000c      	movs	r4, r1
		received = network_check_any(self->network, NULL, msg_buff, sizeof(struct node_msg_generic));
     49c:	4e48      	ldr	r6, [pc, #288]	; (5c0 <node_msg_wait+0x130>)
     49e:	2338      	movs	r3, #56	; 0x38
     4a0:	0022      	movs	r2, r4
     4a2:	2100      	movs	r1, #0
     4a4:	6a68      	ldr	r0, [r5, #36]	; 0x24
     4a6:	47b0      	blx	r6
	} while (received == 0);
     4a8:	2800      	cmp	r0, #0
     4aa:	d0f8      	beq.n	49e <node_msg_wait+0xe>
	if(node_msg_cmd_encrypted(msg_generic->header.cmd)) {
     4ac:	79a0      	ldrb	r0, [r4, #6]
     4ae:	4b45      	ldr	r3, [pc, #276]	; (5c4 <node_msg_wait+0x134>)
     4b0:	4798      	blx	r3
     4b2:	2800      	cmp	r0, #0
     4b4:	d10d      	bne.n	4d2 <node_msg_wait+0x42>
	int shift = msg_generic->header.TTL * 4;
     4b6:	7922      	ldrb	r2, [r4, #4]
     4b8:	0092      	lsls	r2, r2, #2
	msg_generic->header.addr = (msg_generic->header.addr & ~(0xf << shift)) | (msg_generic->header.ret << shift);
     4ba:	210f      	movs	r1, #15
     4bc:	4091      	lsls	r1, r2
     4be:	8823      	ldrh	r3, [r4, #0]
     4c0:	438b      	bics	r3, r1
     4c2:	7961      	ldrb	r1, [r4, #5]
     4c4:	4091      	lsls	r1, r2
     4c6:	430b      	orrs	r3, r1
     4c8:	8023      	strh	r3, [r4, #0]
}
     4ca:	b016      	add	sp, #88	; 0x58
     4cc:	bc04      	pop	{r2}
     4ce:	4690      	mov	r8, r2
     4d0:	bdf0      	pop	{r4, r5, r6, r7, pc}
	uint32_t unpaddedVal = ((msg_generic->header.len-sizeof(struct node_msg_header)+7)/8)*8+8;
     4d2:	79e6      	ldrb	r6, [r4, #7]
     4d4:	3e01      	subs	r6, #1
     4d6:	2307      	movs	r3, #7
     4d8:	439e      	bics	r6, r3
     4da:	3608      	adds	r6, #8
		*((uint32_t *)&self->encryption_data->nonce[0]) += msg_generic->header.counter;
     4dc:	6a2a      	ldr	r2, [r5, #32]
     4de:	8863      	ldrh	r3, [r4, #2]
     4e0:	6911      	ldr	r1, [r2, #16]
     4e2:	468c      	mov	ip, r1
     4e4:	4463      	add	r3, ip
     4e6:	6113      	str	r3, [r2, #16]
		uint32_t tempLen[2] = {0,0};
     4e8:	2200      	movs	r2, #0
     4ea:	9206      	str	r2, [sp, #24]
     4ec:	9207      	str	r2, [sp, #28]
		if (crypto_aead_decrypt(buff,&tempLen[0],NULL,msg_generic->data,unpaddedVal,NULL,NULL,self->encryption_data->nonce,self->encryption_data->session_key)) {
     4ee:	6a29      	ldr	r1, [r5, #32]
     4f0:	0023      	movs	r3, r4
     4f2:	3308      	adds	r3, #8
     4f4:	9104      	str	r1, [sp, #16]
     4f6:	3110      	adds	r1, #16
     4f8:	9103      	str	r1, [sp, #12]
     4fa:	9202      	str	r2, [sp, #8]
     4fc:	9201      	str	r2, [sp, #4]
     4fe:	9600      	str	r6, [sp, #0]
     500:	a906      	add	r1, sp, #24
     502:	a808      	add	r0, sp, #32
     504:	4f30      	ldr	r7, [pc, #192]	; (5c8 <node_msg_wait+0x138>)
     506:	47b8      	blx	r7
     508:	2800      	cmp	r0, #0
     50a:	d10b      	bne.n	524 <node_msg_wait+0x94>
		*((uint32_t *)&self->encryption_data->nonce[0]) -= msg_generic->header.counter;
     50c:	6a2a      	ldr	r2, [r5, #32]
     50e:	8863      	ldrh	r3, [r4, #2]
     510:	6911      	ldr	r1, [r2, #16]
     512:	1acb      	subs	r3, r1, r3
     514:	6113      	str	r3, [r2, #16]
		memcpy(&msg_buff[sizeof(struct node_msg_header)],buff,tempLen[0]);
     516:	0020      	movs	r0, r4
     518:	3008      	adds	r0, #8
     51a:	9a06      	ldr	r2, [sp, #24]
     51c:	a908      	add	r1, sp, #32
     51e:	4b2b      	ldr	r3, [pc, #172]	; (5cc <node_msg_wait+0x13c>)
     520:	4798      	blx	r3
     522:	e7c8      	b.n	4b6 <node_msg_wait+0x26>
			debug_print("Decrypt Tag Failed %i, %i\n",unpaddedVal,tempLen[0]);
     524:	4f2a      	ldr	r7, [pc, #168]	; (5d0 <node_msg_wait+0x140>)
     526:	9b06      	ldr	r3, [sp, #24]
     528:	0032      	movs	r2, r6
     52a:	6839      	ldr	r1, [r7, #0]
     52c:	4829      	ldr	r0, [pc, #164]	; (5d4 <node_msg_wait+0x144>)
     52e:	4e2a      	ldr	r6, [pc, #168]	; (5d8 <node_msg_wait+0x148>)
     530:	47b0      	blx	r6
			debug_print("Received: \n");
     532:	6839      	ldr	r1, [r7, #0]
     534:	4829      	ldr	r0, [pc, #164]	; (5dc <node_msg_wait+0x14c>)
     536:	47b0      	blx	r6
			for (int i = 0; i < tempLen[0]; i++) {
     538:	9b06      	ldr	r3, [sp, #24]
     53a:	2b00      	cmp	r3, #0
     53c:	d00c      	beq.n	558 <node_msg_wait+0xc8>
     53e:	2600      	movs	r6, #0
				printf("%x ", buff[sizeof(struct node_msg_header)+i]);
     540:	4b27      	ldr	r3, [pc, #156]	; (5e0 <node_msg_wait+0x150>)
     542:	4698      	mov	r8, r3
     544:	4f24      	ldr	r7, [pc, #144]	; (5d8 <node_msg_wait+0x148>)
     546:	ab08      	add	r3, sp, #32
     548:	199b      	adds	r3, r3, r6
     54a:	7a19      	ldrb	r1, [r3, #8]
     54c:	4640      	mov	r0, r8
     54e:	47b8      	blx	r7
			for (int i = 0; i < tempLen[0]; i++) {
     550:	3601      	adds	r6, #1
     552:	9b06      	ldr	r3, [sp, #24]
     554:	42b3      	cmp	r3, r6
     556:	d8f6      	bhi.n	546 <node_msg_wait+0xb6>
			printf("\r\n");
     558:	4822      	ldr	r0, [pc, #136]	; (5e4 <node_msg_wait+0x154>)
     55a:	4b23      	ldr	r3, [pc, #140]	; (5e8 <node_msg_wait+0x158>)
     55c:	4798      	blx	r3
			debug_print("Session Key: \n");
     55e:	4b1c      	ldr	r3, [pc, #112]	; (5d0 <node_msg_wait+0x140>)
     560:	6819      	ldr	r1, [r3, #0]
     562:	4822      	ldr	r0, [pc, #136]	; (5ec <node_msg_wait+0x15c>)
     564:	4b1c      	ldr	r3, [pc, #112]	; (5d8 <node_msg_wait+0x148>)
     566:	4798      	blx	r3
			for (int i = 0; i < 16; i++) {
     568:	2600      	movs	r6, #0
				printf("%x ",self->encryption_data->session_key[i]);
     56a:	4b1d      	ldr	r3, [pc, #116]	; (5e0 <node_msg_wait+0x150>)
     56c:	4698      	mov	r8, r3
     56e:	4f1a      	ldr	r7, [pc, #104]	; (5d8 <node_msg_wait+0x148>)
     570:	6a2b      	ldr	r3, [r5, #32]
     572:	5d99      	ldrb	r1, [r3, r6]
     574:	4640      	mov	r0, r8
     576:	47b8      	blx	r7
			for (int i = 0; i < 16; i++) {
     578:	3601      	adds	r6, #1
     57a:	2e10      	cmp	r6, #16
     57c:	d1f8      	bne.n	570 <node_msg_wait+0xe0>
			printf("\r\n");
     57e:	4819      	ldr	r0, [pc, #100]	; (5e4 <node_msg_wait+0x154>)
     580:	4b19      	ldr	r3, [pc, #100]	; (5e8 <node_msg_wait+0x158>)
     582:	4798      	blx	r3
			debug_print("Nonce: \n");
     584:	4b12      	ldr	r3, [pc, #72]	; (5d0 <node_msg_wait+0x140>)
     586:	6819      	ldr	r1, [r3, #0]
     588:	4819      	ldr	r0, [pc, #100]	; (5f0 <node_msg_wait+0x160>)
     58a:	4b13      	ldr	r3, [pc, #76]	; (5d8 <node_msg_wait+0x148>)
     58c:	4798      	blx	r3
			for (int i = 0; i < 16; i++) {
     58e:	2600      	movs	r6, #0
				printf("%x ",self->encryption_data->nonce[i]);
     590:	4b13      	ldr	r3, [pc, #76]	; (5e0 <node_msg_wait+0x150>)
     592:	4698      	mov	r8, r3
     594:	4f10      	ldr	r7, [pc, #64]	; (5d8 <node_msg_wait+0x148>)
     596:	6a2b      	ldr	r3, [r5, #32]
     598:	199b      	adds	r3, r3, r6
     59a:	7c19      	ldrb	r1, [r3, #16]
     59c:	b2c9      	uxtb	r1, r1
     59e:	4640      	mov	r0, r8
     5a0:	47b8      	blx	r7
			for (int i = 0; i < 16; i++) {
     5a2:	3601      	adds	r6, #1
     5a4:	2e10      	cmp	r6, #16
     5a6:	d1f6      	bne.n	596 <node_msg_wait+0x106>
			printf("\r\n");
     5a8:	480e      	ldr	r0, [pc, #56]	; (5e4 <node_msg_wait+0x154>)
     5aa:	4b0f      	ldr	r3, [pc, #60]	; (5e8 <node_msg_wait+0x158>)
     5ac:	4798      	blx	r3
			*((uint32_t *)&self->encryption_data->nonce[0]) -= msg_generic->header.counter;
     5ae:	6a2a      	ldr	r2, [r5, #32]
     5b0:	8863      	ldrh	r3, [r4, #2]
     5b2:	6911      	ldr	r1, [r2, #16]
     5b4:	1acb      	subs	r3, r1, r3
     5b6:	6113      	str	r3, [r2, #16]
			exit(1);
     5b8:	2001      	movs	r0, #1
     5ba:	4b0e      	ldr	r3, [pc, #56]	; (5f4 <node_msg_wait+0x164>)
     5bc:	4798      	blx	r3
     5be:	46c0      	nop			; (mov r8, r8)
     5c0:	00000ce9 	.word	0x00000ce9
     5c4:	000002b9 	.word	0x000002b9
     5c8:	00001ad5 	.word	0x00001ad5
     5cc:	00006f53 	.word	0x00006f53
     5d0:	20002b98 	.word	0x20002b98
     5d4:	00008168 	.word	0x00008168
     5d8:	000070e9 	.word	0x000070e9
     5dc:	00008188 	.word	0x00008188
     5e0:	0000819c 	.word	0x0000819c
     5e4:	000081c0 	.word	0x000081c0
     5e8:	000071dd 	.word	0x000071dd
     5ec:	000081a0 	.word	0x000081a0
     5f0:	000081b4 	.word	0x000081b4
     5f4:	00006ead 	.word	0x00006ead

000005f8 <node_msg_check>:
}

// source is the node to check for a message from
// msg_buff is the buffer to write the received message to (if any)
// Returns: the length written if a message is available, 0 otherwise
int node_msg_check(struct node* source, void* msg_buff) {
     5f8:	b5f0      	push	{r4, r5, r6, r7, lr}
     5fa:	b097      	sub	sp, #92	; 0x5c
     5fc:	0006      	movs	r6, r0
     5fe:	000d      	movs	r5, r1
	int written = network_check_any(source->network, NULL, msg_buff, sizeof(struct node_msg_generic));
     600:	2338      	movs	r3, #56	; 0x38
     602:	000a      	movs	r2, r1
     604:	2100      	movs	r1, #0
     606:	6a40      	ldr	r0, [r0, #36]	; 0x24
     608:	4c47      	ldr	r4, [pc, #284]	; (728 <node_msg_check+0x130>)
     60a:	47a0      	blx	r4
	if (written > 0) {
     60c:	2800      	cmp	r0, #0
     60e:	dc00      	bgt.n	612 <node_msg_check+0x1a>
     610:	e087      	b.n	722 <node_msg_check+0x12a>
		struct node_msg_generic* msg_generic = msg_buff;
		uint32_t unpaddedVal = ((msg_generic->header.len-sizeof(struct node_msg_header)+7)/8)*8+8;
     612:	79ec      	ldrb	r4, [r5, #7]
     614:	3c01      	subs	r4, #1
     616:	2307      	movs	r3, #7
     618:	439c      	bics	r4, r3
     61a:	3408      	adds	r4, #8
		if(node_msg_cmd_encrypted(msg_generic->header.cmd)) {
     61c:	79a8      	ldrb	r0, [r5, #6]
     61e:	4b43      	ldr	r3, [pc, #268]	; (72c <node_msg_check+0x134>)
     620:	4798      	blx	r3
     622:	2800      	cmp	r0, #0
     624:	d022      	beq.n	66c <node_msg_check+0x74>
			uint8_t buff[56];
			*((uint32_t *)&source->encryption_data->nonce[0]) += msg_generic->header.counter;
     626:	6a32      	ldr	r2, [r6, #32]
     628:	886b      	ldrh	r3, [r5, #2]
     62a:	6911      	ldr	r1, [r2, #16]
     62c:	468c      	mov	ip, r1
     62e:	4463      	add	r3, ip
     630:	6113      	str	r3, [r2, #16]
			uint32_t tempLen[2] = {0,0};
     632:	2200      	movs	r2, #0
     634:	9206      	str	r2, [sp, #24]
     636:	9207      	str	r2, [sp, #28]
			if (crypto_aead_decrypt(buff,&tempLen[0],NULL,msg_generic->data,unpaddedVal,NULL,NULL,source->encryption_data->nonce,source->encryption_data->session_key)) {
     638:	6a31      	ldr	r1, [r6, #32]
     63a:	002b      	movs	r3, r5
     63c:	3308      	adds	r3, #8
     63e:	9104      	str	r1, [sp, #16]
     640:	3110      	adds	r1, #16
     642:	9103      	str	r1, [sp, #12]
     644:	9202      	str	r2, [sp, #8]
     646:	9201      	str	r2, [sp, #4]
     648:	9400      	str	r4, [sp, #0]
     64a:	a906      	add	r1, sp, #24
     64c:	a808      	add	r0, sp, #32
     64e:	4f38      	ldr	r7, [pc, #224]	; (730 <node_msg_check+0x138>)
     650:	47b8      	blx	r7
     652:	2800      	cmp	r0, #0
     654:	d11e      	bne.n	694 <node_msg_check+0x9c>
				printf("\r\n");
				*((uint32_t *)&source->encryption_data->nonce[0]) -= msg_generic->header.counter;
				exit(1);
			}
			
			*((uint32_t *)&source->encryption_data->nonce[0]) -= msg_generic->header.counter;
     656:	6a32      	ldr	r2, [r6, #32]
     658:	886b      	ldrh	r3, [r5, #2]
     65a:	6911      	ldr	r1, [r2, #16]
     65c:	1acb      	subs	r3, r1, r3
     65e:	6113      	str	r3, [r2, #16]
			memcpy(&msg_buff[sizeof(struct node_msg_header)],buff,tempLen[0]);
     660:	0028      	movs	r0, r5
     662:	3008      	adds	r0, #8
     664:	9a06      	ldr	r2, [sp, #24]
     666:	a908      	add	r1, sp, #32
     668:	4b32      	ldr	r3, [pc, #200]	; (734 <node_msg_check+0x13c>)
     66a:	4798      	blx	r3
		}
		int shift = msg_generic->header.TTL * 4;
     66c:	7929      	ldrb	r1, [r5, #4]
     66e:	0089      	lsls	r1, r1, #2
		msg_generic->header.addr = (msg_generic->header.addr & ~(0xf << shift)) | (msg_generic->header.ret << shift);
     670:	796b      	ldrb	r3, [r5, #5]
     672:	200f      	movs	r0, #15
     674:	4088      	lsls	r0, r1
     676:	882a      	ldrh	r2, [r5, #0]
     678:	4382      	bics	r2, r0
     67a:	0018      	movs	r0, r3
     67c:	4088      	lsls	r0, r1
     67e:	4302      	orrs	r2, r0
     680:	b292      	uxth	r2, r2
     682:	802a      	strh	r2, [r5, #0]
		debug_print("Receiving from naddr %x, ret %x\n", *((uint16_t*)&msg_generic->header.addr), msg_generic->header.ret);
     684:	492c      	ldr	r1, [pc, #176]	; (738 <node_msg_check+0x140>)
     686:	6809      	ldr	r1, [r1, #0]
     688:	482c      	ldr	r0, [pc, #176]	; (73c <node_msg_check+0x144>)
     68a:	4d2d      	ldr	r5, [pc, #180]	; (740 <node_msg_check+0x148>)
     68c:	47a8      	blx	r5
		return unpaddedVal;
     68e:	0020      	movs	r0, r4
	}
	return 0;
}
     690:	b017      	add	sp, #92	; 0x5c
     692:	bdf0      	pop	{r4, r5, r6, r7, pc}
				debug_print("Decrypt Tag Failed %i, %i\n",unpaddedVal,tempLen[0]);
     694:	4f28      	ldr	r7, [pc, #160]	; (738 <node_msg_check+0x140>)
     696:	9b06      	ldr	r3, [sp, #24]
     698:	0022      	movs	r2, r4
     69a:	6839      	ldr	r1, [r7, #0]
     69c:	4829      	ldr	r0, [pc, #164]	; (744 <node_msg_check+0x14c>)
     69e:	4c28      	ldr	r4, [pc, #160]	; (740 <node_msg_check+0x148>)
     6a0:	47a0      	blx	r4
				debug_print("Received: \n");
     6a2:	6839      	ldr	r1, [r7, #0]
     6a4:	4828      	ldr	r0, [pc, #160]	; (748 <node_msg_check+0x150>)
     6a6:	47a0      	blx	r4
				for (int i = 0; i < tempLen[0]; i++) {
     6a8:	9b06      	ldr	r3, [sp, #24]
     6aa:	2b00      	cmp	r3, #0
     6ac:	d00a      	beq.n	6c4 <node_msg_check+0xcc>
     6ae:	2400      	movs	r4, #0
					printf("%x ", buff[sizeof(struct node_msg_header)+i]);
     6b0:	4f23      	ldr	r7, [pc, #140]	; (740 <node_msg_check+0x148>)
     6b2:	ab08      	add	r3, sp, #32
     6b4:	191b      	adds	r3, r3, r4
     6b6:	7a19      	ldrb	r1, [r3, #8]
     6b8:	4824      	ldr	r0, [pc, #144]	; (74c <node_msg_check+0x154>)
     6ba:	47b8      	blx	r7
				for (int i = 0; i < tempLen[0]; i++) {
     6bc:	3401      	adds	r4, #1
     6be:	9b06      	ldr	r3, [sp, #24]
     6c0:	42a3      	cmp	r3, r4
     6c2:	d8f6      	bhi.n	6b2 <node_msg_check+0xba>
				printf("\r\n");
     6c4:	4822      	ldr	r0, [pc, #136]	; (750 <node_msg_check+0x158>)
     6c6:	4b23      	ldr	r3, [pc, #140]	; (754 <node_msg_check+0x15c>)
     6c8:	4798      	blx	r3
				debug_print("Session Key: \n");
     6ca:	4b1b      	ldr	r3, [pc, #108]	; (738 <node_msg_check+0x140>)
     6cc:	6819      	ldr	r1, [r3, #0]
     6ce:	4822      	ldr	r0, [pc, #136]	; (758 <node_msg_check+0x160>)
     6d0:	4b1b      	ldr	r3, [pc, #108]	; (740 <node_msg_check+0x148>)
     6d2:	4798      	blx	r3
				for (int i = 0; i < 16; i++) {
     6d4:	2400      	movs	r4, #0
					printf("%x ",source->encryption_data->session_key[i]);
     6d6:	4f1a      	ldr	r7, [pc, #104]	; (740 <node_msg_check+0x148>)
     6d8:	6a33      	ldr	r3, [r6, #32]
     6da:	5d19      	ldrb	r1, [r3, r4]
     6dc:	481b      	ldr	r0, [pc, #108]	; (74c <node_msg_check+0x154>)
     6de:	47b8      	blx	r7
				for (int i = 0; i < 16; i++) {
     6e0:	3401      	adds	r4, #1
     6e2:	2c10      	cmp	r4, #16
     6e4:	d1f8      	bne.n	6d8 <node_msg_check+0xe0>
				printf("\r\n");
     6e6:	481a      	ldr	r0, [pc, #104]	; (750 <node_msg_check+0x158>)
     6e8:	4b1a      	ldr	r3, [pc, #104]	; (754 <node_msg_check+0x15c>)
     6ea:	4798      	blx	r3
				debug_print("Nonce: \n");
     6ec:	4b12      	ldr	r3, [pc, #72]	; (738 <node_msg_check+0x140>)
     6ee:	6819      	ldr	r1, [r3, #0]
     6f0:	481a      	ldr	r0, [pc, #104]	; (75c <node_msg_check+0x164>)
     6f2:	4b13      	ldr	r3, [pc, #76]	; (740 <node_msg_check+0x148>)
     6f4:	4798      	blx	r3
				for (int i = 0; i < 16; i++) {
     6f6:	2400      	movs	r4, #0
					printf("%x ",source->encryption_data->nonce[i]);
     6f8:	4f11      	ldr	r7, [pc, #68]	; (740 <node_msg_check+0x148>)
     6fa:	6a33      	ldr	r3, [r6, #32]
     6fc:	191b      	adds	r3, r3, r4
     6fe:	7c19      	ldrb	r1, [r3, #16]
     700:	b2c9      	uxtb	r1, r1
     702:	4812      	ldr	r0, [pc, #72]	; (74c <node_msg_check+0x154>)
     704:	47b8      	blx	r7
				for (int i = 0; i < 16; i++) {
     706:	3401      	adds	r4, #1
     708:	2c10      	cmp	r4, #16
     70a:	d1f6      	bne.n	6fa <node_msg_check+0x102>
				printf("\r\n");
     70c:	4810      	ldr	r0, [pc, #64]	; (750 <node_msg_check+0x158>)
     70e:	4b11      	ldr	r3, [pc, #68]	; (754 <node_msg_check+0x15c>)
     710:	4798      	blx	r3
				*((uint32_t *)&source->encryption_data->nonce[0]) -= msg_generic->header.counter;
     712:	6a32      	ldr	r2, [r6, #32]
     714:	886b      	ldrh	r3, [r5, #2]
     716:	6911      	ldr	r1, [r2, #16]
     718:	1acb      	subs	r3, r1, r3
     71a:	6113      	str	r3, [r2, #16]
				exit(1);
     71c:	2001      	movs	r0, #1
     71e:	4b10      	ldr	r3, [pc, #64]	; (760 <node_msg_check+0x168>)
     720:	4798      	blx	r3
	return 0;
     722:	2000      	movs	r0, #0
     724:	e7b4      	b.n	690 <node_msg_check+0x98>
     726:	46c0      	nop			; (mov r8, r8)
     728:	00000ce9 	.word	0x00000ce9
     72c:	000002b9 	.word	0x000002b9
     730:	00001ad5 	.word	0x00001ad5
     734:	00006f53 	.word	0x00006f53
     738:	20002b98 	.word	0x20002b98
     73c:	0000811c 	.word	0x0000811c
     740:	000070e9 	.word	0x000070e9
     744:	00008168 	.word	0x00008168
     748:	00008188 	.word	0x00008188
     74c:	0000819c 	.word	0x0000819c
     750:	000081c0 	.word	0x000081c0
     754:	000071dd 	.word	0x000071dd
     758:	000081a0 	.word	0x000081a0
     75c:	000081b4 	.word	0x000081b4
     760:	00006ead 	.word	0x00006ead

00000764 <_tc_interrupt_handler>:
     764:	b570      	push	{r4, r5, r6, lr}
     766:	0080      	lsls	r0, r0, #2
     768:	4b16      	ldr	r3, [pc, #88]	; (7c4 <_tc_interrupt_handler+0x60>)
     76a:	58c4      	ldr	r4, [r0, r3]
     76c:	6823      	ldr	r3, [r4, #0]
     76e:	7a9d      	ldrb	r5, [r3, #10]
     770:	7e22      	ldrb	r2, [r4, #24]
     772:	7e63      	ldrb	r3, [r4, #25]
     774:	4013      	ands	r3, r2
     776:	401d      	ands	r5, r3
     778:	07eb      	lsls	r3, r5, #31
     77a:	d406      	bmi.n	78a <_tc_interrupt_handler+0x26>
     77c:	07ab      	lsls	r3, r5, #30
     77e:	d40b      	bmi.n	798 <_tc_interrupt_handler+0x34>
     780:	06eb      	lsls	r3, r5, #27
     782:	d410      	bmi.n	7a6 <_tc_interrupt_handler+0x42>
     784:	06ab      	lsls	r3, r5, #26
     786:	d415      	bmi.n	7b4 <_tc_interrupt_handler+0x50>
     788:	bd70      	pop	{r4, r5, r6, pc}
     78a:	0020      	movs	r0, r4
     78c:	68a3      	ldr	r3, [r4, #8]
     78e:	4798      	blx	r3
     790:	2301      	movs	r3, #1
     792:	6822      	ldr	r2, [r4, #0]
     794:	7293      	strb	r3, [r2, #10]
     796:	e7f1      	b.n	77c <_tc_interrupt_handler+0x18>
     798:	0020      	movs	r0, r4
     79a:	68e3      	ldr	r3, [r4, #12]
     79c:	4798      	blx	r3
     79e:	2302      	movs	r3, #2
     7a0:	6822      	ldr	r2, [r4, #0]
     7a2:	7293      	strb	r3, [r2, #10]
     7a4:	e7ec      	b.n	780 <_tc_interrupt_handler+0x1c>
     7a6:	0020      	movs	r0, r4
     7a8:	6923      	ldr	r3, [r4, #16]
     7aa:	4798      	blx	r3
     7ac:	2310      	movs	r3, #16
     7ae:	6822      	ldr	r2, [r4, #0]
     7b0:	7293      	strb	r3, [r2, #10]
     7b2:	e7e7      	b.n	784 <_tc_interrupt_handler+0x20>
     7b4:	0020      	movs	r0, r4
     7b6:	6963      	ldr	r3, [r4, #20]
     7b8:	4798      	blx	r3
     7ba:	6823      	ldr	r3, [r4, #0]
     7bc:	2220      	movs	r2, #32
     7be:	729a      	strb	r2, [r3, #10]
     7c0:	e7e2      	b.n	788 <_tc_interrupt_handler+0x24>
     7c2:	46c0      	nop			; (mov r8, r8)
     7c4:	20002690 	.word	0x20002690

000007c8 <TC0_Handler>:
     7c8:	b510      	push	{r4, lr}
     7ca:	2000      	movs	r0, #0
     7cc:	4b01      	ldr	r3, [pc, #4]	; (7d4 <TC0_Handler+0xc>)
     7ce:	4798      	blx	r3
     7d0:	bd10      	pop	{r4, pc}
     7d2:	46c0      	nop			; (mov r8, r8)
     7d4:	00000765 	.word	0x00000765

000007d8 <TC1_Handler>:
     7d8:	b510      	push	{r4, lr}
     7da:	2001      	movs	r0, #1
     7dc:	4b01      	ldr	r3, [pc, #4]	; (7e4 <TC1_Handler+0xc>)
     7de:	4798      	blx	r3
     7e0:	bd10      	pop	{r4, pc}
     7e2:	46c0      	nop			; (mov r8, r8)
     7e4:	00000765 	.word	0x00000765

000007e8 <TC2_Handler>:
     7e8:	b510      	push	{r4, lr}
     7ea:	2002      	movs	r0, #2
     7ec:	4b01      	ldr	r3, [pc, #4]	; (7f4 <TC2_Handler+0xc>)
     7ee:	4798      	blx	r3
     7f0:	bd10      	pop	{r4, pc}
     7f2:	46c0      	nop			; (mov r8, r8)
     7f4:	00000765 	.word	0x00000765

000007f8 <TC3_Handler>:
     7f8:	b510      	push	{r4, lr}
     7fa:	2003      	movs	r0, #3
     7fc:	4b01      	ldr	r3, [pc, #4]	; (804 <TC3_Handler+0xc>)
     7fe:	4798      	blx	r3
     800:	bd10      	pop	{r4, pc}
     802:	46c0      	nop			; (mov r8, r8)
     804:	00000765 	.word	0x00000765

00000808 <TC4_Handler>:
     808:	b510      	push	{r4, lr}
     80a:	2004      	movs	r0, #4
     80c:	4b01      	ldr	r3, [pc, #4]	; (814 <TC4_Handler+0xc>)
     80e:	4798      	blx	r3
     810:	bd10      	pop	{r4, pc}
     812:	46c0      	nop			; (mov r8, r8)
     814:	00000765 	.word	0x00000765

00000818 <tsens_complete_callback>:
volatile bool tsens_read_done = false;
uint32_t TEMPOFFSETVAL = 0;

static void tsens_complete_callback(enum tsens_callback i)
{
	tsens_read_done = true;
     818:	2201      	movs	r2, #1
     81a:	4b01      	ldr	r3, [pc, #4]	; (820 <tsens_complete_callback+0x8>)
     81c:	701a      	strb	r2, [r3, #0]
}
     81e:	4770      	bx	lr
     820:	20000284 	.word	0x20000284

00000824 <initTSENS>:
	tsens_enable_callback(TSENS_CALLBACK_RESULT_READY);
	//! [setup_enable_callback]
}
//! [setup]

int initTSENS(void) {
     824:	b500      	push	{lr}
     826:	b089      	sub	sp, #36	; 0x24
	tsens_get_config_defaults(&config_tsens);
     828:	a801      	add	r0, sp, #4
     82a:	4b10      	ldr	r3, [pc, #64]	; (86c <initTSENS+0x48>)
     82c:	4798      	blx	r3
	tsens_init(&config_tsens);
     82e:	a801      	add	r0, sp, #4
     830:	4b0f      	ldr	r3, [pc, #60]	; (870 <initTSENS+0x4c>)
     832:	4798      	blx	r3
 * Enables an TSENS module that has previously been configured.

 */
static inline void tsens_enable(void)
{
	TSENS->CTRLA.reg |= TSENS_CTRLA_ENABLE;
     834:	4a0f      	ldr	r2, [pc, #60]	; (874 <initTSENS+0x50>)
     836:	7813      	ldrb	r3, [r2, #0]
     838:	2102      	movs	r1, #2
     83a:	430b      	orrs	r3, r1
     83c:	7013      	strb	r3, [r2, #0]
	if (TSENS->SYNCBUSY.reg) {
     83e:	6893      	ldr	r3, [r2, #8]

	while (tsens_is_syncing()) {
     840:	2b00      	cmp	r3, #0
     842:	d1fc      	bne.n	83e <initTSENS+0x1a>
	tsens_register_callback(&tsens_instance,
     844:	2200      	movs	r2, #0
     846:	490c      	ldr	r1, [pc, #48]	; (878 <initTSENS+0x54>)
     848:	480c      	ldr	r0, [pc, #48]	; (87c <initTSENS+0x58>)
     84a:	4b0d      	ldr	r3, [pc, #52]	; (880 <initTSENS+0x5c>)
     84c:	4798      	blx	r3
		default:
			break;
	}

	/* Enable the interrupt for the callback */
	TSENS->INTENSET.reg = inenset_temp;
     84e:	2301      	movs	r3, #1
     850:	4a08      	ldr	r2, [pc, #32]	; (874 <initTSENS+0x50>)
     852:	7153      	strb	r3, [r2, #5]
 * \param[in] vector Interrupt vector to enable
 */
static inline void system_interrupt_enable(
		const enum system_interrupt_vector vector)
{
	NVIC->ISER[0] = (uint32_t)(1 << ((uint32_t)vector & 0x0000001f));
     854:	2120      	movs	r1, #32
     856:	4a0b      	ldr	r2, [pc, #44]	; (884 <initTSENS+0x60>)
     858:	6011      	str	r1, [r2, #0]
	cpu_irq_enable();
     85a:	4a0b      	ldr	r2, [pc, #44]	; (888 <initTSENS+0x64>)
     85c:	7013      	strb	r3, [r2, #0]
  \details Ensures the apparent order of the explicit memory operations before
           and after the instruction, without ensuring their completion.
 */
__STATIC_FORCEINLINE void __DMB(void)
{
  __ASM volatile ("dmb 0xF":::"memory");
     85e:	f3bf 8f5f 	dmb	sy
  __ASM volatile ("cpsie i" : : : "memory");
     862:	b662      	cpsie	i
	configure_tsens_callbacks();
	
	system_interrupt_enable(SYSTEM_INTERRUPT_MODULE_TSENS);
	system_interrupt_enable_global();
	return 0;
}
     864:	2000      	movs	r0, #0
     866:	b009      	add	sp, #36	; 0x24
     868:	bd00      	pop	{pc}
     86a:	46c0      	nop			; (mov r8, r8)
     86c:	000009ad 	.word	0x000009ad
     870:	000008f1 	.word	0x000008f1
     874:	40003000 	.word	0x40003000
     878:	00000819 	.word	0x00000819
     87c:	200026a4 	.word	0x200026a4
     880:	00000a45 	.word	0x00000a45
     884:	e000e100 	.word	0xe000e100
     888:	200000ec 	.word	0x200000ec

0000088c <set_tsens_offset>:

int set_tsens_offset(uint32_t offset) {
	TEMPOFFSETVAL = offset;
     88c:	4b01      	ldr	r3, [pc, #4]	; (894 <set_tsens_offset+0x8>)
     88e:	6018      	str	r0, [r3, #0]
	return 0;
}
     890:	2000      	movs	r0, #0
     892:	4770      	bx	lr
     894:	20000280 	.word	0x20000280

00000898 <get_tsens_offset>:

int get_tsens_offset(void) {
	return TEMPOFFSETVAL;
     898:	4b01      	ldr	r3, [pc, #4]	; (8a0 <get_tsens_offset+0x8>)
     89a:	6818      	ldr	r0, [r3, #0]
}
     89c:	4770      	bx	lr
     89e:	46c0      	nop			; (mov r8, r8)
     8a0:	20000280 	.word	0x20000280

000008a4 <tsens_get_temp>:

int tsens_get_temp(void) {
     8a4:	b510      	push	{r4, lr}
	tsens_read_job(&tsens_instance, &tsens_result);
     8a6:	490c      	ldr	r1, [pc, #48]	; (8d8 <tsens_get_temp+0x34>)
     8a8:	480c      	ldr	r0, [pc, #48]	; (8dc <tsens_get_temp+0x38>)
     8aa:	4b0d      	ldr	r3, [pc, #52]	; (8e0 <tsens_get_temp+0x3c>)
     8ac:	4798      	blx	r3

	while (tsens_read_done == false) {
     8ae:	4a0d      	ldr	r2, [pc, #52]	; (8e4 <tsens_get_temp+0x40>)
     8b0:	7813      	ldrb	r3, [r2, #0]
     8b2:	2b00      	cmp	r3, #0
     8b4:	d0fc      	beq.n	8b0 <tsens_get_temp+0xc>
	}
	tsens_read_done = false;
     8b6:	2200      	movs	r2, #0
     8b8:	4b0a      	ldr	r3, [pc, #40]	; (8e4 <tsens_get_temp+0x40>)
     8ba:	701a      	strb	r2, [r3, #0]
	tsens_read_job(&tsens_instance, &tsens_result);
     8bc:	4c06      	ldr	r4, [pc, #24]	; (8d8 <tsens_get_temp+0x34>)
     8be:	0021      	movs	r1, r4
     8c0:	4806      	ldr	r0, [pc, #24]	; (8dc <tsens_get_temp+0x38>)
     8c2:	4b07      	ldr	r3, [pc, #28]	; (8e0 <tsens_get_temp+0x3c>)
     8c4:	4798      	blx	r3
	//printf("Value read: %i\r\n",(-(int)tsens_result)/100);

	return (-TEMPOFFSETVAL-(int)tsens_result)/100;
     8c6:	4b08      	ldr	r3, [pc, #32]	; (8e8 <tsens_get_temp+0x44>)
     8c8:	6818      	ldr	r0, [r3, #0]
     8ca:	6823      	ldr	r3, [r4, #0]
     8cc:	18c0      	adds	r0, r0, r3
     8ce:	4240      	negs	r0, r0
     8d0:	2164      	movs	r1, #100	; 0x64
     8d2:	4b06      	ldr	r3, [pc, #24]	; (8ec <tsens_get_temp+0x48>)
     8d4:	4798      	blx	r3
     8d6:	bd10      	pop	{r4, pc}
     8d8:	20000288 	.word	0x20000288
     8dc:	200026a4 	.word	0x200026a4
     8e0:	00000a61 	.word	0x00000a61
     8e4:	20000284 	.word	0x20000284
     8e8:	20000280 	.word	0x20000280
     8ec:	00006b6d 	.word	0x00006b6d

000008f0 <tsens_init>:
     8f0:	b510      	push	{r4, lr}
     8f2:	b082      	sub	sp, #8
     8f4:	0004      	movs	r4, r0
     8f6:	4a28      	ldr	r2, [pc, #160]	; (998 <tsens_init+0xa8>)
     8f8:	6951      	ldr	r1, [r2, #20]
     8fa:	2380      	movs	r3, #128	; 0x80
     8fc:	015b      	lsls	r3, r3, #5
     8fe:	430b      	orrs	r3, r1
     900:	6153      	str	r3, [r2, #20]
     902:	4b26      	ldr	r3, [pc, #152]	; (99c <tsens_init+0xac>)
     904:	781b      	ldrb	r3, [r3, #0]
     906:	2005      	movs	r0, #5
     908:	07db      	lsls	r3, r3, #31
     90a:	d501      	bpl.n	910 <tsens_init+0x20>
     90c:	b002      	add	sp, #8
     90e:	bd10      	pop	{r4, pc}
     910:	4b22      	ldr	r3, [pc, #136]	; (99c <tsens_init+0xac>)
     912:	781b      	ldrb	r3, [r3, #0]
     914:	3017      	adds	r0, #23
     916:	079b      	lsls	r3, r3, #30
     918:	d4f8      	bmi.n	90c <tsens_init+0x1c>
     91a:	a901      	add	r1, sp, #4
     91c:	7823      	ldrb	r3, [r4, #0]
     91e:	700b      	strb	r3, [r1, #0]
     920:	3817      	subs	r0, #23
     922:	4b1f      	ldr	r3, [pc, #124]	; (9a0 <tsens_init+0xb0>)
     924:	4798      	blx	r3
     926:	2005      	movs	r0, #5
     928:	4b1e      	ldr	r3, [pc, #120]	; (9a4 <tsens_init+0xb4>)
     92a:	4798      	blx	r3
     92c:	78a3      	ldrb	r3, [r4, #2]
     92e:	019b      	lsls	r3, r3, #6
     930:	b2db      	uxtb	r3, r3
     932:	4a1a      	ldr	r2, [pc, #104]	; (99c <tsens_init+0xac>)
     934:	7013      	strb	r3, [r2, #0]
     936:	7923      	ldrb	r3, [r4, #4]
     938:	2b00      	cmp	r3, #0
     93a:	d006      	beq.n	94a <tsens_init+0x5a>
     93c:	2017      	movs	r0, #23
     93e:	68a2      	ldr	r2, [r4, #8]
     940:	3228      	adds	r2, #40	; 0x28
     942:	dbe3      	blt.n	90c <tsens_init+0x1c>
     944:	68e2      	ldr	r2, [r4, #12]
     946:	2a69      	cmp	r2, #105	; 0x69
     948:	dce0      	bgt.n	90c <tsens_init+0x1c>
     94a:	7862      	ldrb	r2, [r4, #1]
     94c:	0112      	lsls	r2, r2, #4
     94e:	431a      	orrs	r2, r3
     950:	b2d2      	uxtb	r2, r2
     952:	4b12      	ldr	r3, [pc, #72]	; (99c <tsens_init+0xac>)
     954:	709a      	strb	r2, [r3, #2]
     956:	68e2      	ldr	r2, [r4, #12]
     958:	0212      	lsls	r2, r2, #8
     95a:	0a12      	lsrs	r2, r2, #8
     95c:	611a      	str	r2, [r3, #16]
     95e:	68a2      	ldr	r2, [r4, #8]
     960:	0212      	lsls	r2, r2, #8
     962:	0a12      	lsrs	r2, r2, #8
     964:	615a      	str	r2, [r3, #20]
     966:	7c22      	ldrb	r2, [r4, #16]
     968:	70da      	strb	r2, [r3, #3]
     96a:	220f      	movs	r2, #15
     96c:	711a      	strb	r2, [r3, #4]
     96e:	4a0e      	ldr	r2, [pc, #56]	; (9a8 <tsens_init+0xb8>)
     970:	6812      	ldr	r2, [r2, #0]
     972:	0511      	lsls	r1, r2, #20
     974:	0e89      	lsrs	r1, r1, #26
     976:	0212      	lsls	r2, r2, #8
     978:	20fc      	movs	r0, #252	; 0xfc
     97a:	0180      	lsls	r0, r0, #6
     97c:	4002      	ands	r2, r0
     97e:	430a      	orrs	r2, r1
     980:	621a      	str	r2, [r3, #32]
     982:	6962      	ldr	r2, [r4, #20]
     984:	0212      	lsls	r2, r2, #8
     986:	0a12      	lsrs	r2, r2, #8
     988:	619a      	str	r2, [r3, #24]
     98a:	69a2      	ldr	r2, [r4, #24]
     98c:	0212      	lsls	r2, r2, #8
     98e:	0a12      	lsrs	r2, r2, #8
     990:	61da      	str	r2, [r3, #28]
     992:	2000      	movs	r0, #0
     994:	e7ba      	b.n	90c <tsens_init+0x1c>
     996:	46c0      	nop			; (mov r8, r8)
     998:	40000800 	.word	0x40000800
     99c:	40003000 	.word	0x40003000
     9a0:	00003911 	.word	0x00003911
     9a4:	000038a1 	.word	0x000038a1
     9a8:	00806030 	.word	0x00806030

000009ac <tsens_get_config_defaults>:
     9ac:	2300      	movs	r3, #0
     9ae:	7003      	strb	r3, [r0, #0]
     9b0:	7043      	strb	r3, [r0, #1]
     9b2:	7083      	strb	r3, [r0, #2]
     9b4:	7103      	strb	r3, [r0, #4]
     9b6:	60c3      	str	r3, [r0, #12]
     9b8:	6083      	str	r3, [r0, #8]
     9ba:	7403      	strb	r3, [r0, #16]
     9bc:	4b07      	ldr	r3, [pc, #28]	; (9dc <tsens_get_config_defaults+0x30>)
     9be:	681a      	ldr	r2, [r3, #0]
     9c0:	4b07      	ldr	r3, [pc, #28]	; (9e0 <tsens_get_config_defaults+0x34>)
     9c2:	681b      	ldr	r3, [r3, #0]
     9c4:	0119      	lsls	r1, r3, #4
     9c6:	0a09      	lsrs	r1, r1, #8
     9c8:	6181      	str	r1, [r0, #24]
     9ca:	051b      	lsls	r3, r3, #20
     9cc:	21f0      	movs	r1, #240	; 0xf0
     9ce:	0409      	lsls	r1, r1, #16
     9d0:	400b      	ands	r3, r1
     9d2:	0b12      	lsrs	r2, r2, #12
     9d4:	4313      	orrs	r3, r2
     9d6:	6143      	str	r3, [r0, #20]
     9d8:	4770      	bx	lr
     9da:	46c0      	nop			; (mov r8, r8)
     9dc:	00806030 	.word	0x00806030
     9e0:	00806034 	.word	0x00806034

000009e4 <TSENS_Handler>:
     9e4:	b5f0      	push	{r4, r5, r6, r7, lr}
     9e6:	46c6      	mov	lr, r8
     9e8:	b500      	push	{lr}
     9ea:	4b14      	ldr	r3, [pc, #80]	; (a3c <TSENS_Handler+0x58>)
     9ec:	681f      	ldr	r7, [r3, #0]
     9ee:	4b14      	ldr	r3, [pc, #80]	; (a40 <TSENS_Handler+0x5c>)
     9f0:	799e      	ldrb	r6, [r3, #6]
     9f2:	b2f6      	uxtb	r6, r6
     9f4:	68db      	ldr	r3, [r3, #12]
     9f6:	021a      	lsls	r2, r3, #8
     9f8:	d502      	bpl.n	a00 <TSENS_Handler+0x1c>
     9fa:	22ff      	movs	r2, #255	; 0xff
     9fc:	0612      	lsls	r2, r2, #24
     9fe:	4313      	orrs	r3, r2
     a00:	693a      	ldr	r2, [r7, #16]
     a02:	425b      	negs	r3, r3
     a04:	6013      	str	r3, [r2, #0]
     a06:	2400      	movs	r4, #0
     a08:	2501      	movs	r5, #1
     a0a:	4b0d      	ldr	r3, [pc, #52]	; (a40 <TSENS_Handler+0x5c>)
     a0c:	4698      	mov	r8, r3
     a0e:	e002      	b.n	a16 <TSENS_Handler+0x32>
     a10:	3401      	adds	r4, #1
     a12:	2c04      	cmp	r4, #4
     a14:	d00f      	beq.n	a36 <TSENS_Handler+0x52>
     a16:	b2e0      	uxtb	r0, r4
     a18:	0033      	movs	r3, r6
     a1a:	40e3      	lsrs	r3, r4
     a1c:	421d      	tst	r5, r3
     a1e:	d0f7      	beq.n	a10 <TSENS_Handler+0x2c>
     a20:	002b      	movs	r3, r5
     a22:	40a3      	lsls	r3, r4
     a24:	b2db      	uxtb	r3, r3
     a26:	4642      	mov	r2, r8
     a28:	7193      	strb	r3, [r2, #6]
     a2a:	00a3      	lsls	r3, r4, #2
     a2c:	58fb      	ldr	r3, [r7, r3]
     a2e:	2b00      	cmp	r3, #0
     a30:	d0ee      	beq.n	a10 <TSENS_Handler+0x2c>
     a32:	4798      	blx	r3
     a34:	e7ec      	b.n	a10 <TSENS_Handler+0x2c>
     a36:	bc04      	pop	{r2}
     a38:	4690      	mov	r8, r2
     a3a:	bdf0      	pop	{r4, r5, r6, r7, pc}
     a3c:	200026b8 	.word	0x200026b8
     a40:	40003000 	.word	0x40003000

00000a44 <tsens_register_callback>:
     a44:	2317      	movs	r3, #23
     a46:	2a04      	cmp	r2, #4
     a48:	d901      	bls.n	a4e <tsens_register_callback+0xa>
     a4a:	0018      	movs	r0, r3
     a4c:	4770      	bx	lr
     a4e:	0092      	lsls	r2, r2, #2
     a50:	5011      	str	r1, [r2, r0]
     a52:	4b02      	ldr	r3, [pc, #8]	; (a5c <tsens_register_callback+0x18>)
     a54:	6018      	str	r0, [r3, #0]
     a56:	2300      	movs	r3, #0
     a58:	e7f7      	b.n	a4a <tsens_register_callback+0x6>
     a5a:	46c0      	nop			; (mov r8, r8)
     a5c:	200026b8 	.word	0x200026b8

00000a60 <tsens_read_job>:
     a60:	6101      	str	r1, [r0, #16]
     a62:	4b07      	ldr	r3, [pc, #28]	; (a80 <tsens_read_job+0x20>)
     a64:	789b      	ldrb	r3, [r3, #2]
     a66:	06db      	lsls	r3, r3, #27
     a68:	d500      	bpl.n	a6c <tsens_read_job+0xc>
     a6a:	4770      	bx	lr
     a6c:	4a04      	ldr	r2, [pc, #16]	; (a80 <tsens_read_job+0x20>)
     a6e:	7853      	ldrb	r3, [r2, #1]
     a70:	2101      	movs	r1, #1
     a72:	430b      	orrs	r3, r1
     a74:	7053      	strb	r3, [r2, #1]
     a76:	6893      	ldr	r3, [r2, #8]
     a78:	2b00      	cmp	r3, #0
     a7a:	d1fc      	bne.n	a76 <tsens_read_job+0x16>
     a7c:	e7f5      	b.n	a6a <tsens_read_job+0xa>
     a7e:	46c0      	nop			; (mov r8, r8)
     a80:	40003000 	.word	0x40003000

00000a84 <CAN_Rx>:
struct multiBuffer CAN1_rx_element_buff[NETWORK_MAX_BUFFS];
#endif

//struct multiBuffer rx_element_buff[CONF_CAN0_RX_BUFFER_NUM];

uint8_t * CAN_Rx(uint16_t idVal, int bufferNum, struct can_module * can_inst) {
     a84:	b510      	push	{r4, lr}
     a86:	b082      	sub	sp, #8
     a88:	0014      	movs	r4, r2
 * \param[out] sd_filter  Pointer to standard filter element struct to initialize to default values
 */
static inline void can_get_standard_message_filter_element_default(
		struct can_standard_message_filter_element *sd_filter)
{
	sd_filter->S0.reg = CAN_STANDARD_MESSAGE_FILTER_ELEMENT_S0_SFID2_Msk |
     a8a:	4b11      	ldr	r3, [pc, #68]	; (ad0 <CAN_Rx+0x4c>)
     a8c:	9301      	str	r3, [sp, #4]
	struct can_standard_message_filter_element sd_filter;
	can_get_standard_message_filter_element_default(&sd_filter);
	sd_filter.S0.bit.SFID1 = idVal;
     a8e:	9b01      	ldr	r3, [sp, #4]
     a90:	0540      	lsls	r0, r0, #21
     a92:	0942      	lsrs	r2, r0, #5
     a94:	480f      	ldr	r0, [pc, #60]	; (ad4 <CAN_Rx+0x50>)
     a96:	4018      	ands	r0, r3
     a98:	4310      	orrs	r0, r2
     a9a:	9001      	str	r0, [sp, #4]
	sd_filter.S0.bit.SFID2 = bufferNum;
     a9c:	9b01      	ldr	r3, [sp, #4]
     a9e:	054a      	lsls	r2, r1, #21
     aa0:	0d52      	lsrs	r2, r2, #21
     aa2:	0adb      	lsrs	r3, r3, #11
     aa4:	02db      	lsls	r3, r3, #11
     aa6:	4313      	orrs	r3, r2
     aa8:	9301      	str	r3, [sp, #4]
	sd_filter.S0.bit.SFEC = CAN_STANDARD_MESSAGE_FILTER_ELEMENT_S0_SFEC_STRXBUF_Val;
     aaa:	9a01      	ldr	r2, [sp, #4]
     aac:	23e0      	movs	r3, #224	; 0xe0
     aae:	059b      	lsls	r3, r3, #22
     ab0:	4313      	orrs	r3, r2
     ab2:	9301      	str	r3, [sp, #4]
	can_set_rx_standard_filter(can_inst, &sd_filter,
     ab4:	000a      	movs	r2, r1
     ab6:	a901      	add	r1, sp, #4
     ab8:	0020      	movs	r0, r4
     aba:	4b07      	ldr	r3, [pc, #28]	; (ad8 <CAN_Rx+0x54>)
     abc:	4798      	blx	r3
 * \param[in] source  Interrupt source type
 */
static inline void can_enable_interrupt(struct can_module *const module_inst,
		const enum can_interrupt_source source)
{
	module_inst->hw->IE.reg |= source;
     abe:	6822      	ldr	r2, [r4, #0]
     ac0:	6d51      	ldr	r1, [r2, #84]	; 0x54
     ac2:	2380      	movs	r3, #128	; 0x80
     ac4:	031b      	lsls	r3, r3, #12
     ac6:	430b      	orrs	r3, r1
     ac8:	6553      	str	r3, [r2, #84]	; 0x54
		bufferNum);
	can_enable_interrupt(can_inst, CAN_RX_BUFFER_NEW_MESSAGE);
	return NULL;//rx_element_buff[bufferNum].buffers[rx_element_buff[bufferNum].last_read].data;
}
     aca:	2000      	movs	r0, #0
     acc:	b002      	add	sp, #8
     ace:	bd10      	pop	{r4, pc}
     ad0:	880007ff 	.word	0x880007ff
     ad4:	f800ffff 	.word	0xf800ffff
     ad8:	00002839 	.word	0x00002839

00000adc <num_to_CAN>:
	return 0;
}

int num_to_CAN(int num) {
	if (num <= 8) {
		return 12;
     adc:	230c      	movs	r3, #12
	if (num <= 8) {
     ade:	2808      	cmp	r0, #8
     ae0:	dc01      	bgt.n	ae6 <num_to_CAN+0xa>
		return ((num+7)>>2)+5;
	}
	else {
		return ((num+15)>>4)+11;
	}
}
     ae2:	0018      	movs	r0, r3
     ae4:	4770      	bx	lr
	else if (num <= 24) {
     ae6:	2818      	cmp	r0, #24
     ae8:	dd04      	ble.n	af4 <num_to_CAN+0x18>
		return ((num+15)>>4)+11;
     aea:	300f      	adds	r0, #15
     aec:	1100      	asrs	r0, r0, #4
     aee:	0003      	movs	r3, r0
     af0:	330b      	adds	r3, #11
     af2:	e7f6      	b.n	ae2 <num_to_CAN+0x6>
		return ((num+7)>>2)+5;
     af4:	3007      	adds	r0, #7
     af6:	1080      	asrs	r0, r0, #2
     af8:	1d43      	adds	r3, r0, #5
     afa:	e7f2      	b.n	ae2 <num_to_CAN+0x6>

00000afc <CAN_Tx_Raw>:

const char map[16] = {-1,1,2,3,4,5,6,7,8,12,16,20,24,32,48,64};

int CAN_Tx_Raw(uint16_t idVal, struct can_tx_element * tx_element, uint32_t dataLen, int buffer, struct can_module * can_inst) {
     afc:	b5f8      	push	{r3, r4, r5, r6, r7, lr}
     afe:	000c      	movs	r4, r1
     b00:	0016      	movs	r6, r2
     b02:	001d      	movs	r5, r3
	tx_element->T0.reg = 0;
     b04:	2300      	movs	r3, #0
     b06:	600b      	str	r3, [r1, #0]
	tx_element->T1.reg = CAN_TX_ELEMENT_T1_EFC |
     b08:	2388      	movs	r3, #136	; 0x88
     b0a:	041b      	lsls	r3, r3, #16
     b0c:	604b      	str	r3, [r1, #4]
	can_get_tx_buffer_element_defaults(tx_element);
	tx_element->T0.reg = CAN_TX_ELEMENT_T0_STANDARD_ID(idVal);
     b0e:	0480      	lsls	r0, r0, #18
     b10:	4b29      	ldr	r3, [pc, #164]	; (bb8 <CAN_Tx_Raw+0xbc>)
     b12:	4018      	ands	r0, r3
     b14:	6008      	str	r0, [r1, #0]
	tx_element->T1.reg = CAN_TX_ELEMENT_T1_FDF | CAN_TX_ELEMENT_T1_BRS;
     b16:	23c0      	movs	r3, #192	; 0xc0
     b18:	039b      	lsls	r3, r3, #14
     b1a:	604b      	str	r3, [r1, #4]
	switch(map[num_to_CAN(dataLen)]) {
     b1c:	0010      	movs	r0, r2
     b1e:	4b27      	ldr	r3, [pc, #156]	; (bbc <CAN_Tx_Raw+0xc0>)
     b20:	4798      	blx	r3
     b22:	4b27      	ldr	r3, [pc, #156]	; (bc0 <CAN_Tx_Raw+0xc4>)
     b24:	5c1f      	ldrb	r7, [r3, r0]
     b26:	003b      	movs	r3, r7
     b28:	3b0c      	subs	r3, #12
     b2a:	b2da      	uxtb	r2, r3
     b2c:	2a34      	cmp	r2, #52	; 0x34
     b2e:	d83c      	bhi.n	baa <CAN_Tx_Raw+0xae>
     b30:	0093      	lsls	r3, r2, #2
     b32:	4a24      	ldr	r2, [pc, #144]	; (bc4 <CAN_Tx_Raw+0xc8>)
     b34:	58d3      	ldr	r3, [r2, r3]
     b36:	469f      	mov	pc, r3
		case 12:
			tx_element->T1.reg |= CAN_TX_ELEMENT_T1_DLC(CAN_TX_ELEMENT_T1_DLC_DATA12_Val);
     b38:	6862      	ldr	r2, [r4, #4]
     b3a:	2390      	movs	r3, #144	; 0x90
     b3c:	031b      	lsls	r3, r3, #12
     b3e:	4313      	orrs	r3, r2
     b40:	6063      	str	r3, [r4, #4]
			break;
		default:
			printf("An unexpected value was encountered in CAN_Tx_Raw, %d %d.\r\n",dataLen,map[num_to_CAN(dataLen)]);
			return 3;
	}
	can_set_tx_buffer_element(can_inst, tx_element,
     b42:	002a      	movs	r2, r5
     b44:	0021      	movs	r1, r4
     b46:	9806      	ldr	r0, [sp, #24]
     b48:	4b1f      	ldr	r3, [pc, #124]	; (bc8 <CAN_Tx_Raw+0xcc>)
     b4a:	4798      	blx	r3
	if (module_inst->hw->CCCR.reg & CAN_CCCR_CCE) {
     b4c:	9b06      	ldr	r3, [sp, #24]
     b4e:	681b      	ldr	r3, [r3, #0]
     b50:	699a      	ldr	r2, [r3, #24]
     b52:	0792      	lsls	r2, r2, #30
     b54:	d403      	bmi.n	b5e <CAN_Tx_Raw+0x62>
		buffer);
	can_tx_transfer_request(can_inst, 1 << buffer);
     b56:	2201      	movs	r2, #1
     b58:	40aa      	lsls	r2, r5
	module_inst->hw->TXBAR.reg = trig_mask;
     b5a:	21d0      	movs	r1, #208	; 0xd0
     b5c:	505a      	str	r2, [r3, r1]
	//can_enable_interrupt(can_inst, CAN_TX_EVENT_FIFO_NEW_ENTRY);
	return map[num_to_CAN(dataLen)];
}
     b5e:	0038      	movs	r0, r7
     b60:	bdf8      	pop	{r3, r4, r5, r6, r7, pc}
			tx_element->T1.reg |= CAN_TX_ELEMENT_T1_DLC(CAN_TX_ELEMENT_T1_DLC_DATA16_Val);
     b62:	6862      	ldr	r2, [r4, #4]
     b64:	23a0      	movs	r3, #160	; 0xa0
     b66:	031b      	lsls	r3, r3, #12
     b68:	4313      	orrs	r3, r2
     b6a:	6063      	str	r3, [r4, #4]
			break;
     b6c:	e7e9      	b.n	b42 <CAN_Tx_Raw+0x46>
			tx_element->T1.reg |= CAN_TX_ELEMENT_T1_DLC(CAN_TX_ELEMENT_T1_DLC_DATA20_Val);
     b6e:	6862      	ldr	r2, [r4, #4]
     b70:	23b0      	movs	r3, #176	; 0xb0
     b72:	031b      	lsls	r3, r3, #12
     b74:	4313      	orrs	r3, r2
     b76:	6063      	str	r3, [r4, #4]
			break;
     b78:	e7e3      	b.n	b42 <CAN_Tx_Raw+0x46>
			tx_element->T1.reg |= CAN_TX_ELEMENT_T1_DLC(CAN_TX_ELEMENT_T1_DLC_DATA24_Val);
     b7a:	6862      	ldr	r2, [r4, #4]
     b7c:	23c0      	movs	r3, #192	; 0xc0
     b7e:	031b      	lsls	r3, r3, #12
     b80:	4313      	orrs	r3, r2
     b82:	6063      	str	r3, [r4, #4]
			break;
     b84:	e7dd      	b.n	b42 <CAN_Tx_Raw+0x46>
			tx_element->T1.reg |= CAN_TX_ELEMENT_T1_DLC(CAN_TX_ELEMENT_T1_DLC_DATA32_Val);
     b86:	6862      	ldr	r2, [r4, #4]
     b88:	23d0      	movs	r3, #208	; 0xd0
     b8a:	031b      	lsls	r3, r3, #12
     b8c:	4313      	orrs	r3, r2
     b8e:	6063      	str	r3, [r4, #4]
			break;
     b90:	e7d7      	b.n	b42 <CAN_Tx_Raw+0x46>
			tx_element->T1.reg |= CAN_TX_ELEMENT_T1_DLC(CAN_TX_ELEMENT_T1_DLC_DATA48_Val);
     b92:	6862      	ldr	r2, [r4, #4]
     b94:	23e0      	movs	r3, #224	; 0xe0
     b96:	031b      	lsls	r3, r3, #12
     b98:	4313      	orrs	r3, r2
     b9a:	6063      	str	r3, [r4, #4]
			break;
     b9c:	e7d1      	b.n	b42 <CAN_Tx_Raw+0x46>
			tx_element->T1.reg |= CAN_TX_ELEMENT_T1_DLC(CAN_TX_ELEMENT_T1_DLC_DATA64_Val);
     b9e:	6862      	ldr	r2, [r4, #4]
     ba0:	23f0      	movs	r3, #240	; 0xf0
     ba2:	031b      	lsls	r3, r3, #12
     ba4:	4313      	orrs	r3, r2
     ba6:	6063      	str	r3, [r4, #4]
			break;
     ba8:	e7cb      	b.n	b42 <CAN_Tx_Raw+0x46>
			printf("An unexpected value was encountered in CAN_Tx_Raw, %d %d.\r\n",dataLen,map[num_to_CAN(dataLen)]);
     baa:	003a      	movs	r2, r7
     bac:	0031      	movs	r1, r6
     bae:	4807      	ldr	r0, [pc, #28]	; (bcc <CAN_Tx_Raw+0xd0>)
     bb0:	4b07      	ldr	r3, [pc, #28]	; (bd0 <CAN_Tx_Raw+0xd4>)
     bb2:	4798      	blx	r3
			return 3;
     bb4:	2703      	movs	r7, #3
     bb6:	e7d2      	b.n	b5e <CAN_Tx_Raw+0x62>
     bb8:	1ffc0000 	.word	0x1ffc0000
     bbc:	00000add 	.word	0x00000add
     bc0:	0000837c 	.word	0x0000837c
     bc4:	000081c4 	.word	0x000081c4
     bc8:	000028cd 	.word	0x000028cd
     bcc:	00008340 	.word	0x00008340
     bd0:	000070e9 	.word	0x000070e9

00000bd4 <CAN_Tx>:

int CAN_Tx(uint16_t idVal, uint8_t *data, uint32_t dataLen, int buffer, struct can_module * can_inst) {
     bd4:	b5f0      	push	{r4, r5, r6, r7, lr}
     bd6:	b095      	sub	sp, #84	; 0x54
     bd8:	0005      	movs	r5, r0
     bda:	000f      	movs	r7, r1
     bdc:	0014      	movs	r4, r2
     bde:	001e      	movs	r6, r3
	struct can_tx_element tx_element;
	/*if (dataLen > 56 || dataLen < 8 || dataLen % 8 != 0) {
		printf("WARNING: CAN_Tx received value of %d",dataLen);
	}*/
	
	memset(tx_element.data,0,64);
     be0:	2240      	movs	r2, #64	; 0x40
     be2:	2100      	movs	r1, #0
     be4:	a804      	add	r0, sp, #16
     be6:	4b08      	ldr	r3, [pc, #32]	; (c08 <CAN_Tx+0x34>)
     be8:	4798      	blx	r3
	memcpy(tx_element.data,data,dataLen);
     bea:	0022      	movs	r2, r4
     bec:	0039      	movs	r1, r7
     bee:	a804      	add	r0, sp, #16
     bf0:	4b06      	ldr	r3, [pc, #24]	; (c0c <CAN_Tx+0x38>)
     bf2:	4798      	blx	r3
	return CAN_Tx_Raw(idVal,&tx_element,dataLen,buffer,can_inst);
     bf4:	9b1a      	ldr	r3, [sp, #104]	; 0x68
     bf6:	9300      	str	r3, [sp, #0]
     bf8:	0033      	movs	r3, r6
     bfa:	0022      	movs	r2, r4
     bfc:	a902      	add	r1, sp, #8
     bfe:	0028      	movs	r0, r5
     c00:	4c03      	ldr	r4, [pc, #12]	; (c10 <CAN_Tx+0x3c>)
     c02:	47a0      	blx	r4
	can_set_tx_buffer_element(can_inst, &tx_element,
	buffer);
	can_tx_transfer_request(can_inst, 1 << buffer);
	while(!(can_tx_get_transmission_status(can_inst) & (1 << buffer)));
	can_enable_interrupt(can_inst, CAN_TX_EVENT_FIFO_NEW_ENTRY);*/
}
     c04:	b015      	add	sp, #84	; 0x54
     c06:	bdf0      	pop	{r4, r5, r6, r7, pc}
     c08:	00006f89 	.word	0x00006f89
     c0c:	00006f53 	.word	0x00006f53
     c10:	00000afd 	.word	0x00000afd

00000c14 <network_start_listening>:

int network_start_listening(struct network* network, struct network_addr* selfAddr) {
     c14:	b510      	push	{r4, lr}
	// This is trying to setup the broadcast listen.
	if(selfAddr->CAN_addr == BROADCAST_ID) {
     c16:	880b      	ldrh	r3, [r1, #0]
     c18:	4a08      	ldr	r2, [pc, #32]	; (c3c <network_start_listening+0x28>)
     c1a:	4293      	cmp	r3, r2
     c1c:	d006      	beq.n	c2c <network_start_listening+0x18>
		CAN_Rx(selfAddr->CAN_addr,network->broadcast_buff_num, network->can_instance);
		return 1;
	}
	// This is trying to setup a different listen.
	CAN_Rx(selfAddr->CAN_addr,network->buff_num, network->can_instance);
     c1e:	6802      	ldr	r2, [r0, #0]
     c20:	6881      	ldr	r1, [r0, #8]
     c22:	0018      	movs	r0, r3
     c24:	4b06      	ldr	r3, [pc, #24]	; (c40 <network_start_listening+0x2c>)
     c26:	4798      	blx	r3
	return 0;
     c28:	2000      	movs	r0, #0
}
     c2a:	bd10      	pop	{r4, pc}
		CAN_Rx(selfAddr->CAN_addr,network->broadcast_buff_num, network->can_instance);
     c2c:	6802      	ldr	r2, [r0, #0]
     c2e:	68c1      	ldr	r1, [r0, #12]
     c30:	4802      	ldr	r0, [pc, #8]	; (c3c <network_start_listening+0x28>)
     c32:	4b03      	ldr	r3, [pc, #12]	; (c40 <network_start_listening+0x2c>)
     c34:	4798      	blx	r3
		return 1;
     c36:	2001      	movs	r0, #1
     c38:	e7f7      	b.n	c2a <network_start_listening+0x16>
     c3a:	46c0      	nop			; (mov r8, r8)
     c3c:	0000ffff 	.word	0x0000ffff
     c40:	00000a85 	.word	0x00000a85

00000c44 <network_send>:

// Tx only uses one Buff per network
// Rx receives on multiple buffers based on broadcast or not (is set up on its own)
void network_send(struct network* network, struct network_addr* addr, uint8_t* data, size_t len) {
     c44:	b5f0      	push	{r4, r5, r6, r7, lr}
     c46:	46de      	mov	lr, fp
     c48:	4657      	mov	r7, sl
     c4a:	464e      	mov	r6, r9
     c4c:	b5c0      	push	{r6, r7, lr}
     c4e:	b084      	sub	sp, #16
     c50:	0006      	movs	r6, r0
     c52:	468a      	mov	sl, r1
     c54:	0014      	movs	r4, r2
     c56:	9203      	str	r2, [sp, #12]
     c58:	4699      	mov	r9, r3
	struct can_module * can_instance = network->can_instance;
     c5a:	6803      	ldr	r3, [r0, #0]
     c5c:	469b      	mov	fp, r3
	debug_print("Network send - Message: \n");
     c5e:	4b1a      	ldr	r3, [pc, #104]	; (cc8 <network_send+0x84>)
     c60:	6819      	ldr	r1, [r3, #0]
     c62:	481a      	ldr	r0, [pc, #104]	; (ccc <network_send+0x88>)
     c64:	4b1a      	ldr	r3, [pc, #104]	; (cd0 <network_send+0x8c>)
     c66:	4798      	blx	r3
	for (int sex = 0; sex < len; sex++) {
     c68:	464b      	mov	r3, r9
     c6a:	2b00      	cmp	r3, #0
     c6c:	d009      	beq.n	c82 <network_send+0x3e>
     c6e:	0023      	movs	r3, r4
     c70:	444b      	add	r3, r9
     c72:	001f      	movs	r7, r3
		printf("%x ",data[sex]);
     c74:	4d16      	ldr	r5, [pc, #88]	; (cd0 <network_send+0x8c>)
     c76:	7821      	ldrb	r1, [r4, #0]
     c78:	4816      	ldr	r0, [pc, #88]	; (cd4 <network_send+0x90>)
     c7a:	47a8      	blx	r5
     c7c:	3401      	adds	r4, #1
	for (int sex = 0; sex < len; sex++) {
     c7e:	42bc      	cmp	r4, r7
     c80:	d1f9      	bne.n	c76 <network_send+0x32>
	}
	printf("\r\n");
     c82:	4815      	ldr	r0, [pc, #84]	; (cd8 <network_send+0x94>)
     c84:	4b15      	ldr	r3, [pc, #84]	; (cdc <network_send+0x98>)
     c86:	4798      	blx	r3
	CAN_Tx(addr->CAN_addr,data,len,network->buff_num,can_instance);
     c88:	4653      	mov	r3, sl
     c8a:	8818      	ldrh	r0, [r3, #0]
     c8c:	465b      	mov	r3, fp
     c8e:	9300      	str	r3, [sp, #0]
     c90:	68b3      	ldr	r3, [r6, #8]
     c92:	464a      	mov	r2, r9
     c94:	9903      	ldr	r1, [sp, #12]
     c96:	4c12      	ldr	r4, [pc, #72]	; (ce0 <network_send+0x9c>)
     c98:	47a0      	blx	r4
	return module_inst->hw->TXBTO.reg;
     c9a:	465b      	mov	r3, fp
     c9c:	6818      	ldr	r0, [r3, #0]
}

////////////////////////////////////////////////////////////////////////
inline static void CAN_Tx_Wait(int buffer, struct can_module * can_inst) {
	while(!(can_tx_get_transmission_status(can_inst) & (1 << buffer)));
     c9e:	68b3      	ldr	r3, [r6, #8]
     ca0:	2201      	movs	r2, #1
     ca2:	409a      	lsls	r2, r3
     ca4:	21d8      	movs	r1, #216	; 0xd8
     ca6:	5843      	ldr	r3, [r0, r1]
     ca8:	421a      	tst	r2, r3
     caa:	d0fc      	beq.n	ca6 <network_send+0x62>
	CAN_Tx_Wait(network->buff_num,can_instance);
	debug_print("Successfully Sent Data to ID %d.\n", addr->CAN_addr);
     cac:	4653      	mov	r3, sl
     cae:	881a      	ldrh	r2, [r3, #0]
     cb0:	4b05      	ldr	r3, [pc, #20]	; (cc8 <network_send+0x84>)
     cb2:	6819      	ldr	r1, [r3, #0]
     cb4:	480b      	ldr	r0, [pc, #44]	; (ce4 <network_send+0xa0>)
     cb6:	4b06      	ldr	r3, [pc, #24]	; (cd0 <network_send+0x8c>)
     cb8:	4798      	blx	r3
}
     cba:	b004      	add	sp, #16
     cbc:	bc1c      	pop	{r2, r3, r4}
     cbe:	4691      	mov	r9, r2
     cc0:	469a      	mov	sl, r3
     cc2:	46a3      	mov	fp, r4
     cc4:	bdf0      	pop	{r4, r5, r6, r7, pc}
     cc6:	46c0      	nop			; (mov r8, r8)
     cc8:	20002b98 	.word	0x20002b98
     ccc:	00008450 	.word	0x00008450
     cd0:	000070e9 	.word	0x000070e9
     cd4:	0000819c 	.word	0x0000819c
     cd8:	000081c0 	.word	0x000081c0
     cdc:	000071dd 	.word	0x000071dd
     ce0:	00000bd5 	.word	0x00000bd5
     ce4:	00008470 	.word	0x00008470

00000ce8 <network_check_any>:

int network_check_any(struct network* network, struct network_addr* source, uint8_t* buff, size_t len) {
     ce8:	b5f8      	push	{r3, r4, r5, r6, r7, lr}
     cea:	0006      	movs	r6, r0
     cec:	0017      	movs	r7, r2
     cee:	001c      	movs	r4, r3
	(void)source;
	//struct node_msg_generic structBuf;
	unsigned long mlen;
	
	
	if (network->rx_element_buff[network->buff_num].last_read != network->rx_element_buff[network->buff_num].last_write) {
     cf0:	6842      	ldr	r2, [r0, #4]
     cf2:	2391      	movs	r3, #145	; 0x91
     cf4:	009b      	lsls	r3, r3, #2
     cf6:	6881      	ldr	r1, [r0, #8]
     cf8:	434b      	muls	r3, r1
     cfa:	18d3      	adds	r3, r2, r3
     cfc:	7859      	ldrb	r1, [r3, #1]
     cfe:	781b      	ldrb	r3, [r3, #0]
     d00:	4299      	cmp	r1, r3
     d02:	d100      	bne.n	d06 <network_check_any+0x1e>
     d04:	e097      	b.n	e36 <network_check_any+0x14e>
		debug_print("Received regular data.\n");
     d06:	4b9f      	ldr	r3, [pc, #636]	; (f84 <network_check_any+0x29c>)
     d08:	6819      	ldr	r1, [r3, #0]
     d0a:	489f      	ldr	r0, [pc, #636]	; (f88 <network_check_any+0x2a0>)
     d0c:	4b9f      	ldr	r3, [pc, #636]	; (f8c <network_check_any+0x2a4>)
     d0e:	4798      	blx	r3
		struct can_rx_element_buffer * message = getNextBufferElement(&(network->rx_element_buff[network->buff_num]));
     d10:	2191      	movs	r1, #145	; 0x91
     d12:	0089      	lsls	r1, r1, #2
     d14:	68b3      	ldr	r3, [r6, #8]
     d16:	4359      	muls	r1, r3
     d18:	6876      	ldr	r6, [r6, #4]
     d1a:	1876      	adds	r6, r6, r1
		return 0;
	}
}

inline struct can_rx_element_buffer * getNextBufferElement(struct multiBuffer * buff) {
	if (buff->last_write == buff->last_read) return NULL;
     d1c:	7873      	ldrb	r3, [r6, #1]
     d1e:	7832      	ldrb	r2, [r6, #0]
     d20:	429a      	cmp	r2, r3
     d22:	d015      	beq.n	d50 <network_check_any+0x68>
	register int last_element = buff->last_read;
	
	buff->last_read = (buff->last_read + 1) % NETWORK_MAX_BUFFER_ELEMENTS;
     d24:	1c59      	adds	r1, r3, #1
     d26:	2207      	movs	r2, #7
     d28:	400a      	ands	r2, r1
     d2a:	7072      	strb	r2, [r6, #1]
	
	return &(buff->buffers[last_element]);
     d2c:	00d9      	lsls	r1, r3, #3
     d2e:	18c9      	adds	r1, r1, r3
     d30:	00c9      	lsls	r1, r1, #3
     d32:	3104      	adds	r1, #4
     d34:	1876      	adds	r6, r6, r1
		uint8_t dataLen = ((DLC_to_Val(message->R1.bit.DLC) < len) ? DLC_to_Val(message->R1.bit.DLC) : len);
     d36:	6873      	ldr	r3, [r6, #4]
     d38:	031b      	lsls	r3, r3, #12
     d3a:	0f1b      	lsrs	r3, r3, #28
	switch(input) {
     d3c:	3307      	adds	r3, #7
     d3e:	220f      	movs	r2, #15
     d40:	4013      	ands	r3, r2
     d42:	b2da      	uxtb	r2, r3
     d44:	2a06      	cmp	r2, #6
     d46:	d811      	bhi.n	d6c <network_check_any+0x84>
     d48:	009b      	lsls	r3, r3, #2
     d4a:	4a91      	ldr	r2, [pc, #580]	; (f90 <network_check_any+0x2a8>)
     d4c:	58d3      	ldr	r3, [r2, r3]
     d4e:	469f      	mov	pc, r3
	if (buff->last_write == buff->last_read) return NULL;
     d50:	2600      	movs	r6, #0
     d52:	e7f0      	b.n	d36 <network_check_any+0x4e>
		return 16;
     d54:	2310      	movs	r3, #16
     d56:	e00f      	b.n	d78 <network_check_any+0x90>
		return 20;
     d58:	2314      	movs	r3, #20
     d5a:	e00d      	b.n	d78 <network_check_any+0x90>
		return 24;
     d5c:	2318      	movs	r3, #24
     d5e:	e00b      	b.n	d78 <network_check_any+0x90>
		return 32;
     d60:	2320      	movs	r3, #32
     d62:	e009      	b.n	d78 <network_check_any+0x90>
		return 48;
     d64:	2330      	movs	r3, #48	; 0x30
     d66:	e007      	b.n	d78 <network_check_any+0x90>
		return 64;
     d68:	2340      	movs	r3, #64	; 0x40
     d6a:	e005      	b.n	d78 <network_check_any+0x90>
		printf("What did you just give me.\r\n");
     d6c:	4889      	ldr	r0, [pc, #548]	; (f94 <network_check_any+0x2ac>)
     d6e:	4b8a      	ldr	r3, [pc, #552]	; (f98 <network_check_any+0x2b0>)
     d70:	4798      	blx	r3
		return 0;
     d72:	2300      	movs	r3, #0
     d74:	e000      	b.n	d78 <network_check_any+0x90>
		return 12;
     d76:	230c      	movs	r3, #12
     d78:	42a3      	cmp	r3, r4
     d7a:	d22c      	bcs.n	dd6 <network_check_any+0xee>
     d7c:	6873      	ldr	r3, [r6, #4]
     d7e:	031b      	lsls	r3, r3, #12
     d80:	0f1b      	lsrs	r3, r3, #28
	switch(input) {
     d82:	3307      	adds	r3, #7
     d84:	220f      	movs	r2, #15
     d86:	4013      	ands	r3, r2
     d88:	b2da      	uxtb	r2, r3
     d8a:	2a06      	cmp	r2, #6
     d8c:	d80f      	bhi.n	dae <network_check_any+0xc6>
     d8e:	009b      	lsls	r3, r3, #2
     d90:	4a82      	ldr	r2, [pc, #520]	; (f9c <network_check_any+0x2b4>)
     d92:	58d3      	ldr	r3, [r2, r3]
     d94:	469f      	mov	pc, r3
		return 16;
     d96:	2510      	movs	r5, #16
     d98:	e00f      	b.n	dba <network_check_any+0xd2>
		return 20;
     d9a:	2514      	movs	r5, #20
     d9c:	e00d      	b.n	dba <network_check_any+0xd2>
		return 24;
     d9e:	2518      	movs	r5, #24
     da0:	e00b      	b.n	dba <network_check_any+0xd2>
		return 32;
     da2:	2520      	movs	r5, #32
     da4:	e009      	b.n	dba <network_check_any+0xd2>
		return 48;
     da6:	2530      	movs	r5, #48	; 0x30
     da8:	e007      	b.n	dba <network_check_any+0xd2>
		return 64;
     daa:	2540      	movs	r5, #64	; 0x40
     dac:	e005      	b.n	dba <network_check_any+0xd2>
		printf("What did you just give me.\r\n");
     dae:	4879      	ldr	r0, [pc, #484]	; (f94 <network_check_any+0x2ac>)
     db0:	4b79      	ldr	r3, [pc, #484]	; (f98 <network_check_any+0x2b0>)
     db2:	4798      	blx	r3
		return 0;
     db4:	2500      	movs	r5, #0
     db6:	e000      	b.n	dba <network_check_any+0xd2>
		return 12;
     db8:	250c      	movs	r5, #12
     dba:	b2ed      	uxtb	r5, r5
		
		printf("DEBUG: DLC to Val: %d\r\n",DLC_to_Val(message->R1.bit.DLC));
     dbc:	6873      	ldr	r3, [r6, #4]
     dbe:	031b      	lsls	r3, r3, #12
     dc0:	0f1b      	lsrs	r3, r3, #28
	switch(input) {
     dc2:	3307      	adds	r3, #7
     dc4:	220f      	movs	r2, #15
     dc6:	4013      	ands	r3, r2
     dc8:	b2da      	uxtb	r2, r3
     dca:	2a06      	cmp	r2, #6
     dcc:	d811      	bhi.n	df2 <network_check_any+0x10a>
     dce:	009b      	lsls	r3, r3, #2
     dd0:	4a73      	ldr	r2, [pc, #460]	; (fa0 <network_check_any+0x2b8>)
     dd2:	58d3      	ldr	r3, [r2, r3]
     dd4:	469f      	mov	pc, r3
		uint8_t dataLen = ((DLC_to_Val(message->R1.bit.DLC) < len) ? DLC_to_Val(message->R1.bit.DLC) : len);
     dd6:	b2e5      	uxtb	r5, r4
     dd8:	e7f0      	b.n	dbc <network_check_any+0xd4>
		return 16;
     dda:	2110      	movs	r1, #16
     ddc:	e00f      	b.n	dfe <network_check_any+0x116>
		return 20;
     dde:	2114      	movs	r1, #20
     de0:	e00d      	b.n	dfe <network_check_any+0x116>
		return 24;
     de2:	2118      	movs	r1, #24
     de4:	e00b      	b.n	dfe <network_check_any+0x116>
		return 32;
     de6:	2120      	movs	r1, #32
     de8:	e009      	b.n	dfe <network_check_any+0x116>
		return 48;
     dea:	2130      	movs	r1, #48	; 0x30
     dec:	e007      	b.n	dfe <network_check_any+0x116>
		return 64;
     dee:	2140      	movs	r1, #64	; 0x40
     df0:	e005      	b.n	dfe <network_check_any+0x116>
		printf("What did you just give me.\r\n");
     df2:	4868      	ldr	r0, [pc, #416]	; (f94 <network_check_any+0x2ac>)
     df4:	4b68      	ldr	r3, [pc, #416]	; (f98 <network_check_any+0x2b0>)
     df6:	4798      	blx	r3
		return 0;
     df8:	2100      	movs	r1, #0
     dfa:	e000      	b.n	dfe <network_check_any+0x116>
		return 12;
     dfc:	210c      	movs	r1, #12
		printf("DEBUG: DLC to Val: %d\r\n",DLC_to_Val(message->R1.bit.DLC));
     dfe:	4869      	ldr	r0, [pc, #420]	; (fa4 <network_check_any+0x2bc>)
     e00:	4c62      	ldr	r4, [pc, #392]	; (f8c <network_check_any+0x2a4>)
     e02:	47a0      	blx	r4
		memcpy(buff,message->data,dataLen);
     e04:	0031      	movs	r1, r6
     e06:	3108      	adds	r1, #8
     e08:	002a      	movs	r2, r5
     e0a:	0038      	movs	r0, r7
     e0c:	4b66      	ldr	r3, [pc, #408]	; (fa8 <network_check_any+0x2c0>)
     e0e:	4798      	blx	r3
		debug_print("Network Receive - Message: \n");
     e10:	4b5c      	ldr	r3, [pc, #368]	; (f84 <network_check_any+0x29c>)
     e12:	6819      	ldr	r1, [r3, #0]
     e14:	4865      	ldr	r0, [pc, #404]	; (fac <network_check_any+0x2c4>)
     e16:	47a0      	blx	r4
		for (int sex = 0; sex < dataLen; sex++) {
     e18:	2d00      	cmp	r5, #0
     e1a:	dd07      	ble.n	e2c <network_check_any+0x144>
     e1c:	2400      	movs	r4, #0
			printf("%x ",buff[sex]);
     e1e:	4e5b      	ldr	r6, [pc, #364]	; (f8c <network_check_any+0x2a4>)
     e20:	5d39      	ldrb	r1, [r7, r4]
     e22:	4863      	ldr	r0, [pc, #396]	; (fb0 <network_check_any+0x2c8>)
     e24:	47b0      	blx	r6
		for (int sex = 0; sex < dataLen; sex++) {
     e26:	3401      	adds	r4, #1
     e28:	42ac      	cmp	r4, r5
     e2a:	dbf9      	blt.n	e20 <network_check_any+0x138>
		}
		printf("\r\n");
     e2c:	4861      	ldr	r0, [pc, #388]	; (fb4 <network_check_any+0x2cc>)
     e2e:	4b5a      	ldr	r3, [pc, #360]	; (f98 <network_check_any+0x2b0>)
     e30:	4798      	blx	r3
		return dataLen;
	}
	else {
		return 0;
	}
     e32:	0028      	movs	r0, r5
     e34:	bdf8      	pop	{r3, r4, r5, r6, r7, pc}
	else if (network->broadcast_buff_num != (uint16_t)-1U && network->rx_element_buff[network->broadcast_buff_num].last_read != network->rx_element_buff[network->broadcast_buff_num].last_write) {
     e36:	68c1      	ldr	r1, [r0, #12]
     e38:	4b5f      	ldr	r3, [pc, #380]	; (fb8 <network_check_any+0x2d0>)
     e3a:	4299      	cmp	r1, r3
     e3c:	d100      	bne.n	e40 <network_check_any+0x158>
     e3e:	e09f      	b.n	f80 <network_check_any+0x298>
     e40:	2391      	movs	r3, #145	; 0x91
     e42:	009b      	lsls	r3, r3, #2
     e44:	434b      	muls	r3, r1
     e46:	18d2      	adds	r2, r2, r3
     e48:	7851      	ldrb	r1, [r2, #1]
     e4a:	7813      	ldrb	r3, [r2, #0]
		return 0;
     e4c:	2500      	movs	r5, #0
	else if (network->broadcast_buff_num != (uint16_t)-1U && network->rx_element_buff[network->broadcast_buff_num].last_read != network->rx_element_buff[network->broadcast_buff_num].last_write) {
     e4e:	4299      	cmp	r1, r3
     e50:	d0ef      	beq.n	e32 <network_check_any+0x14a>
		debug_print("Received broadcast data.\n");
     e52:	4b4c      	ldr	r3, [pc, #304]	; (f84 <network_check_any+0x29c>)
     e54:	6819      	ldr	r1, [r3, #0]
     e56:	4859      	ldr	r0, [pc, #356]	; (fbc <network_check_any+0x2d4>)
     e58:	4b4c      	ldr	r3, [pc, #304]	; (f8c <network_check_any+0x2a4>)
     e5a:	4798      	blx	r3
		struct can_rx_element_buffer * message = getNextBufferElement(&(network->rx_element_buff[network->broadcast_buff_num]));
     e5c:	2191      	movs	r1, #145	; 0x91
     e5e:	0089      	lsls	r1, r1, #2
     e60:	68f3      	ldr	r3, [r6, #12]
     e62:	4359      	muls	r1, r3
     e64:	6876      	ldr	r6, [r6, #4]
     e66:	1876      	adds	r6, r6, r1
	if (buff->last_write == buff->last_read) return NULL;
     e68:	7873      	ldrb	r3, [r6, #1]
     e6a:	7832      	ldrb	r2, [r6, #0]
     e6c:	429a      	cmp	r2, r3
     e6e:	d015      	beq.n	e9c <network_check_any+0x1b4>
	buff->last_read = (buff->last_read + 1) % NETWORK_MAX_BUFFER_ELEMENTS;
     e70:	1c59      	adds	r1, r3, #1
     e72:	2207      	movs	r2, #7
     e74:	400a      	ands	r2, r1
     e76:	7072      	strb	r2, [r6, #1]
	return &(buff->buffers[last_element]);
     e78:	00d9      	lsls	r1, r3, #3
     e7a:	18c9      	adds	r1, r1, r3
     e7c:	00c9      	lsls	r1, r1, #3
     e7e:	3104      	adds	r1, #4
     e80:	1876      	adds	r6, r6, r1
		uint8_t dataLen = ((DLC_to_Val(message->R1.bit.DLC) < len) ? DLC_to_Val(message->R1.bit.DLC) : len);
     e82:	6873      	ldr	r3, [r6, #4]
     e84:	031b      	lsls	r3, r3, #12
     e86:	0f1b      	lsrs	r3, r3, #28
	switch(input) {
     e88:	3307      	adds	r3, #7
     e8a:	220f      	movs	r2, #15
     e8c:	4013      	ands	r3, r2
     e8e:	b2da      	uxtb	r2, r3
     e90:	2a06      	cmp	r2, #6
     e92:	d811      	bhi.n	eb8 <network_check_any+0x1d0>
     e94:	009b      	lsls	r3, r3, #2
     e96:	4a4a      	ldr	r2, [pc, #296]	; (fc0 <network_check_any+0x2d8>)
     e98:	58d3      	ldr	r3, [r2, r3]
     e9a:	469f      	mov	pc, r3
	if (buff->last_write == buff->last_read) return NULL;
     e9c:	2600      	movs	r6, #0
     e9e:	e7f0      	b.n	e82 <network_check_any+0x19a>
		return 16;
     ea0:	2310      	movs	r3, #16
     ea2:	e00f      	b.n	ec4 <network_check_any+0x1dc>
		return 20;
     ea4:	2314      	movs	r3, #20
     ea6:	e00d      	b.n	ec4 <network_check_any+0x1dc>
		return 24;
     ea8:	2318      	movs	r3, #24
     eaa:	e00b      	b.n	ec4 <network_check_any+0x1dc>
		return 32;
     eac:	2320      	movs	r3, #32
     eae:	e009      	b.n	ec4 <network_check_any+0x1dc>
		return 48;
     eb0:	2330      	movs	r3, #48	; 0x30
     eb2:	e007      	b.n	ec4 <network_check_any+0x1dc>
		return 64;
     eb4:	2340      	movs	r3, #64	; 0x40
     eb6:	e005      	b.n	ec4 <network_check_any+0x1dc>
		printf("What did you just give me.\r\n");
     eb8:	4836      	ldr	r0, [pc, #216]	; (f94 <network_check_any+0x2ac>)
     eba:	4b37      	ldr	r3, [pc, #220]	; (f98 <network_check_any+0x2b0>)
     ebc:	4798      	blx	r3
		return 0;
     ebe:	2300      	movs	r3, #0
     ec0:	e000      	b.n	ec4 <network_check_any+0x1dc>
		return 12;
     ec2:	230c      	movs	r3, #12
     ec4:	429c      	cmp	r4, r3
     ec6:	d92c      	bls.n	f22 <network_check_any+0x23a>
     ec8:	6873      	ldr	r3, [r6, #4]
     eca:	031b      	lsls	r3, r3, #12
     ecc:	0f1b      	lsrs	r3, r3, #28
	switch(input) {
     ece:	3307      	adds	r3, #7
     ed0:	220f      	movs	r2, #15
     ed2:	4013      	ands	r3, r2
     ed4:	b2da      	uxtb	r2, r3
     ed6:	2a06      	cmp	r2, #6
     ed8:	d80f      	bhi.n	efa <network_check_any+0x212>
     eda:	009b      	lsls	r3, r3, #2
     edc:	4a39      	ldr	r2, [pc, #228]	; (fc4 <network_check_any+0x2dc>)
     ede:	58d3      	ldr	r3, [r2, r3]
     ee0:	469f      	mov	pc, r3
		return 16;
     ee2:	2510      	movs	r5, #16
     ee4:	e00f      	b.n	f06 <network_check_any+0x21e>
		return 20;
     ee6:	2514      	movs	r5, #20
     ee8:	e00d      	b.n	f06 <network_check_any+0x21e>
		return 24;
     eea:	2518      	movs	r5, #24
     eec:	e00b      	b.n	f06 <network_check_any+0x21e>
		return 32;
     eee:	2520      	movs	r5, #32
     ef0:	e009      	b.n	f06 <network_check_any+0x21e>
		return 48;
     ef2:	2530      	movs	r5, #48	; 0x30
     ef4:	e007      	b.n	f06 <network_check_any+0x21e>
		return 64;
     ef6:	2540      	movs	r5, #64	; 0x40
     ef8:	e005      	b.n	f06 <network_check_any+0x21e>
		printf("What did you just give me.\r\n");
     efa:	4826      	ldr	r0, [pc, #152]	; (f94 <network_check_any+0x2ac>)
     efc:	4b26      	ldr	r3, [pc, #152]	; (f98 <network_check_any+0x2b0>)
     efe:	4798      	blx	r3
		return 0;
     f00:	2500      	movs	r5, #0
     f02:	e000      	b.n	f06 <network_check_any+0x21e>
		return 12;
     f04:	250c      	movs	r5, #12
     f06:	b2ed      	uxtb	r5, r5
		printf("DEBUG: DLC to Val: %d\r\n",DLC_to_Val(message->R1.bit.DLC));
     f08:	6873      	ldr	r3, [r6, #4]
     f0a:	031b      	lsls	r3, r3, #12
     f0c:	0f1b      	lsrs	r3, r3, #28
	switch(input) {
     f0e:	3307      	adds	r3, #7
     f10:	220f      	movs	r2, #15
     f12:	4013      	ands	r3, r2
     f14:	b2da      	uxtb	r2, r3
     f16:	2a06      	cmp	r2, #6
     f18:	d811      	bhi.n	f3e <network_check_any+0x256>
     f1a:	009b      	lsls	r3, r3, #2
     f1c:	4a2a      	ldr	r2, [pc, #168]	; (fc8 <network_check_any+0x2e0>)
     f1e:	58d3      	ldr	r3, [r2, r3]
     f20:	469f      	mov	pc, r3
		uint8_t dataLen = ((DLC_to_Val(message->R1.bit.DLC) < len) ? DLC_to_Val(message->R1.bit.DLC) : len);
     f22:	b2e5      	uxtb	r5, r4
     f24:	e7f0      	b.n	f08 <network_check_any+0x220>
		return 16;
     f26:	2110      	movs	r1, #16
     f28:	e00f      	b.n	f4a <network_check_any+0x262>
		return 20;
     f2a:	2114      	movs	r1, #20
     f2c:	e00d      	b.n	f4a <network_check_any+0x262>
		return 24;
     f2e:	2118      	movs	r1, #24
     f30:	e00b      	b.n	f4a <network_check_any+0x262>
		return 32;
     f32:	2120      	movs	r1, #32
     f34:	e009      	b.n	f4a <network_check_any+0x262>
		return 48;
     f36:	2130      	movs	r1, #48	; 0x30
     f38:	e007      	b.n	f4a <network_check_any+0x262>
		return 64;
     f3a:	2140      	movs	r1, #64	; 0x40
     f3c:	e005      	b.n	f4a <network_check_any+0x262>
		printf("What did you just give me.\r\n");
     f3e:	4815      	ldr	r0, [pc, #84]	; (f94 <network_check_any+0x2ac>)
     f40:	4b15      	ldr	r3, [pc, #84]	; (f98 <network_check_any+0x2b0>)
     f42:	4798      	blx	r3
		return 0;
     f44:	2100      	movs	r1, #0
     f46:	e000      	b.n	f4a <network_check_any+0x262>
		return 12;
     f48:	210c      	movs	r1, #12
		printf("DEBUG: DLC to Val: %d\r\n",DLC_to_Val(message->R1.bit.DLC));
     f4a:	4816      	ldr	r0, [pc, #88]	; (fa4 <network_check_any+0x2bc>)
     f4c:	4c0f      	ldr	r4, [pc, #60]	; (f8c <network_check_any+0x2a4>)
     f4e:	47a0      	blx	r4
		memcpy(buff,message->data,dataLen);
     f50:	0031      	movs	r1, r6
     f52:	3108      	adds	r1, #8
     f54:	002a      	movs	r2, r5
     f56:	0038      	movs	r0, r7
     f58:	4b13      	ldr	r3, [pc, #76]	; (fa8 <network_check_any+0x2c0>)
     f5a:	4798      	blx	r3
		debug_print("Broadcast Network Receive - Message: \n");
     f5c:	4b09      	ldr	r3, [pc, #36]	; (f84 <network_check_any+0x29c>)
     f5e:	6819      	ldr	r1, [r3, #0]
     f60:	481a      	ldr	r0, [pc, #104]	; (fcc <network_check_any+0x2e4>)
     f62:	47a0      	blx	r4
		for (int sex = 0; sex < dataLen; sex++) {
     f64:	2d00      	cmp	r5, #0
     f66:	dd07      	ble.n	f78 <network_check_any+0x290>
     f68:	2400      	movs	r4, #0
			printf("%x ",buff[sex]);
     f6a:	4e08      	ldr	r6, [pc, #32]	; (f8c <network_check_any+0x2a4>)
     f6c:	5d39      	ldrb	r1, [r7, r4]
     f6e:	4810      	ldr	r0, [pc, #64]	; (fb0 <network_check_any+0x2c8>)
     f70:	47b0      	blx	r6
		for (int sex = 0; sex < dataLen; sex++) {
     f72:	3401      	adds	r4, #1
     f74:	42ac      	cmp	r4, r5
     f76:	dbf9      	blt.n	f6c <network_check_any+0x284>
		printf("\r\n");
     f78:	480e      	ldr	r0, [pc, #56]	; (fb4 <network_check_any+0x2cc>)
     f7a:	4b07      	ldr	r3, [pc, #28]	; (f98 <network_check_any+0x2b0>)
     f7c:	4798      	blx	r3
		return dataLen;
     f7e:	e758      	b.n	e32 <network_check_any+0x14a>
		return 0;
     f80:	2500      	movs	r5, #0
     f82:	e756      	b.n	e32 <network_check_any+0x14a>
     f84:	20002b98 	.word	0x20002b98
     f88:	0000838c 	.word	0x0000838c
     f8c:	000070e9 	.word	0x000070e9
     f90:	00008298 	.word	0x00008298
     f94:	000083ac 	.word	0x000083ac
     f98:	000071dd 	.word	0x000071dd
     f9c:	000082b4 	.word	0x000082b4
     fa0:	000082d0 	.word	0x000082d0
     fa4:	000083c8 	.word	0x000083c8
     fa8:	00006f53 	.word	0x00006f53
     fac:	000083e0 	.word	0x000083e0
     fb0:	0000819c 	.word	0x0000819c
     fb4:	000081c0 	.word	0x000081c0
     fb8:	0000ffff 	.word	0x0000ffff
     fbc:	00008404 	.word	0x00008404
     fc0:	000082ec 	.word	0x000082ec
     fc4:	00008308 	.word	0x00008308
     fc8:	00008324 	.word	0x00008324
     fcc:	00008424 	.word	0x00008424

00000fd0 <InitKWIDKeyData>:
#define TEMP_NODE_ID 1
#define TEMP_FILTER_VAL 1

struct Crypto_Data selfData = {.ASCON_data = {.nonce = {0,1,2,3,4,5,6,7,8,9,10,11,12,13,14,15}}, .child_ASCON_data = {.nonce = {0,1,2,3,4,5,6,7,8,9,10,11,12,13,14,15}}};

int InitKWIDKeyData() {
     fd0:	b570      	push	{r4, r5, r6, lr}
     fd2:	b088      	sub	sp, #32
	// Takes the table of HWIDTable and initializes all the values (because we don't want to have to hand copy them all...
	uint8_t secret_key[32];
	//Create your secret key.
	memset(selfData.secret_key,HARDWARE_ID_VAL,32);
     fd4:	2220      	movs	r2, #32
     fd6:	2109      	movs	r1, #9
     fd8:	480c      	ldr	r0, [pc, #48]	; (100c <InitKWIDKeyData+0x3c>)
     fda:	4d0d      	ldr	r5, [pc, #52]	; (1010 <InitKWIDKeyData+0x40>)
     fdc:	47a8      	blx	r5
	#endif
	#ifdef SYSTEM_ENDPOINT_TYPE
		// Generate router's public key... even though you shouldn't be doing this.
		ECCRYPTO_STATUS Status;
		
		memset(secret_key,(uint8_t)(parentStoredKeys->hw_id.data),sizeof(secret_key));
     fde:	4e0d      	ldr	r6, [pc, #52]	; (1014 <InitKWIDKeyData+0x44>)
     fe0:	6834      	ldr	r4, [r6, #0]
     fe2:	7821      	ldrb	r1, [r4, #0]
     fe4:	2220      	movs	r2, #32
     fe6:	4668      	mov	r0, sp
     fe8:	47a8      	blx	r5
		memset(parentStoredKeys->router_data.public_key,0,32);
     fea:	3414      	adds	r4, #20
     fec:	2220      	movs	r2, #32
     fee:	2100      	movs	r1, #0
     ff0:	0020      	movs	r0, r4
     ff2:	47a8      	blx	r5
		
		// Generate the public key (this technically shouldn't be done on the OTHER nodes lol)
		Status = CompressedKeyGeneration(secret_key,parentStoredKeys->router_data.public_key);
     ff4:	0021      	movs	r1, r4
     ff6:	4668      	mov	r0, sp
     ff8:	4b07      	ldr	r3, [pc, #28]	; (1018 <InitKWIDKeyData+0x48>)
     ffa:	4798      	blx	r3
		
		// Generate its expected response hash
		photon128(secret_key,32,parentStoredKeys->router_data.response_hash);
     ffc:	6832      	ldr	r2, [r6, #0]
     ffe:	3204      	adds	r2, #4
    1000:	2120      	movs	r1, #32
    1002:	4668      	mov	r0, sp
    1004:	4b05      	ldr	r3, [pc, #20]	; (101c <InitKWIDKeyData+0x4c>)
    1006:	4798      	blx	r3
	#endif
}
    1008:	b008      	add	sp, #32
    100a:	bd70      	pop	{r4, r5, r6, pc}
    100c:	2000003c 	.word	0x2000003c
    1010:	00006f89 	.word	0x00006f89
    1014:	20000038 	.word	0x20000038
    1018:	000061bd 	.word	0x000061bd
    101c:	000064cd 	.word	0x000064cd

00001020 <authToParent>:

// TODO: This probably doesn't need passed the nodes, just the parent and itself?
// WHEN COPYING DO NOT OVERWRITE THE OTHER SIDE WITH THIS.
int authToParent(struct node* my_parent_info, struct node* parent_info, struct node* parent_broadcast_info) {
    1020:	b5f0      	push	{r4, r5, r6, r7, lr}
    1022:	b09d      	sub	sp, #116	; 0x74
    1024:	0006      	movs	r6, r0
    1026:	000c      	movs	r4, r1
    1028:	9207      	str	r2, [sp, #28]
	
	// (For my purpose only)
	// Enable monitoring
	//CAN_Rx(TEMP_NODE_ID,TEMP_FILTER_VAL,can_instance);
	
	ECCRYPTO_STATUS Status = CompressedKeyGeneration(selfData.secret_key,selfData.public_key);
    102a:	486c      	ldr	r0, [pc, #432]	; (11dc <authToParent+0x1bc>)
    102c:	0001      	movs	r1, r0
    102e:	3120      	adds	r1, #32
    1030:	4b6b      	ldr	r3, [pc, #428]	; (11e0 <authToParent+0x1c0>)
    1032:	4798      	blx	r3
    1034:	0005      	movs	r5, r0
	if (Status != ECCRYPTO_SUCCESS) {
    1036:	2801      	cmp	r0, #1
    1038:	d005      	beq.n	1046 <authToParent+0x26>
		printf("Failed Public Key Generation\r\n");
    103a:	486a      	ldr	r0, [pc, #424]	; (11e4 <authToParent+0x1c4>)
    103c:	4b6a      	ldr	r3, [pc, #424]	; (11e8 <authToParent+0x1c8>)
    103e:	4798      	blx	r3
		return Status;
    1040:	0028      	movs	r0, r5
	printf("\r\n");*/
	
	// Receive broadcast saying init is over, time for GO (because you are a router, your next step will be to do the server-side yourself)
	while(node_msg_check(parent_broadcast_info, &message) == 0);
	debug_print("Completed Parent's Authentication\n");
}
    1042:	b01d      	add	sp, #116	; 0x74
    1044:	bdf0      	pop	{r4, r5, r6, r7, pc}
	Status = CompressedSecretAgreement(selfData.secret_key,parentStoredKeys->router_data.public_key,selfData.shared_secret);
    1046:	4865      	ldr	r0, [pc, #404]	; (11dc <authToParent+0x1bc>)
    1048:	0002      	movs	r2, r0
    104a:	3240      	adds	r2, #64	; 0x40
    104c:	4b67      	ldr	r3, [pc, #412]	; (11ec <authToParent+0x1cc>)
    104e:	6819      	ldr	r1, [r3, #0]
    1050:	3114      	adds	r1, #20
    1052:	4b67      	ldr	r3, [pc, #412]	; (11f0 <authToParent+0x1d0>)
    1054:	4798      	blx	r3
    1056:	0005      	movs	r5, r0
	if (Status != ECCRYPTO_SUCCESS) {
    1058:	2801      	cmp	r0, #1
    105a:	d004      	beq.n	1066 <authToParent+0x46>
		printf("Failed Shared Secret Creation\r\n");
    105c:	4865      	ldr	r0, [pc, #404]	; (11f4 <authToParent+0x1d4>)
    105e:	4b62      	ldr	r3, [pc, #392]	; (11e8 <authToParent+0x1c8>)
    1060:	4798      	blx	r3
		return Status;
    1062:	0028      	movs	r0, r5
    1064:	e7ed      	b.n	1042 <authToParent+0x22>
	photon128(selfData.shared_secret,32,selfData.shared_hash);
    1066:	485d      	ldr	r0, [pc, #372]	; (11dc <authToParent+0x1bc>)
    1068:	0002      	movs	r2, r0
    106a:	3260      	adds	r2, #96	; 0x60
    106c:	3040      	adds	r0, #64	; 0x40
    106e:	2120      	movs	r1, #32
    1070:	4b61      	ldr	r3, [pc, #388]	; (11f8 <authToParent+0x1d8>)
    1072:	4798      	blx	r3
	while(node_msg_check(parent_info, &message) == 0 || message.header.cmd != NODE_CMD_AUTH_PLN);
    1074:	ad0e      	add	r5, sp, #56	; 0x38
    1076:	4f61      	ldr	r7, [pc, #388]	; (11fc <authToParent+0x1dc>)
    1078:	0029      	movs	r1, r5
    107a:	0020      	movs	r0, r4
    107c:	47b8      	blx	r7
    107e:	2800      	cmp	r0, #0
    1080:	d0fa      	beq.n	1078 <authToParent+0x58>
    1082:	79ab      	ldrb	r3, [r5, #6]
    1084:	2b04      	cmp	r3, #4
    1086:	d1f7      	bne.n	1078 <authToParent+0x58>
	memcpy(message.data,selfData.public_key,FOURQ_KEY_SIZE);
    1088:	aa10      	add	r2, sp, #64	; 0x40
    108a:	4b54      	ldr	r3, [pc, #336]	; (11dc <authToParent+0x1bc>)
    108c:	3320      	adds	r3, #32
    108e:	cb23      	ldmia	r3!, {r0, r1, r5}
    1090:	c223      	stmia	r2!, {r0, r1, r5}
    1092:	cb23      	ldmia	r3!, {r0, r1, r5}
    1094:	c223      	stmia	r2!, {r0, r1, r5}
    1096:	cb03      	ldmia	r3!, {r0, r1}
    1098:	c203      	stmia	r2!, {r0, r1}
	node_msg_send_generic(my_parent_info,parent_info,NODE_CMD_AUTH_PLN,&message,FOURQ_KEY_SIZE);
    109a:	2320      	movs	r3, #32
    109c:	9300      	str	r3, [sp, #0]
    109e:	ab0e      	add	r3, sp, #56	; 0x38
    10a0:	2204      	movs	r2, #4
    10a2:	0021      	movs	r1, r4
    10a4:	0030      	movs	r0, r6
    10a6:	4d56      	ldr	r5, [pc, #344]	; (1200 <authToParent+0x1e0>)
    10a8:	47a8      	blx	r5
	while(node_msg_check(parent_info, &message) == 0 || message.header.cmd != NODE_CMD_AUTH_PLN);
    10aa:	ad0e      	add	r5, sp, #56	; 0x38
    10ac:	4f53      	ldr	r7, [pc, #332]	; (11fc <authToParent+0x1dc>)
    10ae:	0029      	movs	r1, r5
    10b0:	0020      	movs	r0, r4
    10b2:	47b8      	blx	r7
    10b4:	2800      	cmp	r0, #0
    10b6:	d0fa      	beq.n	10ae <authToParent+0x8e>
    10b8:	79ab      	ldrb	r3, [r5, #6]
    10ba:	2b04      	cmp	r3, #4
    10bc:	d1f7      	bne.n	10ae <authToParent+0x8e>
	crypto_aead_decrypt(response,&mlen,NULL,message.data,message.header.len-8,NULL,NULL,selfData.ASCON_data.nonce,selfData.shared_hash);
    10be:	4b47      	ldr	r3, [pc, #284]	; (11dc <authToParent+0x1bc>)
    10c0:	001a      	movs	r2, r3
    10c2:	3260      	adds	r2, #96	; 0x60
    10c4:	9204      	str	r2, [sp, #16]
    10c6:	3380      	adds	r3, #128	; 0x80
    10c8:	9303      	str	r3, [sp, #12]
    10ca:	2300      	movs	r3, #0
    10cc:	9302      	str	r3, [sp, #8]
    10ce:	9301      	str	r3, [sp, #4]
    10d0:	ab0e      	add	r3, sp, #56	; 0x38
    10d2:	79db      	ldrb	r3, [r3, #7]
    10d4:	3b08      	subs	r3, #8
    10d6:	9300      	str	r3, [sp, #0]
    10d8:	ab10      	add	r3, sp, #64	; 0x40
    10da:	2200      	movs	r2, #0
    10dc:	a909      	add	r1, sp, #36	; 0x24
    10de:	a80a      	add	r0, sp, #40	; 0x28
    10e0:	4d48      	ldr	r5, [pc, #288]	; (1204 <authToParent+0x1e4>)
    10e2:	47a8      	blx	r5
	if (memcmp(response,parentStoredKeys->router_data.response_hash,mlen) != 0) {
    10e4:	4b41      	ldr	r3, [pc, #260]	; (11ec <authToParent+0x1cc>)
    10e6:	6819      	ldr	r1, [r3, #0]
    10e8:	3104      	adds	r1, #4
    10ea:	9a09      	ldr	r2, [sp, #36]	; 0x24
    10ec:	a80a      	add	r0, sp, #40	; 0x28
    10ee:	4b46      	ldr	r3, [pc, #280]	; (1208 <authToParent+0x1e8>)
    10f0:	4798      	blx	r3
    10f2:	2800      	cmp	r0, #0
    10f4:	d13e      	bne.n	1174 <authToParent+0x154>
	memset(message.data,1,8);
    10f6:	2208      	movs	r2, #8
    10f8:	2101      	movs	r1, #1
    10fa:	a810      	add	r0, sp, #64	; 0x40
    10fc:	4b43      	ldr	r3, [pc, #268]	; (120c <authToParent+0x1ec>)
    10fe:	4798      	blx	r3
	node_msg_send_generic(my_parent_info,parent_info,NODE_CMD_AUTH_PLN,&message,8);
    1100:	2308      	movs	r3, #8
    1102:	9300      	str	r3, [sp, #0]
    1104:	ab0e      	add	r3, sp, #56	; 0x38
    1106:	2204      	movs	r2, #4
    1108:	0021      	movs	r1, r4
    110a:	0030      	movs	r0, r6
    110c:	4c3c      	ldr	r4, [pc, #240]	; (1200 <authToParent+0x1e0>)
    110e:	47a0      	blx	r4
	while(node_msg_check(my_parent_info, &message) == 0 || message.header.cmd != NODE_CMD_AUTH_PLN);
    1110:	ac0e      	add	r4, sp, #56	; 0x38
    1112:	4d3a      	ldr	r5, [pc, #232]	; (11fc <authToParent+0x1dc>)
    1114:	0021      	movs	r1, r4
    1116:	0030      	movs	r0, r6
    1118:	47a8      	blx	r5
    111a:	2800      	cmp	r0, #0
    111c:	d0fa      	beq.n	1114 <authToParent+0xf4>
    111e:	79a3      	ldrb	r3, [r4, #6]
    1120:	2b04      	cmp	r3, #4
    1122:	d1f7      	bne.n	1114 <authToParent+0xf4>
	if (crypto_aead_decrypt(response,&mlen,NULL,message.data,message.header.len-8,NULL,NULL,selfData.ASCON_data.nonce,selfData.shared_hash)) {
    1124:	4b2d      	ldr	r3, [pc, #180]	; (11dc <authToParent+0x1bc>)
    1126:	001a      	movs	r2, r3
    1128:	3260      	adds	r2, #96	; 0x60
    112a:	9204      	str	r2, [sp, #16]
    112c:	3380      	adds	r3, #128	; 0x80
    112e:	9303      	str	r3, [sp, #12]
    1130:	2300      	movs	r3, #0
    1132:	9302      	str	r3, [sp, #8]
    1134:	9301      	str	r3, [sp, #4]
    1136:	ab0e      	add	r3, sp, #56	; 0x38
    1138:	79db      	ldrb	r3, [r3, #7]
    113a:	3b08      	subs	r3, #8
    113c:	9300      	str	r3, [sp, #0]
    113e:	ab10      	add	r3, sp, #64	; 0x40
    1140:	2200      	movs	r2, #0
    1142:	a909      	add	r1, sp, #36	; 0x24
    1144:	a80a      	add	r0, sp, #40	; 0x28
    1146:	4c2f      	ldr	r4, [pc, #188]	; (1204 <authToParent+0x1e4>)
    1148:	47a0      	blx	r4
    114a:	2800      	cmp	r0, #0
    114c:	d13e      	bne.n	11cc <authToParent+0x1ac>
	memcpy(selfData.ASCON_data.session_key,response,16);
    114e:	aa0a      	add	r2, sp, #40	; 0x28
    1150:	4b22      	ldr	r3, [pc, #136]	; (11dc <authToParent+0x1bc>)
    1152:	3370      	adds	r3, #112	; 0x70
    1154:	ca13      	ldmia	r2!, {r0, r1, r4}
    1156:	c313      	stmia	r3!, {r0, r1, r4}
    1158:	6812      	ldr	r2, [r2, #0]
    115a:	601a      	str	r2, [r3, #0]
	while(node_msg_check(parent_broadcast_info, &message) == 0);
    115c:	4c27      	ldr	r4, [pc, #156]	; (11fc <authToParent+0x1dc>)
    115e:	a90e      	add	r1, sp, #56	; 0x38
    1160:	9807      	ldr	r0, [sp, #28]
    1162:	47a0      	blx	r4
    1164:	2800      	cmp	r0, #0
    1166:	d0fa      	beq.n	115e <authToParent+0x13e>
	debug_print("Completed Parent's Authentication\n");
    1168:	4b29      	ldr	r3, [pc, #164]	; (1210 <authToParent+0x1f0>)
    116a:	6819      	ldr	r1, [r3, #0]
    116c:	4829      	ldr	r0, [pc, #164]	; (1214 <authToParent+0x1f4>)
    116e:	4b2a      	ldr	r3, [pc, #168]	; (1218 <authToParent+0x1f8>)
    1170:	4798      	blx	r3
}
    1172:	e766      	b.n	1042 <authToParent+0x22>
		printf("The server is not the one you want to connect to!\r\n");
    1174:	4829      	ldr	r0, [pc, #164]	; (121c <authToParent+0x1fc>)
    1176:	4b1c      	ldr	r3, [pc, #112]	; (11e8 <authToParent+0x1c8>)
    1178:	4798      	blx	r3
		debug_print("Expected Response: \n");
    117a:	4b25      	ldr	r3, [pc, #148]	; (1210 <authToParent+0x1f0>)
    117c:	6819      	ldr	r1, [r3, #0]
    117e:	4828      	ldr	r0, [pc, #160]	; (1220 <authToParent+0x200>)
    1180:	4b25      	ldr	r3, [pc, #148]	; (1218 <authToParent+0x1f8>)
    1182:	4798      	blx	r3
		for (int sex = 0; sex < RESPONSE_SIZE; sex++) {
    1184:	2400      	movs	r4, #0
			printf("%x ",parentStoredKeys->router_data.response_hash[sex]);
    1186:	4f19      	ldr	r7, [pc, #100]	; (11ec <authToParent+0x1cc>)
    1188:	4e26      	ldr	r6, [pc, #152]	; (1224 <authToParent+0x204>)
    118a:	4d23      	ldr	r5, [pc, #140]	; (1218 <authToParent+0x1f8>)
    118c:	683b      	ldr	r3, [r7, #0]
    118e:	191b      	adds	r3, r3, r4
    1190:	7919      	ldrb	r1, [r3, #4]
    1192:	0030      	movs	r0, r6
    1194:	47a8      	blx	r5
		for (int sex = 0; sex < RESPONSE_SIZE; sex++) {
    1196:	3401      	adds	r4, #1
    1198:	2c10      	cmp	r4, #16
    119a:	d1f7      	bne.n	118c <authToParent+0x16c>
		printf("\r\n");
    119c:	4822      	ldr	r0, [pc, #136]	; (1228 <authToParent+0x208>)
    119e:	4b12      	ldr	r3, [pc, #72]	; (11e8 <authToParent+0x1c8>)
    11a0:	4798      	blx	r3
		debug_print("Received Response: \n");
    11a2:	4b1b      	ldr	r3, [pc, #108]	; (1210 <authToParent+0x1f0>)
    11a4:	6819      	ldr	r1, [r3, #0]
    11a6:	4821      	ldr	r0, [pc, #132]	; (122c <authToParent+0x20c>)
    11a8:	4b1b      	ldr	r3, [pc, #108]	; (1218 <authToParent+0x1f8>)
    11aa:	4798      	blx	r3
		for (int sex = 0; sex < RESPONSE_SIZE; sex++) {
    11ac:	2400      	movs	r4, #0
			printf("%x ",response[sex]);
    11ae:	af0a      	add	r7, sp, #40	; 0x28
    11b0:	4e1c      	ldr	r6, [pc, #112]	; (1224 <authToParent+0x204>)
    11b2:	4d19      	ldr	r5, [pc, #100]	; (1218 <authToParent+0x1f8>)
    11b4:	5de1      	ldrb	r1, [r4, r7]
    11b6:	0030      	movs	r0, r6
    11b8:	47a8      	blx	r5
		for (int sex = 0; sex < RESPONSE_SIZE; sex++) {
    11ba:	3401      	adds	r4, #1
    11bc:	2c10      	cmp	r4, #16
    11be:	d1f9      	bne.n	11b4 <authToParent+0x194>
		printf("\r\n");
    11c0:	4819      	ldr	r0, [pc, #100]	; (1228 <authToParent+0x208>)
    11c2:	4b09      	ldr	r3, [pc, #36]	; (11e8 <authToParent+0x1c8>)
    11c4:	4798      	blx	r3
		exit(2);
    11c6:	2002      	movs	r0, #2
    11c8:	4b19      	ldr	r3, [pc, #100]	; (1230 <authToParent+0x210>)
    11ca:	4798      	blx	r3
		debug_print("Signature for Session Key was Incorrect!\n");
    11cc:	4b10      	ldr	r3, [pc, #64]	; (1210 <authToParent+0x1f0>)
    11ce:	6819      	ldr	r1, [r3, #0]
    11d0:	4818      	ldr	r0, [pc, #96]	; (1234 <authToParent+0x214>)
    11d2:	4b11      	ldr	r3, [pc, #68]	; (1218 <authToParent+0x1f8>)
    11d4:	4798      	blx	r3
		exit(2);
    11d6:	2002      	movs	r0, #2
    11d8:	4b15      	ldr	r3, [pc, #84]	; (1230 <authToParent+0x210>)
    11da:	4798      	blx	r3
    11dc:	2000003c 	.word	0x2000003c
    11e0:	000061bd 	.word	0x000061bd
    11e4:	0000849c 	.word	0x0000849c
    11e8:	000071dd 	.word	0x000071dd
    11ec:	20000038 	.word	0x20000038
    11f0:	000061e9 	.word	0x000061e9
    11f4:	000084bc 	.word	0x000084bc
    11f8:	000064cd 	.word	0x000064cd
    11fc:	000005f9 	.word	0x000005f9
    1200:	000003b5 	.word	0x000003b5
    1204:	00001ad5 	.word	0x00001ad5
    1208:	00006f35 	.word	0x00006f35
    120c:	00006f89 	.word	0x00006f89
    1210:	20002b98 	.word	0x20002b98
    1214:	00008578 	.word	0x00008578
    1218:	000070e9 	.word	0x000070e9
    121c:	000084dc 	.word	0x000084dc
    1220:	00008510 	.word	0x00008510
    1224:	0000819c 	.word	0x0000819c
    1228:	000081c0 	.word	0x000081c0
    122c:	0000852c 	.word	0x0000852c
    1230:	00006ead 	.word	0x00006ead
    1234:	00008548 	.word	0x00008548

00001238 <crypto_aead_encrypt>:
    1238:	b5f0      	push	{r4, r5, r6, r7, lr}
    123a:	46de      	mov	lr, fp
    123c:	4657      	mov	r7, sl
    123e:	464e      	mov	r6, r9
    1240:	4645      	mov	r5, r8
    1242:	b5e0      	push	{r5, r6, r7, lr}
    1244:	b0a5      	sub	sp, #148	; 0x94
    1246:	9016      	str	r0, [sp, #88]	; 0x58
    1248:	9213      	str	r2, [sp, #76]	; 0x4c
    124a:	9c31      	ldr	r4, [sp, #196]	; 0xc4
    124c:	46a4      	mov	ip, r4
    124e:	9f32      	ldr	r7, [sp, #200]	; 0xc8
    1250:	9317      	str	r3, [sp, #92]	; 0x5c
    1252:	3308      	adds	r3, #8
    1254:	600b      	str	r3, [r1, #0]
    1256:	6839      	ldr	r1, [r7, #0]
    1258:	6878      	ldr	r0, [r7, #4]
    125a:	060c      	lsls	r4, r1, #24
    125c:	0e02      	lsrs	r2, r0, #24
    125e:	020b      	lsls	r3, r1, #8
    1260:	26ff      	movs	r6, #255	; 0xff
    1262:	0436      	lsls	r6, r6, #16
    1264:	4033      	ands	r3, r6
    1266:	4323      	orrs	r3, r4
    1268:	0a0d      	lsrs	r5, r1, #8
    126a:	0604      	lsls	r4, r0, #24
    126c:	432c      	orrs	r4, r5
    126e:	25ff      	movs	r5, #255	; 0xff
    1270:	022d      	lsls	r5, r5, #8
    1272:	402c      	ands	r4, r5
    1274:	4323      	orrs	r3, r4
    1276:	4699      	mov	r9, r3
    1278:	0e0c      	lsrs	r4, r1, #24
    127a:	0201      	lsls	r1, r0, #8
    127c:	4321      	orrs	r1, r4
    127e:	23ff      	movs	r3, #255	; 0xff
    1280:	469b      	mov	fp, r3
    1282:	4019      	ands	r1, r3
    1284:	464b      	mov	r3, r9
    1286:	4319      	orrs	r1, r3
    1288:	9112      	str	r1, [sp, #72]	; 0x48
    128a:	0a01      	lsrs	r1, r0, #8
    128c:	0603      	lsls	r3, r0, #24
    128e:	4313      	orrs	r3, r2
    1290:	0202      	lsls	r2, r0, #8
    1292:	4322      	orrs	r2, r4
    1294:	4032      	ands	r2, r6
    1296:	431a      	orrs	r2, r3
    1298:	0008      	movs	r0, r1
    129a:	4028      	ands	r0, r5
    129c:	4302      	orrs	r2, r0
    129e:	9211      	str	r2, [sp, #68]	; 0x44
    12a0:	68ba      	ldr	r2, [r7, #8]
    12a2:	68fb      	ldr	r3, [r7, #12]
    12a4:	0614      	lsls	r4, r2, #24
    12a6:	0e18      	lsrs	r0, r3, #24
    12a8:	0217      	lsls	r7, r2, #8
    12aa:	4037      	ands	r7, r6
    12ac:	4327      	orrs	r7, r4
    12ae:	0a14      	lsrs	r4, r2, #8
    12b0:	46a0      	mov	r8, r4
    12b2:	061c      	lsls	r4, r3, #24
    12b4:	4641      	mov	r1, r8
    12b6:	430c      	orrs	r4, r1
    12b8:	402c      	ands	r4, r5
    12ba:	4327      	orrs	r7, r4
    12bc:	0e12      	lsrs	r2, r2, #24
    12be:	021c      	lsls	r4, r3, #8
    12c0:	4314      	orrs	r4, r2
    12c2:	4659      	mov	r1, fp
    12c4:	400c      	ands	r4, r1
    12c6:	4327      	orrs	r7, r4
    12c8:	9715      	str	r7, [sp, #84]	; 0x54
    12ca:	0a1f      	lsrs	r7, r3, #8
    12cc:	061c      	lsls	r4, r3, #24
    12ce:	4320      	orrs	r0, r4
    12d0:	021b      	lsls	r3, r3, #8
    12d2:	4313      	orrs	r3, r2
    12d4:	4033      	ands	r3, r6
    12d6:	4318      	orrs	r0, r3
    12d8:	402f      	ands	r7, r5
    12da:	4338      	orrs	r0, r7
    12dc:	9014      	str	r0, [sp, #80]	; 0x50
    12de:	4664      	mov	r4, ip
    12e0:	6824      	ldr	r4, [r4, #0]
    12e2:	4661      	mov	r1, ip
    12e4:	684b      	ldr	r3, [r1, #4]
    12e6:	0627      	lsls	r7, r4, #24
    12e8:	0e1a      	lsrs	r2, r3, #24
    12ea:	0220      	lsls	r0, r4, #8
    12ec:	4030      	ands	r0, r6
    12ee:	4338      	orrs	r0, r7
    12f0:	0a21      	lsrs	r1, r4, #8
    12f2:	061f      	lsls	r7, r3, #24
    12f4:	430f      	orrs	r7, r1
    12f6:	402f      	ands	r7, r5
    12f8:	4338      	orrs	r0, r7
    12fa:	0e24      	lsrs	r4, r4, #24
    12fc:	021f      	lsls	r7, r3, #8
    12fe:	4327      	orrs	r7, r4
    1300:	4659      	mov	r1, fp
    1302:	400f      	ands	r7, r1
    1304:	4338      	orrs	r0, r7
    1306:	0a1f      	lsrs	r7, r3, #8
    1308:	0619      	lsls	r1, r3, #24
    130a:	430a      	orrs	r2, r1
    130c:	021b      	lsls	r3, r3, #8
    130e:	431c      	orrs	r4, r3
    1310:	4034      	ands	r4, r6
    1312:	4322      	orrs	r2, r4
    1314:	402f      	ands	r7, r5
    1316:	0014      	movs	r4, r2
    1318:	433c      	orrs	r4, r7
    131a:	46a2      	mov	sl, r4
    131c:	4664      	mov	r4, ip
    131e:	68a7      	ldr	r7, [r4, #8]
    1320:	68e4      	ldr	r4, [r4, #12]
    1322:	063a      	lsls	r2, r7, #24
    1324:	0e21      	lsrs	r1, r4, #24
    1326:	4688      	mov	r8, r1
    1328:	023b      	lsls	r3, r7, #8
    132a:	4033      	ands	r3, r6
    132c:	431a      	orrs	r2, r3
    132e:	0a39      	lsrs	r1, r7, #8
    1330:	0623      	lsls	r3, r4, #24
    1332:	430b      	orrs	r3, r1
    1334:	402b      	ands	r3, r5
    1336:	4313      	orrs	r3, r2
    1338:	0e3f      	lsrs	r7, r7, #24
    133a:	0222      	lsls	r2, r4, #8
    133c:	433a      	orrs	r2, r7
    133e:	4659      	mov	r1, fp
    1340:	4011      	ands	r1, r2
    1342:	4319      	orrs	r1, r3
    1344:	0a23      	lsrs	r3, r4, #8
    1346:	469c      	mov	ip, r3
    1348:	0623      	lsls	r3, r4, #24
    134a:	4642      	mov	r2, r8
    134c:	4313      	orrs	r3, r2
    134e:	0224      	lsls	r4, r4, #8
    1350:	4327      	orrs	r7, r4
    1352:	4037      	ands	r7, r6
    1354:	433b      	orrs	r3, r7
    1356:	4664      	mov	r4, ip
    1358:	4025      	ands	r5, r4
    135a:	432b      	orrs	r3, r5
    135c:	2400      	movs	r4, #0
    135e:	46a0      	mov	r8, r4
    1360:	4c6f      	ldr	r4, [pc, #444]	; (1520 <rend_301+0x68>)
    1362:	46a4      	mov	ip, r4
    1364:	9f11      	ldr	r7, [sp, #68]	; 0x44
    1366:	9e12      	ldr	r6, [sp, #72]	; 0x48
    1368:	9d14      	ldr	r5, [sp, #80]	; 0x50
    136a:	9c15      	ldr	r4, [sp, #84]	; 0x54
    136c:	46a1      	mov	r9, r4
    136e:	4652      	mov	r2, sl
    1370:	24f0      	movs	r4, #240	; 0xf0
    1372:	9401      	str	r4, [sp, #4]
    1374:	4644      	mov	r4, r8
    1376:	46b0      	mov	r8, r6
    1378:	46ca      	mov	sl, r9
    137a:	4683      	mov	fp, r0
    137c:	4689      	mov	r9, r1
    137e:	26f0      	movs	r6, #240	; 0xf0

00001380 <rbegin_301>:
    1380:	4075      	eors	r5, r6
    1382:	b440      	push	{r6}
    1384:	405c      	eors	r4, r3
    1386:	4053      	eors	r3, r2
    1388:	407d      	eors	r5, r7
    138a:	43e1      	mvns	r1, r4
    138c:	4319      	orrs	r1, r3
    138e:	1c2e      	adds	r6, r5, #0
    1390:	43be      	bics	r6, r7
    1392:	4074      	eors	r4, r6
    1394:	43de      	mvns	r6, r3
    1396:	4316      	orrs	r6, r2
    1398:	4075      	eors	r5, r6
    139a:	1c3e      	adds	r6, r7, #0
    139c:	43a6      	bics	r6, r4
    139e:	4073      	eors	r3, r6
    13a0:	1c16      	adds	r6, r2, #0
    13a2:	402e      	ands	r6, r5
    13a4:	407e      	eors	r6, r7
    13a6:	4051      	eors	r1, r2
    13a8:	4069      	eors	r1, r5
    13aa:	4066      	eors	r6, r4
    13ac:	405c      	eors	r4, r3
    13ae:	4667      	mov	r7, ip
    13b0:	4642      	mov	r2, r8
    13b2:	46ac      	mov	ip, r5
    13b4:	46a0      	mov	r8, r4
    13b6:	4654      	mov	r4, sl
    13b8:	465d      	mov	r5, fp
    13ba:	4648      	mov	r0, r9
    13bc:	468a      	mov	sl, r1
    13be:	469b      	mov	fp, r3
    13c0:	4047      	eors	r7, r0
    13c2:	4068      	eors	r0, r5
    13c4:	4054      	eors	r4, r2
    13c6:	43f9      	mvns	r1, r7
    13c8:	4301      	orrs	r1, r0
    13ca:	1c23      	adds	r3, r4, #0
    13cc:	4393      	bics	r3, r2
    13ce:	405f      	eors	r7, r3
    13d0:	43c3      	mvns	r3, r0
    13d2:	432b      	orrs	r3, r5
    13d4:	405c      	eors	r4, r3
    13d6:	1c13      	adds	r3, r2, #0
    13d8:	43bb      	bics	r3, r7
    13da:	4058      	eors	r0, r3
    13dc:	1c2b      	adds	r3, r5, #0
    13de:	4023      	ands	r3, r4
    13e0:	405a      	eors	r2, r3
    13e2:	404d      	eors	r5, r1
    13e4:	4065      	eors	r5, r4
    13e6:	407a      	eors	r2, r7
    13e8:	4047      	eors	r7, r0
    13ea:	46a9      	mov	r9, r5
    13ec:	4665      	mov	r5, ip
    13ee:	46bc      	mov	ip, r7
    13f0:	09a3      	lsrs	r3, r4, #6
    13f2:	06af      	lsls	r7, r5, #26
    13f4:	09a9      	lsrs	r1, r5, #6
    13f6:	407b      	eors	r3, r7
    13f8:	06a7      	lsls	r7, r4, #26
    13fa:	4079      	eors	r1, r7
    13fc:	0867      	lsrs	r7, r4, #1
    13fe:	407b      	eors	r3, r7
    1400:	07ef      	lsls	r7, r5, #31
    1402:	407b      	eors	r3, r7
    1404:	086f      	lsrs	r7, r5, #1
    1406:	4079      	eors	r1, r7
    1408:	07e7      	lsls	r7, r4, #31
    140a:	4079      	eors	r1, r7
    140c:	405c      	eors	r4, r3
    140e:	404d      	eors	r5, r1
    1410:	00d3      	lsls	r3, r2, #3
    1412:	0f77      	lsrs	r7, r6, #29
    1414:	00f1      	lsls	r1, r6, #3
    1416:	407b      	eors	r3, r7
    1418:	0f57      	lsrs	r7, r2, #29
    141a:	4079      	eors	r1, r7
    141c:	0657      	lsls	r7, r2, #25
    141e:	407b      	eors	r3, r7
    1420:	09f7      	lsrs	r7, r6, #7
    1422:	407b      	eors	r3, r7
    1424:	0677      	lsls	r7, r6, #25
    1426:	4079      	eors	r1, r7
    1428:	09d7      	lsrs	r7, r2, #7
    142a:	4079      	eors	r1, r7
    142c:	405a      	eors	r2, r3
    142e:	404e      	eors	r6, r1
    1430:	465b      	mov	r3, fp
    1432:	46b3      	mov	fp, r6
    1434:	05c6      	lsls	r6, r0, #23
    1436:	0a5f      	lsrs	r7, r3, #9
    1438:	05d9      	lsls	r1, r3, #23
    143a:	407e      	eors	r6, r7
    143c:	0a47      	lsrs	r7, r0, #9
    143e:	4079      	eors	r1, r7
    1440:	09c7      	lsrs	r7, r0, #7
    1442:	407e      	eors	r6, r7
    1444:	065f      	lsls	r7, r3, #25
    1446:	407e      	eors	r6, r7
    1448:	09df      	lsrs	r7, r3, #7
    144a:	4079      	eors	r1, r7
    144c:	0647      	lsls	r7, r0, #25
    144e:	4079      	eors	r1, r7
    1450:	4070      	eors	r0, r6
    1452:	404b      	eors	r3, r1
    1454:	465f      	mov	r7, fp
    1456:	464e      	mov	r6, r9
    1458:	4681      	mov	r9, r0
    145a:	4693      	mov	fp, r2
    145c:	4652      	mov	r2, sl
    145e:	46a2      	mov	sl, r4
    1460:	0c70      	lsrs	r0, r6, #17
    1462:	03d4      	lsls	r4, r2, #15
    1464:	0c51      	lsrs	r1, r2, #17
    1466:	4060      	eors	r0, r4
    1468:	03f4      	lsls	r4, r6, #15
    146a:	4061      	eors	r1, r4
    146c:	0ab4      	lsrs	r4, r6, #10
    146e:	4060      	eors	r0, r4
    1470:	0594      	lsls	r4, r2, #22
    1472:	4060      	eors	r0, r4
    1474:	0a94      	lsrs	r4, r2, #10
    1476:	4061      	eors	r1, r4
    1478:	05b4      	lsls	r4, r6, #22
    147a:	4061      	eors	r1, r4
    147c:	4046      	eors	r6, r0
    147e:	404a      	eors	r2, r1
    1480:	4661      	mov	r1, ip
    1482:	4644      	mov	r4, r8
    1484:	469c      	mov	ip, r3
    1486:	46d8      	mov	r8, fp
    1488:	46b3      	mov	fp, r6
    148a:	0f0b      	lsrs	r3, r1, #28
    148c:	0126      	lsls	r6, r4, #4
    148e:	0f20      	lsrs	r0, r4, #28
    1490:	4073      	eors	r3, r6
    1492:	010e      	lsls	r6, r1, #4
    1494:	4070      	eors	r0, r6
    1496:	0cce      	lsrs	r6, r1, #19
    1498:	4073      	eors	r3, r6
    149a:	0366      	lsls	r6, r4, #13
    149c:	4073      	eors	r3, r6
    149e:	0ce6      	lsrs	r6, r4, #19
    14a0:	4070      	eors	r0, r6
    14a2:	034e      	lsls	r6, r1, #13
    14a4:	4070      	eors	r0, r6
    14a6:	bc40      	pop	{r6}
    14a8:	4059      	eors	r1, r3
    14aa:	4044      	eors	r4, r0
    14ac:	4663      	mov	r3, ip
    14ae:	468c      	mov	ip, r1
    14b0:	3e0f      	subs	r6, #15
    14b2:	2e3c      	cmp	r6, #60	; 0x3c
    14b4:	d000      	beq.n	14b8 <rend_301>
    14b6:	e763      	b.n	1380 <rbegin_301>

000014b8 <rend_301>:
    14b8:	4649      	mov	r1, r9
    14ba:	4658      	mov	r0, fp
    14bc:	4646      	mov	r6, r8
    14be:	941a      	str	r4, [sp, #104]	; 0x68
    14c0:	4664      	mov	r4, ip
    14c2:	941b      	str	r4, [sp, #108]	; 0x6c
    14c4:	971c      	str	r7, [sp, #112]	; 0x70
    14c6:	961d      	str	r6, [sp, #116]	; 0x74
    14c8:	951e      	str	r5, [sp, #120]	; 0x78
    14ca:	4655      	mov	r5, sl
    14cc:	951f      	str	r5, [sp, #124]	; 0x7c
    14ce:	9c11      	ldr	r4, [sp, #68]	; 0x44
    14d0:	4062      	eors	r2, r4
    14d2:	9220      	str	r2, [sp, #128]	; 0x80
    14d4:	9c12      	ldr	r4, [sp, #72]	; 0x48
    14d6:	4060      	eors	r0, r4
    14d8:	9021      	str	r0, [sp, #132]	; 0x84
    14da:	9c14      	ldr	r4, [sp, #80]	; 0x50
    14dc:	4063      	eors	r3, r4
    14de:	9322      	str	r3, [sp, #136]	; 0x88
    14e0:	9c15      	ldr	r4, [sp, #84]	; 0x54
    14e2:	4061      	eors	r1, r4
    14e4:	9123      	str	r1, [sp, #140]	; 0x8c
    14e6:	9b17      	ldr	r3, [sp, #92]	; 0x5c
    14e8:	930e      	str	r3, [sp, #56]	; 0x38
    14ea:	2300      	movs	r3, #0
    14ec:	930f      	str	r3, [sp, #60]	; 0x3c
    14ee:	9b0e      	ldr	r3, [sp, #56]	; 0x38
    14f0:	9c0f      	ldr	r4, [sp, #60]	; 0x3c
    14f2:	2c00      	cmp	r4, #0
    14f4:	d001      	beq.n	14fa <rend_301+0x42>
    14f6:	f000 fad7 	bl	1aa8 <rend_873+0x6a>
    14fa:	2b07      	cmp	r3, #7
    14fc:	d801      	bhi.n	1502 <rend_301+0x4a>
    14fe:	f000 fad3 	bl	1aa8 <rend_873+0x6a>
    1502:	9304      	str	r3, [sp, #16]
    1504:	9405      	str	r4, [sp, #20]
    1506:	9b16      	ldr	r3, [sp, #88]	; 0x58
    1508:	4698      	mov	r8, r3
    150a:	9f13      	ldr	r7, [sp, #76]	; 0x4c
    150c:	23ff      	movs	r3, #255	; 0xff
    150e:	041b      	lsls	r3, r3, #16
    1510:	9303      	str	r3, [sp, #12]
    1512:	23ff      	movs	r3, #255	; 0xff
    1514:	021b      	lsls	r3, r3, #8
    1516:	9310      	str	r3, [sp, #64]	; 0x40
    1518:	9701      	str	r7, [sp, #4]
    151a:	4643      	mov	r3, r8
    151c:	9302      	str	r3, [sp, #8]
    151e:	e001      	b.n	1524 <rend_301+0x6c>
    1520:	80400c06 	.word	0x80400c06
    1524:	9b01      	ldr	r3, [sp, #4]
    1526:	681e      	ldr	r6, [r3, #0]
    1528:	6859      	ldr	r1, [r3, #4]
    152a:	0633      	lsls	r3, r6, #24
    152c:	0e0a      	lsrs	r2, r1, #24
    152e:	0230      	lsls	r0, r6, #8
    1530:	9c03      	ldr	r4, [sp, #12]
    1532:	4020      	ands	r0, r4
    1534:	4303      	orrs	r3, r0
    1536:	0a37      	lsrs	r7, r6, #8
    1538:	0608      	lsls	r0, r1, #24
    153a:	4338      	orrs	r0, r7
    153c:	9d10      	ldr	r5, [sp, #64]	; 0x40
    153e:	4028      	ands	r0, r5
    1540:	4303      	orrs	r3, r0
    1542:	0e36      	lsrs	r6, r6, #24
    1544:	0208      	lsls	r0, r1, #8
    1546:	4330      	orrs	r0, r6
    1548:	27ff      	movs	r7, #255	; 0xff
    154a:	4038      	ands	r0, r7
    154c:	4303      	orrs	r3, r0
    154e:	0a08      	lsrs	r0, r1, #8
    1550:	060f      	lsls	r7, r1, #24
    1552:	433a      	orrs	r2, r7
    1554:	0209      	lsls	r1, r1, #8
    1556:	4331      	orrs	r1, r6
    1558:	4021      	ands	r1, r4
    155a:	430a      	orrs	r2, r1
    155c:	4028      	ands	r0, r5
    155e:	4302      	orrs	r2, r0
    1560:	991a      	ldr	r1, [sp, #104]	; 0x68
    1562:	404a      	eors	r2, r1
    1564:	991b      	ldr	r1, [sp, #108]	; 0x6c
    1566:	404b      	eors	r3, r1
    1568:	0611      	lsls	r1, r2, #24
    156a:	0e18      	lsrs	r0, r3, #24
    156c:	0216      	lsls	r6, r2, #8
    156e:	9403      	str	r4, [sp, #12]
    1570:	4026      	ands	r6, r4
    1572:	4331      	orrs	r1, r6
    1574:	0a17      	lsrs	r7, r2, #8
    1576:	061e      	lsls	r6, r3, #24
    1578:	433e      	orrs	r6, r7
    157a:	402e      	ands	r6, r5
    157c:	4331      	orrs	r1, r6
    157e:	0e16      	lsrs	r6, r2, #24
    1580:	46b4      	mov	ip, r6
    1582:	021e      	lsls	r6, r3, #8
    1584:	4667      	mov	r7, ip
    1586:	433e      	orrs	r6, r7
    1588:	27ff      	movs	r7, #255	; 0xff
    158a:	403e      	ands	r6, r7
    158c:	4331      	orrs	r1, r6
    158e:	0a1f      	lsrs	r7, r3, #8
    1590:	061e      	lsls	r6, r3, #24
    1592:	4330      	orrs	r0, r6
    1594:	021e      	lsls	r6, r3, #8
    1596:	4664      	mov	r4, ip
    1598:	4326      	orrs	r6, r4
    159a:	9c03      	ldr	r4, [sp, #12]
    159c:	4026      	ands	r6, r4
    159e:	4330      	orrs	r0, r6
    15a0:	402f      	ands	r7, r5
    15a2:	4338      	orrs	r0, r7
    15a4:	9c02      	ldr	r4, [sp, #8]
    15a6:	6020      	str	r0, [r4, #0]
    15a8:	6061      	str	r1, [r4, #4]
    15aa:	991c      	ldr	r1, [sp, #112]	; 0x70
    15ac:	9106      	str	r1, [sp, #24]
    15ae:	991d      	ldr	r1, [sp, #116]	; 0x74
    15b0:	9107      	str	r1, [sp, #28]
    15b2:	991e      	ldr	r1, [sp, #120]	; 0x78
    15b4:	9108      	str	r1, [sp, #32]
    15b6:	991f      	ldr	r1, [sp, #124]	; 0x7c
    15b8:	9109      	str	r1, [sp, #36]	; 0x24
    15ba:	9920      	ldr	r1, [sp, #128]	; 0x80
    15bc:	910a      	str	r1, [sp, #40]	; 0x28
    15be:	9921      	ldr	r1, [sp, #132]	; 0x84
    15c0:	910b      	str	r1, [sp, #44]	; 0x2c
    15c2:	9922      	ldr	r1, [sp, #136]	; 0x88
    15c4:	910c      	str	r1, [sp, #48]	; 0x30
    15c6:	9923      	ldr	r1, [sp, #140]	; 0x8c
    15c8:	910d      	str	r1, [sp, #52]	; 0x34
    15ca:	9f06      	ldr	r7, [sp, #24]
    15cc:	9e07      	ldr	r6, [sp, #28]
    15ce:	9908      	ldr	r1, [sp, #32]
    15d0:	468a      	mov	sl, r1
    15d2:	9809      	ldr	r0, [sp, #36]	; 0x24
    15d4:	990a      	ldr	r1, [sp, #40]	; 0x28
    15d6:	468b      	mov	fp, r1
    15d8:	990b      	ldr	r1, [sp, #44]	; 0x2c
    15da:	9c0c      	ldr	r4, [sp, #48]	; 0x30
    15dc:	0025      	movs	r5, r4
    15de:	9c0d      	ldr	r4, [sp, #52]	; 0x34
    15e0:	46a0      	mov	r8, r4
    15e2:	2496      	movs	r4, #150	; 0x96
    15e4:	469c      	mov	ip, r3
    15e6:	46b1      	mov	r9, r6
    15e8:	4653      	mov	r3, sl
    15ea:	4682      	mov	sl, r0
    15ec:	4658      	mov	r0, fp
    15ee:	468b      	mov	fp, r1
    15f0:	0029      	movs	r1, r5

000015f2 <rbegin_538>:
    15f2:	4063      	eors	r3, r4
    15f4:	b410      	push	{r4}
    15f6:	404a      	eors	r2, r1
    15f8:	4041      	eors	r1, r0
    15fa:	407b      	eors	r3, r7
    15fc:	43d6      	mvns	r6, r2
    15fe:	430e      	orrs	r6, r1
    1600:	1c1c      	adds	r4, r3, #0
    1602:	43bc      	bics	r4, r7
    1604:	4062      	eors	r2, r4
    1606:	43cc      	mvns	r4, r1
    1608:	4304      	orrs	r4, r0
    160a:	4063      	eors	r3, r4
    160c:	1c3c      	adds	r4, r7, #0
    160e:	4394      	bics	r4, r2
    1610:	4061      	eors	r1, r4
    1612:	1c04      	adds	r4, r0, #0
    1614:	401c      	ands	r4, r3
    1616:	407c      	eors	r4, r7
    1618:	4046      	eors	r6, r0
    161a:	405e      	eors	r6, r3
    161c:	4054      	eors	r4, r2
    161e:	404a      	eors	r2, r1
    1620:	4667      	mov	r7, ip
    1622:	4648      	mov	r0, r9
    1624:	469c      	mov	ip, r3
    1626:	4691      	mov	r9, r2
    1628:	4652      	mov	r2, sl
    162a:	465b      	mov	r3, fp
    162c:	4645      	mov	r5, r8
    162e:	46b2      	mov	sl, r6
    1630:	468b      	mov	fp, r1
    1632:	406f      	eors	r7, r5
    1634:	405d      	eors	r5, r3
    1636:	4042      	eors	r2, r0
    1638:	43fe      	mvns	r6, r7
    163a:	432e      	orrs	r6, r5
    163c:	1c11      	adds	r1, r2, #0
    163e:	4381      	bics	r1, r0
    1640:	404f      	eors	r7, r1
    1642:	43e9      	mvns	r1, r5
    1644:	4319      	orrs	r1, r3
    1646:	404a      	eors	r2, r1
    1648:	1c01      	adds	r1, r0, #0
    164a:	43b9      	bics	r1, r7
    164c:	404d      	eors	r5, r1
    164e:	1c19      	adds	r1, r3, #0
    1650:	4011      	ands	r1, r2
    1652:	4048      	eors	r0, r1
    1654:	4073      	eors	r3, r6
    1656:	4053      	eors	r3, r2
    1658:	4078      	eors	r0, r7
    165a:	406f      	eors	r7, r5
    165c:	4698      	mov	r8, r3
    165e:	4663      	mov	r3, ip
    1660:	46bc      	mov	ip, r7
    1662:	0991      	lsrs	r1, r2, #6
    1664:	069f      	lsls	r7, r3, #26
    1666:	099e      	lsrs	r6, r3, #6
    1668:	4079      	eors	r1, r7
    166a:	0697      	lsls	r7, r2, #26
    166c:	407e      	eors	r6, r7
    166e:	0857      	lsrs	r7, r2, #1
    1670:	4079      	eors	r1, r7
    1672:	07df      	lsls	r7, r3, #31
    1674:	4079      	eors	r1, r7
    1676:	085f      	lsrs	r7, r3, #1
    1678:	407e      	eors	r6, r7
    167a:	07d7      	lsls	r7, r2, #31
    167c:	407e      	eors	r6, r7
    167e:	404a      	eors	r2, r1
    1680:	4073      	eors	r3, r6
    1682:	00c1      	lsls	r1, r0, #3
    1684:	0f67      	lsrs	r7, r4, #29
    1686:	00e6      	lsls	r6, r4, #3
    1688:	4079      	eors	r1, r7
    168a:	0f47      	lsrs	r7, r0, #29
    168c:	407e      	eors	r6, r7
    168e:	0647      	lsls	r7, r0, #25
    1690:	4079      	eors	r1, r7
    1692:	09e7      	lsrs	r7, r4, #7
    1694:	4079      	eors	r1, r7
    1696:	0667      	lsls	r7, r4, #25
    1698:	407e      	eors	r6, r7
    169a:	09c7      	lsrs	r7, r0, #7
    169c:	407e      	eors	r6, r7
    169e:	4048      	eors	r0, r1
    16a0:	4074      	eors	r4, r6
    16a2:	4659      	mov	r1, fp
    16a4:	46a3      	mov	fp, r4
    16a6:	05ec      	lsls	r4, r5, #23
    16a8:	0a4f      	lsrs	r7, r1, #9
    16aa:	05ce      	lsls	r6, r1, #23
    16ac:	407c      	eors	r4, r7
    16ae:	0a6f      	lsrs	r7, r5, #9
    16b0:	407e      	eors	r6, r7
    16b2:	09ef      	lsrs	r7, r5, #7
    16b4:	407c      	eors	r4, r7
    16b6:	064f      	lsls	r7, r1, #25
    16b8:	407c      	eors	r4, r7
    16ba:	09cf      	lsrs	r7, r1, #7
    16bc:	407e      	eors	r6, r7
    16be:	066f      	lsls	r7, r5, #25
    16c0:	407e      	eors	r6, r7
    16c2:	4065      	eors	r5, r4
    16c4:	4071      	eors	r1, r6
    16c6:	465f      	mov	r7, fp
    16c8:	4644      	mov	r4, r8
    16ca:	46a8      	mov	r8, r5
    16cc:	4683      	mov	fp, r0
    16ce:	4650      	mov	r0, sl
    16d0:	4692      	mov	sl, r2
    16d2:	0c65      	lsrs	r5, r4, #17
    16d4:	03c2      	lsls	r2, r0, #15
    16d6:	0c46      	lsrs	r6, r0, #17
    16d8:	4055      	eors	r5, r2
    16da:	03e2      	lsls	r2, r4, #15
    16dc:	4056      	eors	r6, r2
    16de:	0aa2      	lsrs	r2, r4, #10
    16e0:	4055      	eors	r5, r2
    16e2:	0582      	lsls	r2, r0, #22
    16e4:	4055      	eors	r5, r2
    16e6:	0a82      	lsrs	r2, r0, #10
    16e8:	4056      	eors	r6, r2
    16ea:	05a2      	lsls	r2, r4, #22
    16ec:	4056      	eors	r6, r2
    16ee:	406c      	eors	r4, r5
    16f0:	4070      	eors	r0, r6
    16f2:	4666      	mov	r6, ip
    16f4:	464a      	mov	r2, r9
    16f6:	468c      	mov	ip, r1
    16f8:	46d9      	mov	r9, fp
    16fa:	46a3      	mov	fp, r4
    16fc:	0f31      	lsrs	r1, r6, #28
    16fe:	0114      	lsls	r4, r2, #4
    1700:	0f15      	lsrs	r5, r2, #28
    1702:	4061      	eors	r1, r4
    1704:	0134      	lsls	r4, r6, #4
    1706:	4065      	eors	r5, r4
    1708:	0cf4      	lsrs	r4, r6, #19
    170a:	4061      	eors	r1, r4
    170c:	0354      	lsls	r4, r2, #13
    170e:	4061      	eors	r1, r4
    1710:	0cd4      	lsrs	r4, r2, #19
    1712:	4065      	eors	r5, r4
    1714:	0374      	lsls	r4, r6, #13
    1716:	4065      	eors	r5, r4
    1718:	bc10      	pop	{r4}
    171a:	404e      	eors	r6, r1
    171c:	406a      	eors	r2, r5
    171e:	4661      	mov	r1, ip
    1720:	46b4      	mov	ip, r6
    1722:	3c0f      	subs	r4, #15
    1724:	2c3c      	cmp	r4, #60	; 0x3c
    1726:	d000      	beq.n	172a <rend_538>
    1728:	e763      	b.n	15f2 <rbegin_538>

0000172a <rend_538>:
    172a:	000d      	movs	r5, r1
    172c:	4659      	mov	r1, fp
    172e:	4683      	mov	fp, r0
    1730:	4650      	mov	r0, sl
    1732:	001c      	movs	r4, r3
    1734:	464e      	mov	r6, r9
    1736:	4663      	mov	r3, ip
    1738:	921a      	str	r2, [sp, #104]	; 0x68
    173a:	931b      	str	r3, [sp, #108]	; 0x6c
    173c:	971c      	str	r7, [sp, #112]	; 0x70
    173e:	961d      	str	r6, [sp, #116]	; 0x74
    1740:	941e      	str	r4, [sp, #120]	; 0x78
    1742:	901f      	str	r0, [sp, #124]	; 0x7c
    1744:	4658      	mov	r0, fp
    1746:	9020      	str	r0, [sp, #128]	; 0x80
    1748:	9121      	str	r1, [sp, #132]	; 0x84
    174a:	9522      	str	r5, [sp, #136]	; 0x88
    174c:	4643      	mov	r3, r8
    174e:	9323      	str	r3, [sp, #140]	; 0x8c
    1750:	9b01      	ldr	r3, [sp, #4]
    1752:	3308      	adds	r3, #8
    1754:	9301      	str	r3, [sp, #4]
    1756:	9b02      	ldr	r3, [sp, #8]
    1758:	3308      	adds	r3, #8
    175a:	9302      	str	r3, [sp, #8]
    175c:	9a04      	ldr	r2, [sp, #16]
    175e:	9b05      	ldr	r3, [sp, #20]
    1760:	2008      	movs	r0, #8
    1762:	4240      	negs	r0, r0
    1764:	17c1      	asrs	r1, r0, #31
    1766:	1812      	adds	r2, r2, r0
    1768:	414b      	adcs	r3, r1
    176a:	9204      	str	r2, [sp, #16]
    176c:	9305      	str	r3, [sp, #20]
    176e:	2b00      	cmp	r3, #0
    1770:	d000      	beq.n	1774 <rend_538+0x4a>
    1772:	e6d7      	b.n	1524 <rend_301+0x6c>
    1774:	9b04      	ldr	r3, [sp, #16]
    1776:	9c05      	ldr	r4, [sp, #20]
    1778:	2c00      	cmp	r4, #0
    177a:	d102      	bne.n	1782 <rend_538+0x58>
    177c:	2b07      	cmp	r3, #7
    177e:	d900      	bls.n	1782 <rend_538+0x58>
    1780:	e6d0      	b.n	1524 <rend_301+0x6c>
    1782:	2208      	movs	r2, #8
    1784:	4252      	negs	r2, r2
    1786:	17d3      	asrs	r3, r2, #31
    1788:	9e0e      	ldr	r6, [sp, #56]	; 0x38
    178a:	9f0f      	ldr	r7, [sp, #60]	; 0x3c
    178c:	18b6      	adds	r6, r6, r2
    178e:	415f      	adcs	r7, r3
    1790:	0779      	lsls	r1, r7, #29
    1792:	08f0      	lsrs	r0, r6, #3
    1794:	4308      	orrs	r0, r1
    1796:	08f9      	lsrs	r1, r7, #3
    1798:	1c44      	adds	r4, r0, #1
    179a:	00e4      	lsls	r4, r4, #3
    179c:	9d13      	ldr	r5, [sp, #76]	; 0x4c
    179e:	46ac      	mov	ip, r5
    17a0:	44a4      	add	ip, r4
    17a2:	4665      	mov	r5, ip
    17a4:	9513      	str	r5, [sp, #76]	; 0x4c
    17a6:	9d16      	ldr	r5, [sp, #88]	; 0x58
    17a8:	46ac      	mov	ip, r5
    17aa:	4464      	add	r4, ip
    17ac:	4d46      	ldr	r5, [pc, #280]	; (18c8 <rend_538+0x19e>)
    17ae:	47a8      	blx	r5
    17b0:	1980      	adds	r0, r0, r6
    17b2:	4179      	adcs	r1, r7
    17b4:	900e      	str	r0, [sp, #56]	; 0x38
    17b6:	910f      	str	r1, [sp, #60]	; 0x3c
    17b8:	9d0e      	ldr	r5, [sp, #56]	; 0x38
    17ba:	9e0f      	ldr	r6, [sp, #60]	; 0x3c
    17bc:	002b      	movs	r3, r5
    17be:	2107      	movs	r1, #7
    17c0:	1b49      	subs	r1, r1, r5
    17c2:	00c9      	lsls	r1, r1, #3
    17c4:	2220      	movs	r2, #32
    17c6:	4252      	negs	r2, r2
    17c8:	1888      	adds	r0, r1, r2
    17ca:	d500      	bpl.n	17ce <rend_538+0xa4>
    17cc:	e16e      	b.n	1aac <rend_873+0x6e>
    17ce:	2580      	movs	r5, #128	; 0x80
    17d0:	4085      	lsls	r5, r0
    17d2:	2680      	movs	r6, #128	; 0x80
    17d4:	408e      	lsls	r6, r1
    17d6:	9a1a      	ldr	r2, [sp, #104]	; 0x68
    17d8:	4056      	eors	r6, r2
    17da:	9a1b      	ldr	r2, [sp, #108]	; 0x6c
    17dc:	4055      	eors	r5, r2
    17de:	961a      	str	r6, [sp, #104]	; 0x68
    17e0:	951b      	str	r5, [sp, #108]	; 0x6c
    17e2:	990e      	ldr	r1, [sp, #56]	; 0x38
    17e4:	9a0f      	ldr	r2, [sp, #60]	; 0x3c
    17e6:	0008      	movs	r0, r1
    17e8:	4310      	orrs	r0, r2
    17ea:	d06f      	beq.n	18cc <rend_538+0x1a2>
    17ec:	2208      	movs	r2, #8
    17ee:	1ad3      	subs	r3, r2, r3
    17f0:	00db      	lsls	r3, r3, #3
    17f2:	3a28      	subs	r2, #40	; 0x28
    17f4:	189a      	adds	r2, r3, r2
    17f6:	d500      	bpl.n	17fa <rend_538+0xd0>
    17f8:	e15d      	b.n	1ab6 <rend_873+0x78>
    17fa:	2001      	movs	r0, #1
    17fc:	4240      	negs	r0, r0
    17fe:	40d0      	lsrs	r0, r2
    1800:	9001      	str	r0, [sp, #4]
    1802:	2201      	movs	r2, #1
    1804:	4252      	negs	r2, r2
    1806:	40da      	lsrs	r2, r3
    1808:	4690      	mov	r8, r2
    180a:	9b13      	ldr	r3, [sp, #76]	; 0x4c
    180c:	681a      	ldr	r2, [r3, #0]
    180e:	0011      	movs	r1, r2
    1810:	9a01      	ldr	r2, [sp, #4]
    1812:	4011      	ands	r1, r2
    1814:	685b      	ldr	r3, [r3, #4]
    1816:	4642      	mov	r2, r8
    1818:	4013      	ands	r3, r2
    181a:	060f      	lsls	r7, r1, #24
    181c:	0e1a      	lsrs	r2, r3, #24
    181e:	9202      	str	r2, [sp, #8]
    1820:	020a      	lsls	r2, r1, #8
    1822:	20ff      	movs	r0, #255	; 0xff
    1824:	0400      	lsls	r0, r0, #16
    1826:	4684      	mov	ip, r0
    1828:	4002      	ands	r2, r0
    182a:	4317      	orrs	r7, r2
    182c:	46b9      	mov	r9, r7
    182e:	0a0f      	lsrs	r7, r1, #8
    1830:	061a      	lsls	r2, r3, #24
    1832:	433a      	orrs	r2, r7
    1834:	20ff      	movs	r0, #255	; 0xff
    1836:	0200      	lsls	r0, r0, #8
    1838:	4002      	ands	r2, r0
    183a:	464f      	mov	r7, r9
    183c:	4317      	orrs	r7, r2
    183e:	0e09      	lsrs	r1, r1, #24
    1840:	021a      	lsls	r2, r3, #8
    1842:	430a      	orrs	r2, r1
    1844:	20ff      	movs	r0, #255	; 0xff
    1846:	4683      	mov	fp, r0
    1848:	4002      	ands	r2, r0
    184a:	433a      	orrs	r2, r7
    184c:	0a18      	lsrs	r0, r3, #8
    184e:	4681      	mov	r9, r0
    1850:	0618      	lsls	r0, r3, #24
    1852:	9f02      	ldr	r7, [sp, #8]
    1854:	4307      	orrs	r7, r0
    1856:	021b      	lsls	r3, r3, #8
    1858:	430b      	orrs	r3, r1
    185a:	4661      	mov	r1, ip
    185c:	400b      	ands	r3, r1
    185e:	433b      	orrs	r3, r7
    1860:	4649      	mov	r1, r9
    1862:	20ff      	movs	r0, #255	; 0xff
    1864:	0200      	lsls	r0, r0, #8
    1866:	4001      	ands	r1, r0
    1868:	430b      	orrs	r3, r1
    186a:	405e      	eors	r6, r3
    186c:	406a      	eors	r2, r5
    186e:	961a      	str	r6, [sp, #104]	; 0x68
    1870:	921b      	str	r2, [sp, #108]	; 0x6c
    1872:	6823      	ldr	r3, [r4, #0]
    1874:	9901      	ldr	r1, [sp, #4]
    1876:	438b      	bics	r3, r1
    1878:	0018      	movs	r0, r3
    187a:	6863      	ldr	r3, [r4, #4]
    187c:	4641      	mov	r1, r8
    187e:	438b      	bics	r3, r1
    1880:	0631      	lsls	r1, r6, #24
    1882:	0e15      	lsrs	r5, r2, #24
    1884:	4328      	orrs	r0, r5
    1886:	4319      	orrs	r1, r3
    1888:	0235      	lsls	r5, r6, #8
    188a:	4663      	mov	r3, ip
    188c:	401d      	ands	r5, r3
    188e:	4329      	orrs	r1, r5
    1890:	0a35      	lsrs	r5, r6, #8
    1892:	0613      	lsls	r3, r2, #24
    1894:	432b      	orrs	r3, r5
    1896:	25ff      	movs	r5, #255	; 0xff
    1898:	022d      	lsls	r5, r5, #8
    189a:	402b      	ands	r3, r5
    189c:	4319      	orrs	r1, r3
    189e:	0e36      	lsrs	r6, r6, #24
    18a0:	0215      	lsls	r5, r2, #8
    18a2:	4335      	orrs	r5, r6
    18a4:	465b      	mov	r3, fp
    18a6:	401d      	ands	r5, r3
    18a8:	4329      	orrs	r1, r5
    18aa:	0a15      	lsrs	r5, r2, #8
    18ac:	0613      	lsls	r3, r2, #24
    18ae:	4318      	orrs	r0, r3
    18b0:	0212      	lsls	r2, r2, #8
    18b2:	4316      	orrs	r6, r2
    18b4:	4663      	mov	r3, ip
    18b6:	401e      	ands	r6, r3
    18b8:	4330      	orrs	r0, r6
    18ba:	27ff      	movs	r7, #255	; 0xff
    18bc:	023f      	lsls	r7, r7, #8
    18be:	402f      	ands	r7, r5
    18c0:	4338      	orrs	r0, r7
    18c2:	6020      	str	r0, [r4, #0]
    18c4:	6061      	str	r1, [r4, #4]
    18c6:	e001      	b.n	18cc <rend_538+0x1a2>
    18c8:	00006e59 	.word	0x00006e59
    18cc:	9b1c      	ldr	r3, [sp, #112]	; 0x70
    18ce:	0019      	movs	r1, r3
    18d0:	9b11      	ldr	r3, [sp, #68]	; 0x44
    18d2:	4059      	eors	r1, r3
    18d4:	9a1d      	ldr	r2, [sp, #116]	; 0x74
    18d6:	9812      	ldr	r0, [sp, #72]	; 0x48
    18d8:	4042      	eors	r2, r0
    18da:	4694      	mov	ip, r2
    18dc:	9a1e      	ldr	r2, [sp, #120]	; 0x78
    18de:	9201      	str	r2, [sp, #4]
    18e0:	9a14      	ldr	r2, [sp, #80]	; 0x50
    18e2:	9c01      	ldr	r4, [sp, #4]
    18e4:	4062      	eors	r2, r4
    18e6:	0010      	movs	r0, r2
    18e8:	9a1f      	ldr	r2, [sp, #124]	; 0x7c
    18ea:	9201      	str	r2, [sp, #4]
    18ec:	9e15      	ldr	r6, [sp, #84]	; 0x54
    18ee:	4056      	eors	r6, r2
    18f0:	9a1b      	ldr	r2, [sp, #108]	; 0x6c
    18f2:	4691      	mov	r9, r2
    18f4:	9a20      	ldr	r2, [sp, #128]	; 0x80
    18f6:	9b21      	ldr	r3, [sp, #132]	; 0x84
    18f8:	9c22      	ldr	r4, [sp, #136]	; 0x88
    18fa:	9f23      	ldr	r7, [sp, #140]	; 0x8c
    18fc:	9d1a      	ldr	r5, [sp, #104]	; 0x68
    18fe:	46b0      	mov	r8, r6
    1900:	46ba      	mov	sl, r7
    1902:	26f0      	movs	r6, #240	; 0xf0
    1904:	469b      	mov	fp, r3

00001906 <rbegin_873>:
    1906:	4070      	eors	r0, r6
    1908:	b440      	push	{r6}
    190a:	4065      	eors	r5, r4
    190c:	4054      	eors	r4, r2
    190e:	4048      	eors	r0, r1
    1910:	43ef      	mvns	r7, r5
    1912:	4327      	orrs	r7, r4
    1914:	1c06      	adds	r6, r0, #0
    1916:	438e      	bics	r6, r1
    1918:	4075      	eors	r5, r6
    191a:	43e6      	mvns	r6, r4
    191c:	4316      	orrs	r6, r2
    191e:	4070      	eors	r0, r6
    1920:	1c0e      	adds	r6, r1, #0
    1922:	43ae      	bics	r6, r5
    1924:	4074      	eors	r4, r6
    1926:	1c16      	adds	r6, r2, #0
    1928:	4006      	ands	r6, r0
    192a:	404e      	eors	r6, r1
    192c:	4057      	eors	r7, r2
    192e:	4047      	eors	r7, r0
    1930:	406e      	eors	r6, r5
    1932:	4065      	eors	r5, r4
    1934:	4649      	mov	r1, r9
    1936:	4662      	mov	r2, ip
    1938:	4681      	mov	r9, r0
    193a:	46ac      	mov	ip, r5
    193c:	4645      	mov	r5, r8
    193e:	4658      	mov	r0, fp
    1940:	4653      	mov	r3, sl
    1942:	46b8      	mov	r8, r7
    1944:	46a3      	mov	fp, r4
    1946:	4059      	eors	r1, r3
    1948:	4043      	eors	r3, r0
    194a:	4055      	eors	r5, r2
    194c:	43cf      	mvns	r7, r1
    194e:	431f      	orrs	r7, r3
    1950:	1c2c      	adds	r4, r5, #0
    1952:	4394      	bics	r4, r2
    1954:	4061      	eors	r1, r4
    1956:	43dc      	mvns	r4, r3
    1958:	4304      	orrs	r4, r0
    195a:	4065      	eors	r5, r4
    195c:	1c14      	adds	r4, r2, #0
    195e:	438c      	bics	r4, r1
    1960:	4063      	eors	r3, r4
    1962:	1c04      	adds	r4, r0, #0
    1964:	402c      	ands	r4, r5
    1966:	4062      	eors	r2, r4
    1968:	4078      	eors	r0, r7
    196a:	4068      	eors	r0, r5
    196c:	404a      	eors	r2, r1
    196e:	4059      	eors	r1, r3
    1970:	4682      	mov	sl, r0
    1972:	4648      	mov	r0, r9
    1974:	4689      	mov	r9, r1
    1976:	09ac      	lsrs	r4, r5, #6
    1978:	0681      	lsls	r1, r0, #26
    197a:	0987      	lsrs	r7, r0, #6
    197c:	404c      	eors	r4, r1
    197e:	06a9      	lsls	r1, r5, #26
    1980:	404f      	eors	r7, r1
    1982:	0869      	lsrs	r1, r5, #1
    1984:	404c      	eors	r4, r1
    1986:	07c1      	lsls	r1, r0, #31
    1988:	404c      	eors	r4, r1
    198a:	0841      	lsrs	r1, r0, #1
    198c:	404f      	eors	r7, r1
    198e:	07e9      	lsls	r1, r5, #31
    1990:	404f      	eors	r7, r1
    1992:	4065      	eors	r5, r4
    1994:	4078      	eors	r0, r7
    1996:	00d4      	lsls	r4, r2, #3
    1998:	0f71      	lsrs	r1, r6, #29
    199a:	00f7      	lsls	r7, r6, #3
    199c:	404c      	eors	r4, r1
    199e:	0f51      	lsrs	r1, r2, #29
    19a0:	404f      	eors	r7, r1
    19a2:	0651      	lsls	r1, r2, #25
    19a4:	404c      	eors	r4, r1
    19a6:	09f1      	lsrs	r1, r6, #7
    19a8:	404c      	eors	r4, r1
    19aa:	0671      	lsls	r1, r6, #25
    19ac:	404f      	eors	r7, r1
    19ae:	09d1      	lsrs	r1, r2, #7
    19b0:	404f      	eors	r7, r1
    19b2:	4062      	eors	r2, r4
    19b4:	407e      	eors	r6, r7
    19b6:	465c      	mov	r4, fp
    19b8:	46b3      	mov	fp, r6
    19ba:	05de      	lsls	r6, r3, #23
    19bc:	0a61      	lsrs	r1, r4, #9
    19be:	05e7      	lsls	r7, r4, #23
    19c0:	404e      	eors	r6, r1
    19c2:	0a59      	lsrs	r1, r3, #9
    19c4:	404f      	eors	r7, r1
    19c6:	09d9      	lsrs	r1, r3, #7
    19c8:	404e      	eors	r6, r1
    19ca:	0661      	lsls	r1, r4, #25
    19cc:	404e      	eors	r6, r1
    19ce:	09e1      	lsrs	r1, r4, #7
    19d0:	404f      	eors	r7, r1
    19d2:	0659      	lsls	r1, r3, #25
    19d4:	404f      	eors	r7, r1
    19d6:	4073      	eors	r3, r6
    19d8:	407c      	eors	r4, r7
    19da:	4659      	mov	r1, fp
    19dc:	4656      	mov	r6, sl
    19de:	469a      	mov	sl, r3
    19e0:	4693      	mov	fp, r2
    19e2:	4642      	mov	r2, r8
    19e4:	46a8      	mov	r8, r5
    19e6:	0c73      	lsrs	r3, r6, #17
    19e8:	03d5      	lsls	r5, r2, #15
    19ea:	0c57      	lsrs	r7, r2, #17
    19ec:	406b      	eors	r3, r5
    19ee:	03f5      	lsls	r5, r6, #15
    19f0:	406f      	eors	r7, r5
    19f2:	0ab5      	lsrs	r5, r6, #10
    19f4:	406b      	eors	r3, r5
    19f6:	0595      	lsls	r5, r2, #22
    19f8:	406b      	eors	r3, r5
    19fa:	0a95      	lsrs	r5, r2, #10
    19fc:	406f      	eors	r7, r5
    19fe:	05b5      	lsls	r5, r6, #22
    1a00:	406f      	eors	r7, r5
    1a02:	405e      	eors	r6, r3
    1a04:	407a      	eors	r2, r7
    1a06:	464f      	mov	r7, r9
    1a08:	4665      	mov	r5, ip
    1a0a:	46a1      	mov	r9, r4
    1a0c:	46dc      	mov	ip, fp
    1a0e:	46b3      	mov	fp, r6
    1a10:	0f3c      	lsrs	r4, r7, #28
    1a12:	012e      	lsls	r6, r5, #4
    1a14:	0f2b      	lsrs	r3, r5, #28
    1a16:	4074      	eors	r4, r6
    1a18:	013e      	lsls	r6, r7, #4
    1a1a:	4073      	eors	r3, r6
    1a1c:	0cfe      	lsrs	r6, r7, #19
    1a1e:	4074      	eors	r4, r6
    1a20:	036e      	lsls	r6, r5, #13
    1a22:	4074      	eors	r4, r6
    1a24:	0cee      	lsrs	r6, r5, #19
    1a26:	4073      	eors	r3, r6
    1a28:	037e      	lsls	r6, r7, #13
    1a2a:	4073      	eors	r3, r6
    1a2c:	bc40      	pop	{r6}
    1a2e:	4067      	eors	r7, r4
    1a30:	405d      	eors	r5, r3
    1a32:	464c      	mov	r4, r9
    1a34:	46b9      	mov	r9, r7
    1a36:	3e0f      	subs	r6, #15
    1a38:	2e3c      	cmp	r6, #60	; 0x3c
    1a3a:	d000      	beq.n	1a3e <rend_873>
    1a3c:	e763      	b.n	1906 <rbegin_873>

00001a3e <rend_873>:
    1a3e:	465b      	mov	r3, fp
    1a40:	9911      	ldr	r1, [sp, #68]	; 0x44
    1a42:	404a      	eors	r2, r1
    1a44:	9812      	ldr	r0, [sp, #72]	; 0x48
    1a46:	4043      	eors	r3, r0
    1a48:	0611      	lsls	r1, r2, #24
    1a4a:	0e18      	lsrs	r0, r3, #24
    1a4c:	0214      	lsls	r4, r2, #8
    1a4e:	26ff      	movs	r6, #255	; 0xff
    1a50:	0436      	lsls	r6, r6, #16
    1a52:	4034      	ands	r4, r6
    1a54:	4321      	orrs	r1, r4
    1a56:	0a15      	lsrs	r5, r2, #8
    1a58:	061c      	lsls	r4, r3, #24
    1a5a:	432c      	orrs	r4, r5
    1a5c:	25ff      	movs	r5, #255	; 0xff
    1a5e:	022d      	lsls	r5, r5, #8
    1a60:	402c      	ands	r4, r5
    1a62:	4321      	orrs	r1, r4
    1a64:	0e12      	lsrs	r2, r2, #24
    1a66:	021c      	lsls	r4, r3, #8
    1a68:	4314      	orrs	r4, r2
    1a6a:	27ff      	movs	r7, #255	; 0xff
    1a6c:	403c      	ands	r4, r7
    1a6e:	4321      	orrs	r1, r4
    1a70:	0a1c      	lsrs	r4, r3, #8
    1a72:	061f      	lsls	r7, r3, #24
    1a74:	4338      	orrs	r0, r7
    1a76:	021b      	lsls	r3, r3, #8
    1a78:	4313      	orrs	r3, r2
    1a7a:	4033      	ands	r3, r6
    1a7c:	4303      	orrs	r3, r0
    1a7e:	4025      	ands	r5, r4
    1a80:	432b      	orrs	r3, r5
    1a82:	9318      	str	r3, [sp, #96]	; 0x60
    1a84:	9119      	str	r1, [sp, #100]	; 0x64
    1a86:	9b16      	ldr	r3, [sp, #88]	; 0x58
    1a88:	9a17      	ldr	r2, [sp, #92]	; 0x5c
    1a8a:	4694      	mov	ip, r2
    1a8c:	4463      	add	r3, ip
    1a8e:	0018      	movs	r0, r3
    1a90:	2208      	movs	r2, #8
    1a92:	a918      	add	r1, sp, #96	; 0x60
    1a94:	4b0e      	ldr	r3, [pc, #56]	; (1ad0 <rend_873+0x92>)
    1a96:	4798      	blx	r3
    1a98:	2000      	movs	r0, #0
    1a9a:	b025      	add	sp, #148	; 0x94
    1a9c:	bc3c      	pop	{r2, r3, r4, r5}
    1a9e:	4690      	mov	r8, r2
    1aa0:	4699      	mov	r9, r3
    1aa2:	46a2      	mov	sl, r4
    1aa4:	46ab      	mov	fp, r5
    1aa6:	bdf0      	pop	{r4, r5, r6, r7, pc}
    1aa8:	9c16      	ldr	r4, [sp, #88]	; 0x58
    1aaa:	e685      	b.n	17b8 <rend_538+0x8e>
    1aac:	2020      	movs	r0, #32
    1aae:	1a40      	subs	r0, r0, r1
    1ab0:	2580      	movs	r5, #128	; 0x80
    1ab2:	40c5      	lsrs	r5, r0
    1ab4:	e68d      	b.n	17d2 <rend_538+0xa8>
    1ab6:	2220      	movs	r2, #32
    1ab8:	1ad2      	subs	r2, r2, r3
    1aba:	2001      	movs	r0, #1
    1abc:	4240      	negs	r0, r0
    1abe:	0001      	movs	r1, r0
    1ac0:	4091      	lsls	r1, r2
    1ac2:	000a      	movs	r2, r1
    1ac4:	40d8      	lsrs	r0, r3
    1ac6:	0001      	movs	r1, r0
    1ac8:	4311      	orrs	r1, r2
    1aca:	9101      	str	r1, [sp, #4]
    1acc:	e699      	b.n	1802 <rend_538+0xd8>
    1ace:	46c0      	nop			; (mov r8, r8)
    1ad0:	00006f53 	.word	0x00006f53

00001ad4 <crypto_aead_decrypt>:
    1ad4:	b5f0      	push	{r4, r5, r6, r7, lr}
    1ad6:	46de      	mov	lr, fp
    1ad8:	4657      	mov	r7, sl
    1ada:	464e      	mov	r6, r9
    1adc:	4645      	mov	r5, r8
    1ade:	b5e0      	push	{r5, r6, r7, lr}
    1ae0:	b0a3      	sub	sp, #140	; 0x8c
    1ae2:	900f      	str	r0, [sp, #60]	; 0x3c
    1ae4:	9314      	str	r3, [sp, #80]	; 0x50
    1ae6:	9a2f      	ldr	r2, [sp, #188]	; 0xbc
    1ae8:	4694      	mov	ip, r2
    1aea:	9830      	ldr	r0, [sp, #192]	; 0xc0
    1aec:	9a2c      	ldr	r2, [sp, #176]	; 0xb0
    1aee:	2a07      	cmp	r2, #7
    1af0:	d801      	bhi.n	1af6 <crypto_aead_decrypt+0x22>
    1af2:	f000 fc86 	bl	2402 <rend_1990+0xc8>
    1af6:	3a08      	subs	r2, #8
    1af8:	9215      	str	r2, [sp, #84]	; 0x54
    1afa:	600a      	str	r2, [r1, #0]
    1afc:	6802      	ldr	r2, [r0, #0]
    1afe:	6843      	ldr	r3, [r0, #4]
    1b00:	0611      	lsls	r1, r2, #24
    1b02:	0e1d      	lsrs	r5, r3, #24
    1b04:	0214      	lsls	r4, r2, #8
    1b06:	27ff      	movs	r7, #255	; 0xff
    1b08:	043f      	lsls	r7, r7, #16
    1b0a:	403c      	ands	r4, r7
    1b0c:	430c      	orrs	r4, r1
    1b0e:	0a16      	lsrs	r6, r2, #8
    1b10:	0619      	lsls	r1, r3, #24
    1b12:	4331      	orrs	r1, r6
    1b14:	26ff      	movs	r6, #255	; 0xff
    1b16:	0236      	lsls	r6, r6, #8
    1b18:	4031      	ands	r1, r6
    1b1a:	430c      	orrs	r4, r1
    1b1c:	46a1      	mov	r9, r4
    1b1e:	0e12      	lsrs	r2, r2, #24
    1b20:	0219      	lsls	r1, r3, #8
    1b22:	4311      	orrs	r1, r2
    1b24:	4688      	mov	r8, r1
    1b26:	21ff      	movs	r1, #255	; 0xff
    1b28:	468b      	mov	fp, r1
    1b2a:	4641      	mov	r1, r8
    1b2c:	465c      	mov	r4, fp
    1b2e:	4021      	ands	r1, r4
    1b30:	464c      	mov	r4, r9
    1b32:	4321      	orrs	r1, r4
    1b34:	9111      	str	r1, [sp, #68]	; 0x44
    1b36:	0a1c      	lsrs	r4, r3, #8
    1b38:	46a0      	mov	r8, r4
    1b3a:	061c      	lsls	r4, r3, #24
    1b3c:	432c      	orrs	r4, r5
    1b3e:	021b      	lsls	r3, r3, #8
    1b40:	431a      	orrs	r2, r3
    1b42:	403a      	ands	r2, r7
    1b44:	4314      	orrs	r4, r2
    1b46:	4645      	mov	r5, r8
    1b48:	4035      	ands	r5, r6
    1b4a:	432c      	orrs	r4, r5
    1b4c:	9410      	str	r4, [sp, #64]	; 0x40
    1b4e:	6882      	ldr	r2, [r0, #8]
    1b50:	68c3      	ldr	r3, [r0, #12]
    1b52:	0610      	lsls	r0, r2, #24
    1b54:	0e1d      	lsrs	r5, r3, #24
    1b56:	0214      	lsls	r4, r2, #8
    1b58:	403c      	ands	r4, r7
    1b5a:	4304      	orrs	r4, r0
    1b5c:	0a11      	lsrs	r1, r2, #8
    1b5e:	0618      	lsls	r0, r3, #24
    1b60:	4308      	orrs	r0, r1
    1b62:	4030      	ands	r0, r6
    1b64:	4304      	orrs	r4, r0
    1b66:	0e12      	lsrs	r2, r2, #24
    1b68:	0218      	lsls	r0, r3, #8
    1b6a:	4310      	orrs	r0, r2
    1b6c:	4659      	mov	r1, fp
    1b6e:	4008      	ands	r0, r1
    1b70:	4304      	orrs	r4, r0
    1b72:	9413      	str	r4, [sp, #76]	; 0x4c
    1b74:	0a1c      	lsrs	r4, r3, #8
    1b76:	0618      	lsls	r0, r3, #24
    1b78:	4305      	orrs	r5, r0
    1b7a:	021b      	lsls	r3, r3, #8
    1b7c:	431a      	orrs	r2, r3
    1b7e:	403a      	ands	r2, r7
    1b80:	432a      	orrs	r2, r5
    1b82:	4034      	ands	r4, r6
    1b84:	0015      	movs	r5, r2
    1b86:	4325      	orrs	r5, r4
    1b88:	9512      	str	r5, [sp, #72]	; 0x48
    1b8a:	4661      	mov	r1, ip
    1b8c:	680c      	ldr	r4, [r1, #0]
    1b8e:	684b      	ldr	r3, [r1, #4]
    1b90:	0625      	lsls	r5, r4, #24
    1b92:	0e1a      	lsrs	r2, r3, #24
    1b94:	0220      	lsls	r0, r4, #8
    1b96:	4038      	ands	r0, r7
    1b98:	4328      	orrs	r0, r5
    1b9a:	0a21      	lsrs	r1, r4, #8
    1b9c:	061d      	lsls	r5, r3, #24
    1b9e:	430d      	orrs	r5, r1
    1ba0:	4035      	ands	r5, r6
    1ba2:	4328      	orrs	r0, r5
    1ba4:	0e24      	lsrs	r4, r4, #24
    1ba6:	021d      	lsls	r5, r3, #8
    1ba8:	4325      	orrs	r5, r4
    1baa:	4659      	mov	r1, fp
    1bac:	400d      	ands	r5, r1
    1bae:	4328      	orrs	r0, r5
    1bb0:	0a1d      	lsrs	r5, r3, #8
    1bb2:	0619      	lsls	r1, r3, #24
    1bb4:	430a      	orrs	r2, r1
    1bb6:	021b      	lsls	r3, r3, #8
    1bb8:	431c      	orrs	r4, r3
    1bba:	403c      	ands	r4, r7
    1bbc:	4322      	orrs	r2, r4
    1bbe:	4035      	ands	r5, r6
    1bc0:	0011      	movs	r1, r2
    1bc2:	4329      	orrs	r1, r5
    1bc4:	468a      	mov	sl, r1
    1bc6:	4661      	mov	r1, ip
    1bc8:	688d      	ldr	r5, [r1, #8]
    1bca:	68cc      	ldr	r4, [r1, #12]
    1bcc:	062a      	lsls	r2, r5, #24
    1bce:	0e21      	lsrs	r1, r4, #24
    1bd0:	4688      	mov	r8, r1
    1bd2:	022b      	lsls	r3, r5, #8
    1bd4:	403b      	ands	r3, r7
    1bd6:	431a      	orrs	r2, r3
    1bd8:	0a29      	lsrs	r1, r5, #8
    1bda:	0623      	lsls	r3, r4, #24
    1bdc:	430b      	orrs	r3, r1
    1bde:	4033      	ands	r3, r6
    1be0:	4313      	orrs	r3, r2
    1be2:	0e2d      	lsrs	r5, r5, #24
    1be4:	0222      	lsls	r2, r4, #8
    1be6:	432a      	orrs	r2, r5
    1be8:	4659      	mov	r1, fp
    1bea:	4011      	ands	r1, r2
    1bec:	4319      	orrs	r1, r3
    1bee:	0a23      	lsrs	r3, r4, #8
    1bf0:	469c      	mov	ip, r3
    1bf2:	0623      	lsls	r3, r4, #24
    1bf4:	4642      	mov	r2, r8
    1bf6:	4313      	orrs	r3, r2
    1bf8:	0224      	lsls	r4, r4, #8
    1bfa:	4325      	orrs	r5, r4
    1bfc:	403d      	ands	r5, r7
    1bfe:	432b      	orrs	r3, r5
    1c00:	4667      	mov	r7, ip
    1c02:	403e      	ands	r6, r7
    1c04:	4333      	orrs	r3, r6
    1c06:	2600      	movs	r6, #0
    1c08:	46b0      	mov	r8, r6
    1c0a:	4e6f      	ldr	r6, [pc, #444]	; (1dc8 <rend_1362+0x66>)
    1c0c:	46b4      	mov	ip, r6
    1c0e:	9f10      	ldr	r7, [sp, #64]	; 0x40
    1c10:	9a11      	ldr	r2, [sp, #68]	; 0x44
    1c12:	4691      	mov	r9, r2
    1c14:	9d12      	ldr	r5, [sp, #72]	; 0x48
    1c16:	9c13      	ldr	r4, [sp, #76]	; 0x4c
    1c18:	4652      	mov	r2, sl
    1c1a:	26f0      	movs	r6, #240	; 0xf0
    1c1c:	9600      	str	r6, [sp, #0]
    1c1e:	4646      	mov	r6, r8
    1c20:	46c8      	mov	r8, r9
    1c22:	46a2      	mov	sl, r4
    1c24:	4683      	mov	fp, r0
    1c26:	4689      	mov	r9, r1
    1c28:	21f0      	movs	r1, #240	; 0xf0

00001c2a <rbegin_1362>:
    1c2a:	404d      	eors	r5, r1
    1c2c:	b402      	push	{r1}
    1c2e:	405e      	eors	r6, r3
    1c30:	4053      	eors	r3, r2
    1c32:	407d      	eors	r5, r7
    1c34:	43f0      	mvns	r0, r6
    1c36:	4318      	orrs	r0, r3
    1c38:	1c29      	adds	r1, r5, #0
    1c3a:	43b9      	bics	r1, r7
    1c3c:	404e      	eors	r6, r1
    1c3e:	43d9      	mvns	r1, r3
    1c40:	4311      	orrs	r1, r2
    1c42:	404d      	eors	r5, r1
    1c44:	1c39      	adds	r1, r7, #0
    1c46:	43b1      	bics	r1, r6
    1c48:	404b      	eors	r3, r1
    1c4a:	1c11      	adds	r1, r2, #0
    1c4c:	4029      	ands	r1, r5
    1c4e:	4079      	eors	r1, r7
    1c50:	4050      	eors	r0, r2
    1c52:	4068      	eors	r0, r5
    1c54:	4071      	eors	r1, r6
    1c56:	405e      	eors	r6, r3
    1c58:	4667      	mov	r7, ip
    1c5a:	4642      	mov	r2, r8
    1c5c:	46ac      	mov	ip, r5
    1c5e:	46b0      	mov	r8, r6
    1c60:	4656      	mov	r6, sl
    1c62:	465d      	mov	r5, fp
    1c64:	464c      	mov	r4, r9
    1c66:	4682      	mov	sl, r0
    1c68:	469b      	mov	fp, r3
    1c6a:	4067      	eors	r7, r4
    1c6c:	406c      	eors	r4, r5
    1c6e:	4056      	eors	r6, r2
    1c70:	43f8      	mvns	r0, r7
    1c72:	4320      	orrs	r0, r4
    1c74:	1c33      	adds	r3, r6, #0
    1c76:	4393      	bics	r3, r2
    1c78:	405f      	eors	r7, r3
    1c7a:	43e3      	mvns	r3, r4
    1c7c:	432b      	orrs	r3, r5
    1c7e:	405e      	eors	r6, r3
    1c80:	1c13      	adds	r3, r2, #0
    1c82:	43bb      	bics	r3, r7
    1c84:	405c      	eors	r4, r3
    1c86:	1c2b      	adds	r3, r5, #0
    1c88:	4033      	ands	r3, r6
    1c8a:	405a      	eors	r2, r3
    1c8c:	4045      	eors	r5, r0
    1c8e:	4075      	eors	r5, r6
    1c90:	407a      	eors	r2, r7
    1c92:	4067      	eors	r7, r4
    1c94:	46a9      	mov	r9, r5
    1c96:	4665      	mov	r5, ip
    1c98:	46bc      	mov	ip, r7
    1c9a:	09b3      	lsrs	r3, r6, #6
    1c9c:	06af      	lsls	r7, r5, #26
    1c9e:	09a8      	lsrs	r0, r5, #6
    1ca0:	407b      	eors	r3, r7
    1ca2:	06b7      	lsls	r7, r6, #26
    1ca4:	4078      	eors	r0, r7
    1ca6:	0877      	lsrs	r7, r6, #1
    1ca8:	407b      	eors	r3, r7
    1caa:	07ef      	lsls	r7, r5, #31
    1cac:	407b      	eors	r3, r7
    1cae:	086f      	lsrs	r7, r5, #1
    1cb0:	4078      	eors	r0, r7
    1cb2:	07f7      	lsls	r7, r6, #31
    1cb4:	4078      	eors	r0, r7
    1cb6:	405e      	eors	r6, r3
    1cb8:	4045      	eors	r5, r0
    1cba:	00d3      	lsls	r3, r2, #3
    1cbc:	0f4f      	lsrs	r7, r1, #29
    1cbe:	00c8      	lsls	r0, r1, #3
    1cc0:	407b      	eors	r3, r7
    1cc2:	0f57      	lsrs	r7, r2, #29
    1cc4:	4078      	eors	r0, r7
    1cc6:	0657      	lsls	r7, r2, #25
    1cc8:	407b      	eors	r3, r7
    1cca:	09cf      	lsrs	r7, r1, #7
    1ccc:	407b      	eors	r3, r7
    1cce:	064f      	lsls	r7, r1, #25
    1cd0:	4078      	eors	r0, r7
    1cd2:	09d7      	lsrs	r7, r2, #7
    1cd4:	4078      	eors	r0, r7
    1cd6:	405a      	eors	r2, r3
    1cd8:	4041      	eors	r1, r0
    1cda:	465b      	mov	r3, fp
    1cdc:	468b      	mov	fp, r1
    1cde:	05e1      	lsls	r1, r4, #23
    1ce0:	0a5f      	lsrs	r7, r3, #9
    1ce2:	05d8      	lsls	r0, r3, #23
    1ce4:	4079      	eors	r1, r7
    1ce6:	0a67      	lsrs	r7, r4, #9
    1ce8:	4078      	eors	r0, r7
    1cea:	09e7      	lsrs	r7, r4, #7
    1cec:	4079      	eors	r1, r7
    1cee:	065f      	lsls	r7, r3, #25
    1cf0:	4079      	eors	r1, r7
    1cf2:	09df      	lsrs	r7, r3, #7
    1cf4:	4078      	eors	r0, r7
    1cf6:	0667      	lsls	r7, r4, #25
    1cf8:	4078      	eors	r0, r7
    1cfa:	404c      	eors	r4, r1
    1cfc:	4043      	eors	r3, r0
    1cfe:	465f      	mov	r7, fp
    1d00:	4649      	mov	r1, r9
    1d02:	46a1      	mov	r9, r4
    1d04:	4693      	mov	fp, r2
    1d06:	4652      	mov	r2, sl
    1d08:	46b2      	mov	sl, r6
    1d0a:	0c4c      	lsrs	r4, r1, #17
    1d0c:	03d6      	lsls	r6, r2, #15
    1d0e:	0c50      	lsrs	r0, r2, #17
    1d10:	4074      	eors	r4, r6
    1d12:	03ce      	lsls	r6, r1, #15
    1d14:	4070      	eors	r0, r6
    1d16:	0a8e      	lsrs	r6, r1, #10
    1d18:	4074      	eors	r4, r6
    1d1a:	0596      	lsls	r6, r2, #22
    1d1c:	4074      	eors	r4, r6
    1d1e:	0a96      	lsrs	r6, r2, #10
    1d20:	4070      	eors	r0, r6
    1d22:	058e      	lsls	r6, r1, #22
    1d24:	4070      	eors	r0, r6
    1d26:	4061      	eors	r1, r4
    1d28:	4042      	eors	r2, r0
    1d2a:	4660      	mov	r0, ip
    1d2c:	4646      	mov	r6, r8
    1d2e:	469c      	mov	ip, r3
    1d30:	46d8      	mov	r8, fp
    1d32:	468b      	mov	fp, r1
    1d34:	0f03      	lsrs	r3, r0, #28
    1d36:	0131      	lsls	r1, r6, #4
    1d38:	0f34      	lsrs	r4, r6, #28
    1d3a:	404b      	eors	r3, r1
    1d3c:	0101      	lsls	r1, r0, #4
    1d3e:	404c      	eors	r4, r1
    1d40:	0cc1      	lsrs	r1, r0, #19
    1d42:	404b      	eors	r3, r1
    1d44:	0371      	lsls	r1, r6, #13
    1d46:	404b      	eors	r3, r1
    1d48:	0cf1      	lsrs	r1, r6, #19
    1d4a:	404c      	eors	r4, r1
    1d4c:	0341      	lsls	r1, r0, #13
    1d4e:	404c      	eors	r4, r1
    1d50:	bc02      	pop	{r1}
    1d52:	4058      	eors	r0, r3
    1d54:	4066      	eors	r6, r4
    1d56:	4663      	mov	r3, ip
    1d58:	4684      	mov	ip, r0
    1d5a:	390f      	subs	r1, #15
    1d5c:	293c      	cmp	r1, #60	; 0x3c
    1d5e:	d000      	beq.n	1d62 <rend_1362>
    1d60:	e763      	b.n	1c2a <rbegin_1362>

00001d62 <rend_1362>:
    1d62:	4649      	mov	r1, r9
    1d64:	4658      	mov	r0, fp
    1d66:	4654      	mov	r4, sl
    1d68:	46c1      	mov	r9, r8
    1d6a:	9618      	str	r6, [sp, #96]	; 0x60
    1d6c:	4666      	mov	r6, ip
    1d6e:	9619      	str	r6, [sp, #100]	; 0x64
    1d70:	971a      	str	r7, [sp, #104]	; 0x68
    1d72:	464e      	mov	r6, r9
    1d74:	961b      	str	r6, [sp, #108]	; 0x6c
    1d76:	951c      	str	r5, [sp, #112]	; 0x70
    1d78:	941d      	str	r4, [sp, #116]	; 0x74
    1d7a:	9e10      	ldr	r6, [sp, #64]	; 0x40
    1d7c:	4072      	eors	r2, r6
    1d7e:	921e      	str	r2, [sp, #120]	; 0x78
    1d80:	9e11      	ldr	r6, [sp, #68]	; 0x44
    1d82:	4070      	eors	r0, r6
    1d84:	901f      	str	r0, [sp, #124]	; 0x7c
    1d86:	9d12      	ldr	r5, [sp, #72]	; 0x48
    1d88:	406b      	eors	r3, r5
    1d8a:	9320      	str	r3, [sp, #128]	; 0x80
    1d8c:	9c13      	ldr	r4, [sp, #76]	; 0x4c
    1d8e:	4061      	eors	r1, r4
    1d90:	9121      	str	r1, [sp, #132]	; 0x84
    1d92:	9a15      	ldr	r2, [sp, #84]	; 0x54
    1d94:	920c      	str	r2, [sp, #48]	; 0x30
    1d96:	2200      	movs	r2, #0
    1d98:	920d      	str	r2, [sp, #52]	; 0x34
    1d9a:	9a0c      	ldr	r2, [sp, #48]	; 0x30
    1d9c:	9b0d      	ldr	r3, [sp, #52]	; 0x34
    1d9e:	2b00      	cmp	r3, #0
    1da0:	d001      	beq.n	1da6 <rend_1362+0x44>
    1da2:	f000 fb15 	bl	23d0 <rend_1990+0x96>
    1da6:	2a07      	cmp	r2, #7
    1da8:	d801      	bhi.n	1dae <rend_1362+0x4c>
    1daa:	f000 fb11 	bl	23d0 <rend_1990+0x96>
    1dae:	9202      	str	r2, [sp, #8]
    1db0:	9303      	str	r3, [sp, #12]
    1db2:	9a0f      	ldr	r2, [sp, #60]	; 0x3c
    1db4:	9b14      	ldr	r3, [sp, #80]	; 0x50
    1db6:	4698      	mov	r8, r3
    1db8:	23ff      	movs	r3, #255	; 0xff
    1dba:	021b      	lsls	r3, r3, #8
    1dbc:	9300      	str	r3, [sp, #0]
    1dbe:	9201      	str	r2, [sp, #4]
    1dc0:	4643      	mov	r3, r8
    1dc2:	9304      	str	r3, [sp, #16]
    1dc4:	e002      	b.n	1dcc <rend_1362+0x6a>
    1dc6:	46c0      	nop			; (mov r8, r8)
    1dc8:	80400c06 	.word	0x80400c06
    1dcc:	9b04      	ldr	r3, [sp, #16]
    1dce:	6818      	ldr	r0, [r3, #0]
    1dd0:	6859      	ldr	r1, [r3, #4]
    1dd2:	0603      	lsls	r3, r0, #24
    1dd4:	0e0a      	lsrs	r2, r1, #24
    1dd6:	0206      	lsls	r6, r0, #8
    1dd8:	24ff      	movs	r4, #255	; 0xff
    1dda:	0424      	lsls	r4, r4, #16
    1ddc:	4026      	ands	r6, r4
    1dde:	4333      	orrs	r3, r6
    1de0:	0a07      	lsrs	r7, r0, #8
    1de2:	060e      	lsls	r6, r1, #24
    1de4:	433e      	orrs	r6, r7
    1de6:	9d00      	ldr	r5, [sp, #0]
    1de8:	402e      	ands	r6, r5
    1dea:	4333      	orrs	r3, r6
    1dec:	0e00      	lsrs	r0, r0, #24
    1dee:	020e      	lsls	r6, r1, #8
    1df0:	4306      	orrs	r6, r0
    1df2:	24ff      	movs	r4, #255	; 0xff
    1df4:	4026      	ands	r6, r4
    1df6:	4333      	orrs	r3, r6
    1df8:	0a0e      	lsrs	r6, r1, #8
    1dfa:	060f      	lsls	r7, r1, #24
    1dfc:	433a      	orrs	r2, r7
    1dfe:	0209      	lsls	r1, r1, #8
    1e00:	4301      	orrs	r1, r0
    1e02:	20ff      	movs	r0, #255	; 0xff
    1e04:	0400      	lsls	r0, r0, #16
    1e06:	4001      	ands	r1, r0
    1e08:	430a      	orrs	r2, r1
    1e0a:	402e      	ands	r6, r5
    1e0c:	4332      	orrs	r2, r6
    1e0e:	9d18      	ldr	r5, [sp, #96]	; 0x60
    1e10:	4055      	eors	r5, r2
    1e12:	9919      	ldr	r1, [sp, #100]	; 0x64
    1e14:	4059      	eors	r1, r3
    1e16:	062f      	lsls	r7, r5, #24
    1e18:	0e0e      	lsrs	r6, r1, #24
    1e1a:	0228      	lsls	r0, r5, #8
    1e1c:	24ff      	movs	r4, #255	; 0xff
    1e1e:	0424      	lsls	r4, r4, #16
    1e20:	4020      	ands	r0, r4
    1e22:	4307      	orrs	r7, r0
    1e24:	0a28      	lsrs	r0, r5, #8
    1e26:	4680      	mov	r8, r0
    1e28:	0608      	lsls	r0, r1, #24
    1e2a:	4644      	mov	r4, r8
    1e2c:	4320      	orrs	r0, r4
    1e2e:	9c00      	ldr	r4, [sp, #0]
    1e30:	4020      	ands	r0, r4
    1e32:	4338      	orrs	r0, r7
    1e34:	0e2d      	lsrs	r5, r5, #24
    1e36:	020f      	lsls	r7, r1, #8
    1e38:	432f      	orrs	r7, r5
    1e3a:	24ff      	movs	r4, #255	; 0xff
    1e3c:	4027      	ands	r7, r4
    1e3e:	4338      	orrs	r0, r7
    1e40:	0a0f      	lsrs	r7, r1, #8
    1e42:	060c      	lsls	r4, r1, #24
    1e44:	4326      	orrs	r6, r4
    1e46:	0209      	lsls	r1, r1, #8
    1e48:	4329      	orrs	r1, r5
    1e4a:	24ff      	movs	r4, #255	; 0xff
    1e4c:	0424      	lsls	r4, r4, #16
    1e4e:	4021      	ands	r1, r4
    1e50:	4331      	orrs	r1, r6
    1e52:	9c00      	ldr	r4, [sp, #0]
    1e54:	4027      	ands	r7, r4
    1e56:	4339      	orrs	r1, r7
    1e58:	9c01      	ldr	r4, [sp, #4]
    1e5a:	6021      	str	r1, [r4, #0]
    1e5c:	6060      	str	r0, [r4, #4]
    1e5e:	991a      	ldr	r1, [sp, #104]	; 0x68
    1e60:	9105      	str	r1, [sp, #20]
    1e62:	991b      	ldr	r1, [sp, #108]	; 0x6c
    1e64:	9106      	str	r1, [sp, #24]
    1e66:	991c      	ldr	r1, [sp, #112]	; 0x70
    1e68:	9107      	str	r1, [sp, #28]
    1e6a:	991d      	ldr	r1, [sp, #116]	; 0x74
    1e6c:	9108      	str	r1, [sp, #32]
    1e6e:	991e      	ldr	r1, [sp, #120]	; 0x78
    1e70:	9109      	str	r1, [sp, #36]	; 0x24
    1e72:	991f      	ldr	r1, [sp, #124]	; 0x7c
    1e74:	910a      	str	r1, [sp, #40]	; 0x28
    1e76:	9920      	ldr	r1, [sp, #128]	; 0x80
    1e78:	910b      	str	r1, [sp, #44]	; 0x2c
    1e7a:	9921      	ldr	r1, [sp, #132]	; 0x84
    1e7c:	910e      	str	r1, [sp, #56]	; 0x38
    1e7e:	9905      	ldr	r1, [sp, #20]
    1e80:	468c      	mov	ip, r1
    1e82:	9f06      	ldr	r7, [sp, #24]
    1e84:	9907      	ldr	r1, [sp, #28]
    1e86:	4689      	mov	r9, r1
    1e88:	9e08      	ldr	r6, [sp, #32]
    1e8a:	9809      	ldr	r0, [sp, #36]	; 0x24
    1e8c:	4682      	mov	sl, r0
    1e8e:	980a      	ldr	r0, [sp, #40]	; 0x28
    1e90:	9d0b      	ldr	r5, [sp, #44]	; 0x2c
    1e92:	990e      	ldr	r1, [sp, #56]	; 0x38
    1e94:	2496      	movs	r4, #150	; 0x96
    1e96:	9405      	str	r4, [sp, #20]
    1e98:	4698      	mov	r8, r3
    1e9a:	4664      	mov	r4, ip
    1e9c:	46bc      	mov	ip, r7
    1e9e:	464b      	mov	r3, r9
    1ea0:	46b1      	mov	r9, r6
    1ea2:	4656      	mov	r6, sl
    1ea4:	4682      	mov	sl, r0
    1ea6:	468b      	mov	fp, r1
    1ea8:	2196      	movs	r1, #150	; 0x96

00001eaa <rbegin_1615>:
    1eaa:	404b      	eors	r3, r1
    1eac:	b402      	push	{r1}
    1eae:	406a      	eors	r2, r5
    1eb0:	4075      	eors	r5, r6
    1eb2:	4063      	eors	r3, r4
    1eb4:	43d0      	mvns	r0, r2
    1eb6:	4328      	orrs	r0, r5
    1eb8:	1c19      	adds	r1, r3, #0
    1eba:	43a1      	bics	r1, r4
    1ebc:	404a      	eors	r2, r1
    1ebe:	43e9      	mvns	r1, r5
    1ec0:	4331      	orrs	r1, r6
    1ec2:	404b      	eors	r3, r1
    1ec4:	1c21      	adds	r1, r4, #0
    1ec6:	4391      	bics	r1, r2
    1ec8:	404d      	eors	r5, r1
    1eca:	1c31      	adds	r1, r6, #0
    1ecc:	4019      	ands	r1, r3
    1ece:	4061      	eors	r1, r4
    1ed0:	4070      	eors	r0, r6
    1ed2:	4058      	eors	r0, r3
    1ed4:	4051      	eors	r1, r2
    1ed6:	406a      	eors	r2, r5
    1ed8:	4644      	mov	r4, r8
    1eda:	4666      	mov	r6, ip
    1edc:	4698      	mov	r8, r3
    1ede:	4694      	mov	ip, r2
    1ee0:	464a      	mov	r2, r9
    1ee2:	4653      	mov	r3, sl
    1ee4:	465f      	mov	r7, fp
    1ee6:	4681      	mov	r9, r0
    1ee8:	46aa      	mov	sl, r5
    1eea:	407c      	eors	r4, r7
    1eec:	405f      	eors	r7, r3
    1eee:	4072      	eors	r2, r6
    1ef0:	43e0      	mvns	r0, r4
    1ef2:	4338      	orrs	r0, r7
    1ef4:	1c15      	adds	r5, r2, #0
    1ef6:	43b5      	bics	r5, r6
    1ef8:	406c      	eors	r4, r5
    1efa:	43fd      	mvns	r5, r7
    1efc:	431d      	orrs	r5, r3
    1efe:	406a      	eors	r2, r5
    1f00:	1c35      	adds	r5, r6, #0
    1f02:	43a5      	bics	r5, r4
    1f04:	406f      	eors	r7, r5
    1f06:	1c1d      	adds	r5, r3, #0
    1f08:	4015      	ands	r5, r2
    1f0a:	406e      	eors	r6, r5
    1f0c:	4043      	eors	r3, r0
    1f0e:	4053      	eors	r3, r2
    1f10:	4066      	eors	r6, r4
    1f12:	407c      	eors	r4, r7
    1f14:	469b      	mov	fp, r3
    1f16:	4643      	mov	r3, r8
    1f18:	46a0      	mov	r8, r4
    1f1a:	0995      	lsrs	r5, r2, #6
    1f1c:	069c      	lsls	r4, r3, #26
    1f1e:	0998      	lsrs	r0, r3, #6
    1f20:	4065      	eors	r5, r4
    1f22:	0694      	lsls	r4, r2, #26
    1f24:	4060      	eors	r0, r4
    1f26:	0854      	lsrs	r4, r2, #1
    1f28:	4065      	eors	r5, r4
    1f2a:	07dc      	lsls	r4, r3, #31
    1f2c:	4065      	eors	r5, r4
    1f2e:	085c      	lsrs	r4, r3, #1
    1f30:	4060      	eors	r0, r4
    1f32:	07d4      	lsls	r4, r2, #31
    1f34:	4060      	eors	r0, r4
    1f36:	406a      	eors	r2, r5
    1f38:	4043      	eors	r3, r0
    1f3a:	00f5      	lsls	r5, r6, #3
    1f3c:	0f4c      	lsrs	r4, r1, #29
    1f3e:	00c8      	lsls	r0, r1, #3
    1f40:	4065      	eors	r5, r4
    1f42:	0f74      	lsrs	r4, r6, #29
    1f44:	4060      	eors	r0, r4
    1f46:	0674      	lsls	r4, r6, #25
    1f48:	4065      	eors	r5, r4
    1f4a:	09cc      	lsrs	r4, r1, #7
    1f4c:	4065      	eors	r5, r4
    1f4e:	064c      	lsls	r4, r1, #25
    1f50:	4060      	eors	r0, r4
    1f52:	09f4      	lsrs	r4, r6, #7
    1f54:	4060      	eors	r0, r4
    1f56:	406e      	eors	r6, r5
    1f58:	4041      	eors	r1, r0
    1f5a:	4655      	mov	r5, sl
    1f5c:	468a      	mov	sl, r1
    1f5e:	05f9      	lsls	r1, r7, #23
    1f60:	0a6c      	lsrs	r4, r5, #9
    1f62:	05e8      	lsls	r0, r5, #23
    1f64:	4061      	eors	r1, r4
    1f66:	0a7c      	lsrs	r4, r7, #9
    1f68:	4060      	eors	r0, r4
    1f6a:	09fc      	lsrs	r4, r7, #7
    1f6c:	4061      	eors	r1, r4
    1f6e:	066c      	lsls	r4, r5, #25
    1f70:	4061      	eors	r1, r4
    1f72:	09ec      	lsrs	r4, r5, #7
    1f74:	4060      	eors	r0, r4
    1f76:	067c      	lsls	r4, r7, #25
    1f78:	4060      	eors	r0, r4
    1f7a:	404f      	eors	r7, r1
    1f7c:	4045      	eors	r5, r0
    1f7e:	4654      	mov	r4, sl
    1f80:	4659      	mov	r1, fp
    1f82:	46bb      	mov	fp, r7
    1f84:	46b2      	mov	sl, r6
    1f86:	464e      	mov	r6, r9
    1f88:	4691      	mov	r9, r2
    1f8a:	0c4f      	lsrs	r7, r1, #17
    1f8c:	03f2      	lsls	r2, r6, #15
    1f8e:	0c70      	lsrs	r0, r6, #17
    1f90:	4057      	eors	r7, r2
    1f92:	03ca      	lsls	r2, r1, #15
    1f94:	4050      	eors	r0, r2
    1f96:	0a8a      	lsrs	r2, r1, #10
    1f98:	4057      	eors	r7, r2
    1f9a:	05b2      	lsls	r2, r6, #22
    1f9c:	4057      	eors	r7, r2
    1f9e:	0ab2      	lsrs	r2, r6, #10
    1fa0:	4050      	eors	r0, r2
    1fa2:	058a      	lsls	r2, r1, #22
    1fa4:	4050      	eors	r0, r2
    1fa6:	4079      	eors	r1, r7
    1fa8:	4046      	eors	r6, r0
    1faa:	4640      	mov	r0, r8
    1fac:	4662      	mov	r2, ip
    1fae:	46a8      	mov	r8, r5
    1fb0:	46d4      	mov	ip, sl
    1fb2:	468a      	mov	sl, r1
    1fb4:	0f05      	lsrs	r5, r0, #28
    1fb6:	0111      	lsls	r1, r2, #4
    1fb8:	0f17      	lsrs	r7, r2, #28
    1fba:	404d      	eors	r5, r1
    1fbc:	0101      	lsls	r1, r0, #4
    1fbe:	404f      	eors	r7, r1
    1fc0:	0cc1      	lsrs	r1, r0, #19
    1fc2:	404d      	eors	r5, r1
    1fc4:	0351      	lsls	r1, r2, #13
    1fc6:	404d      	eors	r5, r1
    1fc8:	0cd1      	lsrs	r1, r2, #19
    1fca:	404f      	eors	r7, r1
    1fcc:	0341      	lsls	r1, r0, #13
    1fce:	404f      	eors	r7, r1
    1fd0:	bc02      	pop	{r1}
    1fd2:	4068      	eors	r0, r5
    1fd4:	407a      	eors	r2, r7
    1fd6:	4645      	mov	r5, r8
    1fd8:	4680      	mov	r8, r0
    1fda:	390f      	subs	r1, #15
    1fdc:	293c      	cmp	r1, #60	; 0x3c
    1fde:	d000      	beq.n	1fe2 <rend_1615>
    1fe0:	e763      	b.n	1eaa <rbegin_1615>

00001fe2 <rend_1615>:
    1fe2:	4659      	mov	r1, fp
    1fe4:	4650      	mov	r0, sl
    1fe6:	46b2      	mov	sl, r6
    1fe8:	464e      	mov	r6, r9
    1fea:	4699      	mov	r9, r3
    1fec:	4667      	mov	r7, ip
    1fee:	4643      	mov	r3, r8
    1ff0:	9218      	str	r2, [sp, #96]	; 0x60
    1ff2:	9319      	str	r3, [sp, #100]	; 0x64
    1ff4:	941a      	str	r4, [sp, #104]	; 0x68
    1ff6:	971b      	str	r7, [sp, #108]	; 0x6c
    1ff8:	464b      	mov	r3, r9
    1ffa:	931c      	str	r3, [sp, #112]	; 0x70
    1ffc:	961d      	str	r6, [sp, #116]	; 0x74
    1ffe:	4653      	mov	r3, sl
    2000:	931e      	str	r3, [sp, #120]	; 0x78
    2002:	901f      	str	r0, [sp, #124]	; 0x7c
    2004:	9520      	str	r5, [sp, #128]	; 0x80
    2006:	9121      	str	r1, [sp, #132]	; 0x84
    2008:	2308      	movs	r3, #8
    200a:	469c      	mov	ip, r3
    200c:	9a01      	ldr	r2, [sp, #4]
    200e:	4462      	add	r2, ip
    2010:	9201      	str	r2, [sp, #4]
    2012:	9b04      	ldr	r3, [sp, #16]
    2014:	3308      	adds	r3, #8
    2016:	9304      	str	r3, [sp, #16]
    2018:	9a02      	ldr	r2, [sp, #8]
    201a:	9b03      	ldr	r3, [sp, #12]
    201c:	2008      	movs	r0, #8
    201e:	4240      	negs	r0, r0
    2020:	17c1      	asrs	r1, r0, #31
    2022:	1812      	adds	r2, r2, r0
    2024:	414b      	adcs	r3, r1
    2026:	9202      	str	r2, [sp, #8]
    2028:	9303      	str	r3, [sp, #12]
    202a:	2b00      	cmp	r3, #0
    202c:	d000      	beq.n	2030 <rend_1615+0x4e>
    202e:	e6cd      	b.n	1dcc <rend_1362+0x6a>
    2030:	9b02      	ldr	r3, [sp, #8]
    2032:	9c03      	ldr	r4, [sp, #12]
    2034:	2c00      	cmp	r4, #0
    2036:	d102      	bne.n	203e <rend_1615+0x5c>
    2038:	2b07      	cmp	r3, #7
    203a:	d900      	bls.n	203e <rend_1615+0x5c>
    203c:	e6c6      	b.n	1dcc <rend_1362+0x6a>
    203e:	2208      	movs	r2, #8
    2040:	4252      	negs	r2, r2
    2042:	17d3      	asrs	r3, r2, #31
    2044:	9c0c      	ldr	r4, [sp, #48]	; 0x30
    2046:	9d0d      	ldr	r5, [sp, #52]	; 0x34
    2048:	18a4      	adds	r4, r4, r2
    204a:	415d      	adcs	r5, r3
    204c:	0769      	lsls	r1, r5, #29
    204e:	08e0      	lsrs	r0, r4, #3
    2050:	4308      	orrs	r0, r1
    2052:	08e9      	lsrs	r1, r5, #3
    2054:	1c46      	adds	r6, r0, #1
    2056:	00f6      	lsls	r6, r6, #3
    2058:	9f0f      	ldr	r7, [sp, #60]	; 0x3c
    205a:	46bc      	mov	ip, r7
    205c:	44b4      	add	ip, r6
    205e:	4667      	mov	r7, ip
    2060:	970f      	str	r7, [sp, #60]	; 0x3c
    2062:	9f14      	ldr	r7, [sp, #80]	; 0x50
    2064:	46bc      	mov	ip, r7
    2066:	4466      	add	r6, ip
    2068:	4f58      	ldr	r7, [pc, #352]	; (21cc <rend_1615+0x1ea>)
    206a:	47b8      	blx	r7
    206c:	1900      	adds	r0, r0, r4
    206e:	4169      	adcs	r1, r5
    2070:	900c      	str	r0, [sp, #48]	; 0x30
    2072:	910d      	str	r1, [sp, #52]	; 0x34
    2074:	9b0c      	ldr	r3, [sp, #48]	; 0x30
    2076:	9c0d      	ldr	r4, [sp, #52]	; 0x34
    2078:	9300      	str	r3, [sp, #0]
    207a:	2207      	movs	r2, #7
    207c:	1ad2      	subs	r2, r2, r3
    207e:	00d2      	lsls	r2, r2, #3
    2080:	2320      	movs	r3, #32
    2082:	425b      	negs	r3, r3
    2084:	18d1      	adds	r1, r2, r3
    2086:	d500      	bpl.n	208a <rend_1615+0xa8>
    2088:	e1a4      	b.n	23d4 <rend_1990+0x9a>
    208a:	33a0      	adds	r3, #160	; 0xa0
    208c:	408b      	lsls	r3, r1
    208e:	2180      	movs	r1, #128	; 0x80
    2090:	4091      	lsls	r1, r2
    2092:	9a18      	ldr	r2, [sp, #96]	; 0x60
    2094:	4051      	eors	r1, r2
    2096:	9a19      	ldr	r2, [sp, #100]	; 0x64
    2098:	4053      	eors	r3, r2
    209a:	9118      	str	r1, [sp, #96]	; 0x60
    209c:	9319      	str	r3, [sp, #100]	; 0x64
    209e:	9c0c      	ldr	r4, [sp, #48]	; 0x30
    20a0:	9d0d      	ldr	r5, [sp, #52]	; 0x34
    20a2:	0020      	movs	r0, r4
    20a4:	4328      	orrs	r0, r5
    20a6:	d100      	bne.n	20aa <rend_1615+0xc8>
    20a8:	e092      	b.n	21d0 <rend_1615+0x1ee>
    20aa:	2208      	movs	r2, #8
    20ac:	9800      	ldr	r0, [sp, #0]
    20ae:	1a12      	subs	r2, r2, r0
    20b0:	00d2      	lsls	r2, r2, #3
    20b2:	2020      	movs	r0, #32
    20b4:	4240      	negs	r0, r0
    20b6:	1810      	adds	r0, r2, r0
    20b8:	d500      	bpl.n	20bc <rend_1615+0xda>
    20ba:	e190      	b.n	23de <rend_1990+0xa4>
    20bc:	2401      	movs	r4, #1
    20be:	4264      	negs	r4, r4
    20c0:	40c4      	lsrs	r4, r0
    20c2:	2701      	movs	r7, #1
    20c4:	427f      	negs	r7, r7
    20c6:	40d7      	lsrs	r7, r2
    20c8:	6830      	ldr	r0, [r6, #0]
    20ca:	4020      	ands	r0, r4
    20cc:	6872      	ldr	r2, [r6, #4]
    20ce:	403a      	ands	r2, r7
    20d0:	0605      	lsls	r5, r0, #24
    20d2:	46ab      	mov	fp, r5
    20d4:	0e15      	lsrs	r5, r2, #24
    20d6:	46aa      	mov	sl, r5
    20d8:	0205      	lsls	r5, r0, #8
    20da:	26ff      	movs	r6, #255	; 0xff
    20dc:	0436      	lsls	r6, r6, #16
    20de:	4035      	ands	r5, r6
    20e0:	465e      	mov	r6, fp
    20e2:	432e      	orrs	r6, r5
    20e4:	46b3      	mov	fp, r6
    20e6:	0a05      	lsrs	r5, r0, #8
    20e8:	0616      	lsls	r6, r2, #24
    20ea:	432e      	orrs	r6, r5
    20ec:	25ff      	movs	r5, #255	; 0xff
    20ee:	022d      	lsls	r5, r5, #8
    20f0:	402e      	ands	r6, r5
    20f2:	46b4      	mov	ip, r6
    20f4:	465e      	mov	r6, fp
    20f6:	4665      	mov	r5, ip
    20f8:	432e      	orrs	r6, r5
    20fa:	46b3      	mov	fp, r6
    20fc:	0e00      	lsrs	r0, r0, #24
    20fe:	0215      	lsls	r5, r2, #8
    2100:	002e      	movs	r6, r5
    2102:	4306      	orrs	r6, r0
    2104:	25ff      	movs	r5, #255	; 0xff
    2106:	46a9      	mov	r9, r5
    2108:	402e      	ands	r6, r5
    210a:	46b4      	mov	ip, r6
    210c:	465e      	mov	r6, fp
    210e:	4665      	mov	r5, ip
    2110:	432e      	orrs	r6, r5
    2112:	46b3      	mov	fp, r6
    2114:	0a15      	lsrs	r5, r2, #8
    2116:	46ac      	mov	ip, r5
    2118:	0615      	lsls	r5, r2, #24
    211a:	4656      	mov	r6, sl
    211c:	432e      	orrs	r6, r5
    211e:	0212      	lsls	r2, r2, #8
    2120:	4302      	orrs	r2, r0
    2122:	20ff      	movs	r0, #255	; 0xff
    2124:	0400      	lsls	r0, r0, #16
    2126:	4002      	ands	r2, r0
    2128:	4332      	orrs	r2, r6
    212a:	4660      	mov	r0, ip
    212c:	25ff      	movs	r5, #255	; 0xff
    212e:	022d      	lsls	r5, r5, #8
    2130:	4028      	ands	r0, r5
    2132:	4302      	orrs	r2, r0
    2134:	4051      	eors	r1, r2
    2136:	4658      	mov	r0, fp
    2138:	4043      	eors	r3, r0
    213a:	980f      	ldr	r0, [sp, #60]	; 0x3c
    213c:	6805      	ldr	r5, [r0, #0]
    213e:	002e      	movs	r6, r5
    2140:	43a6      	bics	r6, r4
    2142:	0034      	movs	r4, r6
    2144:	6845      	ldr	r5, [r0, #4]
    2146:	9501      	str	r5, [sp, #4]
    2148:	002e      	movs	r6, r5
    214a:	43be      	bics	r6, r7
    214c:	0608      	lsls	r0, r1, #24
    214e:	0e1d      	lsrs	r5, r3, #24
    2150:	432c      	orrs	r4, r5
    2152:	4330      	orrs	r0, r6
    2154:	020f      	lsls	r7, r1, #8
    2156:	25ff      	movs	r5, #255	; 0xff
    2158:	042d      	lsls	r5, r5, #16
    215a:	402f      	ands	r7, r5
    215c:	4338      	orrs	r0, r7
    215e:	0a0d      	lsrs	r5, r1, #8
    2160:	061f      	lsls	r7, r3, #24
    2162:	432f      	orrs	r7, r5
    2164:	25ff      	movs	r5, #255	; 0xff
    2166:	022d      	lsls	r5, r5, #8
    2168:	402f      	ands	r7, r5
    216a:	4338      	orrs	r0, r7
    216c:	0e0f      	lsrs	r7, r1, #24
    216e:	021d      	lsls	r5, r3, #8
    2170:	002e      	movs	r6, r5
    2172:	433e      	orrs	r6, r7
    2174:	46b4      	mov	ip, r6
    2176:	464e      	mov	r6, r9
    2178:	4665      	mov	r5, ip
    217a:	402e      	ands	r6, r5
    217c:	4330      	orrs	r0, r6
    217e:	0a1d      	lsrs	r5, r3, #8
    2180:	46ac      	mov	ip, r5
    2182:	061d      	lsls	r5, r3, #24
    2184:	432c      	orrs	r4, r5
    2186:	021d      	lsls	r5, r3, #8
    2188:	432f      	orrs	r7, r5
    218a:	25ff      	movs	r5, #255	; 0xff
    218c:	042d      	lsls	r5, r5, #16
    218e:	402f      	ands	r7, r5
    2190:	4327      	orrs	r7, r4
    2192:	4665      	mov	r5, ip
    2194:	24ff      	movs	r4, #255	; 0xff
    2196:	0224      	lsls	r4, r4, #8
    2198:	4025      	ands	r5, r4
    219a:	432f      	orrs	r7, r5
    219c:	9c0f      	ldr	r4, [sp, #60]	; 0x3c
    219e:	6027      	str	r7, [r4, #0]
    21a0:	6060      	str	r0, [r4, #4]
    21a2:	9800      	ldr	r0, [sp, #0]
    21a4:	00c4      	lsls	r4, r0, #3
    21a6:	2020      	movs	r0, #32
    21a8:	4240      	negs	r0, r0
    21aa:	1825      	adds	r5, r4, r0
    21ac:	d500      	bpl.n	21b0 <rend_1615+0x1ce>
    21ae:	e11f      	b.n	23f0 <rend_1990+0xb6>
    21b0:	301f      	adds	r0, #31
    21b2:	40e8      	lsrs	r0, r5
    21b4:	2501      	movs	r5, #1
    21b6:	426d      	negs	r5, r5
    21b8:	40e5      	lsrs	r5, r4
    21ba:	4001      	ands	r1, r0
    21bc:	402b      	ands	r3, r5
    21be:	404a      	eors	r2, r1
    21c0:	9218      	str	r2, [sp, #96]	; 0x60
    21c2:	465a      	mov	r2, fp
    21c4:	4053      	eors	r3, r2
    21c6:	9319      	str	r3, [sp, #100]	; 0x64
    21c8:	e002      	b.n	21d0 <rend_1615+0x1ee>
    21ca:	46c0      	nop			; (mov r8, r8)
    21cc:	00006e59 	.word	0x00006e59
    21d0:	9b1a      	ldr	r3, [sp, #104]	; 0x68
    21d2:	9a10      	ldr	r2, [sp, #64]	; 0x40
    21d4:	4053      	eors	r3, r2
    21d6:	991b      	ldr	r1, [sp, #108]	; 0x6c
    21d8:	9811      	ldr	r0, [sp, #68]	; 0x44
    21da:	4041      	eors	r1, r0
    21dc:	468c      	mov	ip, r1
    21de:	991c      	ldr	r1, [sp, #112]	; 0x70
    21e0:	9a12      	ldr	r2, [sp, #72]	; 0x48
    21e2:	404a      	eors	r2, r1
    21e4:	991d      	ldr	r1, [sp, #116]	; 0x74
    21e6:	9100      	str	r1, [sp, #0]
    21e8:	9f13      	ldr	r7, [sp, #76]	; 0x4c
    21ea:	404f      	eors	r7, r1
    21ec:	9919      	ldr	r1, [sp, #100]	; 0x64
    21ee:	4689      	mov	r9, r1
    21f0:	9d1e      	ldr	r5, [sp, #120]	; 0x78
    21f2:	9c1f      	ldr	r4, [sp, #124]	; 0x7c
    21f4:	9920      	ldr	r1, [sp, #128]	; 0x80
    21f6:	9e21      	ldr	r6, [sp, #132]	; 0x84
    21f8:	9818      	ldr	r0, [sp, #96]	; 0x60
    21fa:	46b8      	mov	r8, r7
    21fc:	46b2      	mov	sl, r6
    21fe:	26f0      	movs	r6, #240	; 0xf0
    2200:	46a3      	mov	fp, r4

00002202 <rbegin_1990>:
    2202:	4072      	eors	r2, r6
    2204:	b440      	push	{r6}
    2206:	4048      	eors	r0, r1
    2208:	4069      	eors	r1, r5
    220a:	405a      	eors	r2, r3
    220c:	43c7      	mvns	r7, r0
    220e:	430f      	orrs	r7, r1
    2210:	1c16      	adds	r6, r2, #0
    2212:	439e      	bics	r6, r3
    2214:	4070      	eors	r0, r6
    2216:	43ce      	mvns	r6, r1
    2218:	432e      	orrs	r6, r5
    221a:	4072      	eors	r2, r6
    221c:	1c1e      	adds	r6, r3, #0
    221e:	4386      	bics	r6, r0
    2220:	4071      	eors	r1, r6
    2222:	1c2e      	adds	r6, r5, #0
    2224:	4016      	ands	r6, r2
    2226:	405e      	eors	r6, r3
    2228:	406f      	eors	r7, r5
    222a:	4057      	eors	r7, r2
    222c:	4046      	eors	r6, r0
    222e:	4048      	eors	r0, r1
    2230:	464b      	mov	r3, r9
    2232:	4665      	mov	r5, ip
    2234:	4691      	mov	r9, r2
    2236:	4684      	mov	ip, r0
    2238:	4640      	mov	r0, r8
    223a:	465a      	mov	r2, fp
    223c:	4654      	mov	r4, sl
    223e:	46b8      	mov	r8, r7
    2240:	468b      	mov	fp, r1
    2242:	4063      	eors	r3, r4
    2244:	4054      	eors	r4, r2
    2246:	4068      	eors	r0, r5
    2248:	43df      	mvns	r7, r3
    224a:	4327      	orrs	r7, r4
    224c:	1c01      	adds	r1, r0, #0
    224e:	43a9      	bics	r1, r5
    2250:	404b      	eors	r3, r1
    2252:	43e1      	mvns	r1, r4
    2254:	4311      	orrs	r1, r2
    2256:	4048      	eors	r0, r1
    2258:	1c29      	adds	r1, r5, #0
    225a:	4399      	bics	r1, r3
    225c:	404c      	eors	r4, r1
    225e:	1c11      	adds	r1, r2, #0
    2260:	4001      	ands	r1, r0
    2262:	404d      	eors	r5, r1
    2264:	407a      	eors	r2, r7
    2266:	4042      	eors	r2, r0
    2268:	405d      	eors	r5, r3
    226a:	4063      	eors	r3, r4
    226c:	4692      	mov	sl, r2
    226e:	464a      	mov	r2, r9
    2270:	4699      	mov	r9, r3
    2272:	0981      	lsrs	r1, r0, #6
    2274:	0693      	lsls	r3, r2, #26
    2276:	0997      	lsrs	r7, r2, #6
    2278:	4059      	eors	r1, r3
    227a:	0683      	lsls	r3, r0, #26
    227c:	405f      	eors	r7, r3
    227e:	0843      	lsrs	r3, r0, #1
    2280:	4059      	eors	r1, r3
    2282:	07d3      	lsls	r3, r2, #31
    2284:	4059      	eors	r1, r3
    2286:	0853      	lsrs	r3, r2, #1
    2288:	405f      	eors	r7, r3
    228a:	07c3      	lsls	r3, r0, #31
    228c:	405f      	eors	r7, r3
    228e:	4048      	eors	r0, r1
    2290:	407a      	eors	r2, r7
    2292:	00e9      	lsls	r1, r5, #3
    2294:	0f73      	lsrs	r3, r6, #29
    2296:	00f7      	lsls	r7, r6, #3
    2298:	4059      	eors	r1, r3
    229a:	0f6b      	lsrs	r3, r5, #29
    229c:	405f      	eors	r7, r3
    229e:	066b      	lsls	r3, r5, #25
    22a0:	4059      	eors	r1, r3
    22a2:	09f3      	lsrs	r3, r6, #7
    22a4:	4059      	eors	r1, r3
    22a6:	0673      	lsls	r3, r6, #25
    22a8:	405f      	eors	r7, r3
    22aa:	09eb      	lsrs	r3, r5, #7
    22ac:	405f      	eors	r7, r3
    22ae:	404d      	eors	r5, r1
    22b0:	407e      	eors	r6, r7
    22b2:	4659      	mov	r1, fp
    22b4:	46b3      	mov	fp, r6
    22b6:	05e6      	lsls	r6, r4, #23
    22b8:	0a4b      	lsrs	r3, r1, #9
    22ba:	05cf      	lsls	r7, r1, #23
    22bc:	405e      	eors	r6, r3
    22be:	0a63      	lsrs	r3, r4, #9
    22c0:	405f      	eors	r7, r3
    22c2:	09e3      	lsrs	r3, r4, #7
    22c4:	405e      	eors	r6, r3
    22c6:	064b      	lsls	r3, r1, #25
    22c8:	405e      	eors	r6, r3
    22ca:	09cb      	lsrs	r3, r1, #7
    22cc:	405f      	eors	r7, r3
    22ce:	0663      	lsls	r3, r4, #25
    22d0:	405f      	eors	r7, r3
    22d2:	4074      	eors	r4, r6
    22d4:	4079      	eors	r1, r7
    22d6:	465b      	mov	r3, fp
    22d8:	4656      	mov	r6, sl
    22da:	46a2      	mov	sl, r4
    22dc:	46ab      	mov	fp, r5
    22de:	4645      	mov	r5, r8
    22e0:	4680      	mov	r8, r0
    22e2:	0c74      	lsrs	r4, r6, #17
    22e4:	03e8      	lsls	r0, r5, #15
    22e6:	0c6f      	lsrs	r7, r5, #17
    22e8:	4044      	eors	r4, r0
    22ea:	03f0      	lsls	r0, r6, #15
    22ec:	4047      	eors	r7, r0
    22ee:	0ab0      	lsrs	r0, r6, #10
    22f0:	4044      	eors	r4, r0
    22f2:	05a8      	lsls	r0, r5, #22
    22f4:	4044      	eors	r4, r0
    22f6:	0aa8      	lsrs	r0, r5, #10
    22f8:	4047      	eors	r7, r0
    22fa:	05b0      	lsls	r0, r6, #22
    22fc:	4047      	eors	r7, r0
    22fe:	4066      	eors	r6, r4
    2300:	407d      	eors	r5, r7
    2302:	464f      	mov	r7, r9
    2304:	4660      	mov	r0, ip
    2306:	4689      	mov	r9, r1
    2308:	46dc      	mov	ip, fp
    230a:	46b3      	mov	fp, r6
    230c:	0f39      	lsrs	r1, r7, #28
    230e:	0106      	lsls	r6, r0, #4
    2310:	0f04      	lsrs	r4, r0, #28
    2312:	4071      	eors	r1, r6
    2314:	013e      	lsls	r6, r7, #4
    2316:	4074      	eors	r4, r6
    2318:	0cfe      	lsrs	r6, r7, #19
    231a:	4071      	eors	r1, r6
    231c:	0346      	lsls	r6, r0, #13
    231e:	4071      	eors	r1, r6
    2320:	0cc6      	lsrs	r6, r0, #19
    2322:	4074      	eors	r4, r6
    2324:	037e      	lsls	r6, r7, #13
    2326:	4074      	eors	r4, r6
    2328:	bc40      	pop	{r6}
    232a:	404f      	eors	r7, r1
    232c:	4060      	eors	r0, r4
    232e:	4649      	mov	r1, r9
    2330:	46b9      	mov	r9, r7
    2332:	3e0f      	subs	r6, #15
    2334:	2e3c      	cmp	r6, #60	; 0x3c
    2336:	d000      	beq.n	233a <rend_1990>
    2338:	e763      	b.n	2202 <rbegin_1990>

0000233a <rend_1990>:
    233a:	465c      	mov	r4, fp
    233c:	9914      	ldr	r1, [sp, #80]	; 0x50
    233e:	9e15      	ldr	r6, [sp, #84]	; 0x54
    2340:	46b4      	mov	ip, r6
    2342:	4461      	add	r1, ip
    2344:	2208      	movs	r2, #8
    2346:	a816      	add	r0, sp, #88	; 0x58
    2348:	4b2f      	ldr	r3, [pc, #188]	; (2408 <rend_1990+0xce>)
    234a:	4798      	blx	r3
    234c:	9a16      	ldr	r2, [sp, #88]	; 0x58
    234e:	9817      	ldr	r0, [sp, #92]	; 0x5c
    2350:	0611      	lsls	r1, r2, #24
    2352:	0e03      	lsrs	r3, r0, #24
    2354:	0216      	lsls	r6, r2, #8
    2356:	27ff      	movs	r7, #255	; 0xff
    2358:	043f      	lsls	r7, r7, #16
    235a:	46bc      	mov	ip, r7
    235c:	403e      	ands	r6, r7
    235e:	4331      	orrs	r1, r6
    2360:	0a17      	lsrs	r7, r2, #8
    2362:	0606      	lsls	r6, r0, #24
    2364:	433e      	orrs	r6, r7
    2366:	27ff      	movs	r7, #255	; 0xff
    2368:	023f      	lsls	r7, r7, #8
    236a:	403e      	ands	r6, r7
    236c:	4331      	orrs	r1, r6
    236e:	0e16      	lsrs	r6, r2, #24
    2370:	46b0      	mov	r8, r6
    2372:	0206      	lsls	r6, r0, #8
    2374:	4642      	mov	r2, r8
    2376:	4316      	orrs	r6, r2
    2378:	22ff      	movs	r2, #255	; 0xff
    237a:	4016      	ands	r6, r2
    237c:	4331      	orrs	r1, r6
    237e:	468a      	mov	sl, r1
    2380:	0a06      	lsrs	r6, r0, #8
    2382:	0601      	lsls	r1, r0, #24
    2384:	430b      	orrs	r3, r1
    2386:	0200      	lsls	r0, r0, #8
    2388:	4641      	mov	r1, r8
    238a:	4308      	orrs	r0, r1
    238c:	4661      	mov	r1, ip
    238e:	4008      	ands	r0, r1
    2390:	4303      	orrs	r3, r0
    2392:	403e      	ands	r6, r7
    2394:	4333      	orrs	r3, r6
    2396:	405d      	eors	r5, r3
    2398:	4653      	mov	r3, sl
    239a:	405c      	eors	r4, r3
    239c:	9b10      	ldr	r3, [sp, #64]	; 0x40
    239e:	405d      	eors	r5, r3
    23a0:	9811      	ldr	r0, [sp, #68]	; 0x44
    23a2:	4044      	eors	r4, r0
    23a4:	4325      	orrs	r5, r4
    23a6:	0421      	lsls	r1, r4, #16
    23a8:	0c2b      	lsrs	r3, r5, #16
    23aa:	430b      	orrs	r3, r1
    23ac:	0c21      	lsrs	r1, r4, #16
    23ae:	431d      	orrs	r5, r3
    23b0:	430c      	orrs	r4, r1
    23b2:	0624      	lsls	r4, r4, #24
    23b4:	0a28      	lsrs	r0, r5, #8
    23b6:	4320      	orrs	r0, r4
    23b8:	4328      	orrs	r0, r5
    23ba:	4010      	ands	r0, r2
    23bc:	3801      	subs	r0, #1
    23be:	0fc0      	lsrs	r0, r0, #31
    23c0:	3801      	subs	r0, #1
    23c2:	b023      	add	sp, #140	; 0x8c
    23c4:	bc3c      	pop	{r2, r3, r4, r5}
    23c6:	4690      	mov	r8, r2
    23c8:	4699      	mov	r9, r3
    23ca:	46a2      	mov	sl, r4
    23cc:	46ab      	mov	fp, r5
    23ce:	bdf0      	pop	{r4, r5, r6, r7, pc}
    23d0:	9e14      	ldr	r6, [sp, #80]	; 0x50
    23d2:	e64f      	b.n	2074 <rend_1615+0x92>
    23d4:	2120      	movs	r1, #32
    23d6:	1a89      	subs	r1, r1, r2
    23d8:	2380      	movs	r3, #128	; 0x80
    23da:	40cb      	lsrs	r3, r1
    23dc:	e657      	b.n	208e <rend_1615+0xac>
    23de:	2020      	movs	r0, #32
    23e0:	1a80      	subs	r0, r0, r2
    23e2:	2401      	movs	r4, #1
    23e4:	4264      	negs	r4, r4
    23e6:	0025      	movs	r5, r4
    23e8:	4085      	lsls	r5, r0
    23ea:	40d4      	lsrs	r4, r2
    23ec:	432c      	orrs	r4, r5
    23ee:	e668      	b.n	20c2 <rend_1615+0xe0>
    23f0:	2520      	movs	r5, #32
    23f2:	1b2d      	subs	r5, r5, r4
    23f4:	2001      	movs	r0, #1
    23f6:	4240      	negs	r0, r0
    23f8:	0006      	movs	r6, r0
    23fa:	40ae      	lsls	r6, r5
    23fc:	40e0      	lsrs	r0, r4
    23fe:	4330      	orrs	r0, r6
    2400:	e6d8      	b.n	21b4 <rend_1615+0x1d2>
    2402:	2001      	movs	r0, #1
    2404:	4240      	negs	r0, r0
    2406:	e7dc      	b.n	23c2 <rend_1990+0x88>
    2408:	00006f53 	.word	0x00006f53

0000240c <cpu_irq_enter_critical>:
    240c:	4b0c      	ldr	r3, [pc, #48]	; (2440 <cpu_irq_enter_critical+0x34>)
    240e:	681b      	ldr	r3, [r3, #0]
    2410:	2b00      	cmp	r3, #0
    2412:	d106      	bne.n	2422 <cpu_irq_enter_critical+0x16>
    2414:	f3ef 8310 	mrs	r3, PRIMASK
    2418:	2b00      	cmp	r3, #0
    241a:	d007      	beq.n	242c <cpu_irq_enter_critical+0x20>
    241c:	2200      	movs	r2, #0
    241e:	4b09      	ldr	r3, [pc, #36]	; (2444 <cpu_irq_enter_critical+0x38>)
    2420:	701a      	strb	r2, [r3, #0]
    2422:	4a07      	ldr	r2, [pc, #28]	; (2440 <cpu_irq_enter_critical+0x34>)
    2424:	6813      	ldr	r3, [r2, #0]
    2426:	3301      	adds	r3, #1
    2428:	6013      	str	r3, [r2, #0]
    242a:	4770      	bx	lr
    242c:	b672      	cpsid	i
    242e:	f3bf 8f5f 	dmb	sy
    2432:	2200      	movs	r2, #0
    2434:	4b04      	ldr	r3, [pc, #16]	; (2448 <cpu_irq_enter_critical+0x3c>)
    2436:	701a      	strb	r2, [r3, #0]
    2438:	3201      	adds	r2, #1
    243a:	4b02      	ldr	r3, [pc, #8]	; (2444 <cpu_irq_enter_critical+0x38>)
    243c:	701a      	strb	r2, [r3, #0]
    243e:	e7f0      	b.n	2422 <cpu_irq_enter_critical+0x16>
    2440:	2000028c 	.word	0x2000028c
    2444:	20000290 	.word	0x20000290
    2448:	200000ec 	.word	0x200000ec

0000244c <cpu_irq_leave_critical>:
    244c:	4b08      	ldr	r3, [pc, #32]	; (2470 <cpu_irq_leave_critical+0x24>)
    244e:	681a      	ldr	r2, [r3, #0]
    2450:	3a01      	subs	r2, #1
    2452:	601a      	str	r2, [r3, #0]
    2454:	681b      	ldr	r3, [r3, #0]
    2456:	2b00      	cmp	r3, #0
    2458:	d109      	bne.n	246e <cpu_irq_leave_critical+0x22>
    245a:	4b06      	ldr	r3, [pc, #24]	; (2474 <cpu_irq_leave_critical+0x28>)
    245c:	781b      	ldrb	r3, [r3, #0]
    245e:	2b00      	cmp	r3, #0
    2460:	d005      	beq.n	246e <cpu_irq_leave_critical+0x22>
    2462:	2201      	movs	r2, #1
    2464:	4b04      	ldr	r3, [pc, #16]	; (2478 <cpu_irq_leave_critical+0x2c>)
    2466:	701a      	strb	r2, [r3, #0]
    2468:	f3bf 8f5f 	dmb	sy
    246c:	b662      	cpsie	i
    246e:	4770      	bx	lr
    2470:	2000028c 	.word	0x2000028c
    2474:	20000290 	.word	0x20000290
    2478:	200000ec 	.word	0x200000ec

0000247c <system_board_init>:
    247c:	b5f0      	push	{r4, r5, r6, r7, lr}
    247e:	b083      	sub	sp, #12
    2480:	ac01      	add	r4, sp, #4
    2482:	2501      	movs	r5, #1
    2484:	7065      	strb	r5, [r4, #1]
    2486:	2700      	movs	r7, #0
    2488:	70a7      	strb	r7, [r4, #2]
    248a:	7025      	strb	r5, [r4, #0]
    248c:	0021      	movs	r1, r4
    248e:	200f      	movs	r0, #15
    2490:	4e06      	ldr	r6, [pc, #24]	; (24ac <system_board_init+0x30>)
    2492:	47b0      	blx	r6
    2494:	2280      	movs	r2, #128	; 0x80
    2496:	0212      	lsls	r2, r2, #8
    2498:	2382      	movs	r3, #130	; 0x82
    249a:	05db      	lsls	r3, r3, #23
    249c:	619a      	str	r2, [r3, #24]
    249e:	7027      	strb	r7, [r4, #0]
    24a0:	7065      	strb	r5, [r4, #1]
    24a2:	0021      	movs	r1, r4
    24a4:	201c      	movs	r0, #28
    24a6:	47b0      	blx	r6
    24a8:	b003      	add	sp, #12
    24aa:	bdf0      	pop	{r4, r5, r6, r7, pc}
    24ac:	00002959 	.word	0x00002959

000024b0 <_can_enable_peripheral_clock>:
    24b0:	6803      	ldr	r3, [r0, #0]
    24b2:	4a0a      	ldr	r2, [pc, #40]	; (24dc <_can_enable_peripheral_clock+0x2c>)
    24b4:	4293      	cmp	r3, r2
    24b6:	d003      	beq.n	24c0 <_can_enable_peripheral_clock+0x10>
    24b8:	4a09      	ldr	r2, [pc, #36]	; (24e0 <_can_enable_peripheral_clock+0x30>)
    24ba:	4293      	cmp	r3, r2
    24bc:	d007      	beq.n	24ce <_can_enable_peripheral_clock+0x1e>
    24be:	4770      	bx	lr
    24c0:	4a08      	ldr	r2, [pc, #32]	; (24e4 <_can_enable_peripheral_clock+0x34>)
    24c2:	6911      	ldr	r1, [r2, #16]
    24c4:	2380      	movs	r3, #128	; 0x80
    24c6:	005b      	lsls	r3, r3, #1
    24c8:	430b      	orrs	r3, r1
    24ca:	6113      	str	r3, [r2, #16]
    24cc:	e7f7      	b.n	24be <_can_enable_peripheral_clock+0xe>
    24ce:	4a05      	ldr	r2, [pc, #20]	; (24e4 <_can_enable_peripheral_clock+0x34>)
    24d0:	6911      	ldr	r1, [r2, #16]
    24d2:	2380      	movs	r3, #128	; 0x80
    24d4:	009b      	lsls	r3, r3, #2
    24d6:	430b      	orrs	r3, r1
    24d8:	6113      	str	r3, [r2, #16]
    24da:	e7f0      	b.n	24be <_can_enable_peripheral_clock+0xe>
    24dc:	42001c00 	.word	0x42001c00
    24e0:	42002000 	.word	0x42002000
    24e4:	40000800 	.word	0x40000800

000024e8 <can_init>:
    24e8:	b570      	push	{r4, r5, r6, lr}
    24ea:	000c      	movs	r4, r1
    24ec:	0015      	movs	r5, r2
    24ee:	6001      	str	r1, [r0, #0]
    24f0:	4ba6      	ldr	r3, [pc, #664]	; (278c <can_init+0x2a4>)
    24f2:	4798      	blx	r3
    24f4:	4ba6      	ldr	r3, [pc, #664]	; (2790 <can_init+0x2a8>)
    24f6:	2200      	movs	r2, #0
    24f8:	701a      	strb	r2, [r3, #0]
    24fa:	782a      	ldrb	r2, [r5, #0]
    24fc:	701a      	strb	r2, [r3, #0]
    24fe:	4ba5      	ldr	r3, [pc, #660]	; (2794 <can_init+0x2ac>)
    2500:	429c      	cmp	r4, r3
    2502:	d100      	bne.n	2506 <can_init+0x1e>
    2504:	e0c7      	b.n	2696 <can_init+0x1ae>
    2506:	4ba4      	ldr	r3, [pc, #656]	; (2798 <can_init+0x2b0>)
    2508:	429c      	cmp	r4, r3
    250a:	d100      	bne.n	250e <can_init+0x26>
    250c:	e100      	b.n	2710 <can_init+0x228>
    250e:	69a3      	ldr	r3, [r4, #24]
    2510:	2202      	movs	r2, #2
    2512:	4313      	orrs	r3, r2
    2514:	61a3      	str	r3, [r4, #24]
    2516:	4aa1      	ldr	r2, [pc, #644]	; (279c <can_init+0x2b4>)
    2518:	23bc      	movs	r3, #188	; 0xbc
    251a:	50e2      	str	r2, [r4, r3]
    251c:	2207      	movs	r2, #7
    251e:	330c      	adds	r3, #12
    2520:	50e2      	str	r2, [r4, r3]
    2522:	4b9f      	ldr	r3, [pc, #636]	; (27a0 <can_init+0x2b8>)
    2524:	61e3      	str	r3, [r4, #28]
    2526:	4b9f      	ldr	r3, [pc, #636]	; (27a4 <can_init+0x2bc>)
    2528:	60e3      	str	r3, [r4, #12]
    252a:	7bab      	ldrb	r3, [r5, #14]
    252c:	2b00      	cmp	r3, #0
    252e:	d004      	beq.n	253a <can_init+0x52>
    2530:	68e2      	ldr	r2, [r4, #12]
    2532:	2380      	movs	r3, #128	; 0x80
    2534:	041b      	lsls	r3, r3, #16
    2536:	4313      	orrs	r3, r2
    2538:	60e3      	str	r3, [r4, #12]
    253a:	786b      	ldrb	r3, [r5, #1]
    253c:	2b00      	cmp	r3, #0
    253e:	d003      	beq.n	2548 <can_init+0x60>
    2540:	68a3      	ldr	r3, [r4, #8]
    2542:	2240      	movs	r2, #64	; 0x40
    2544:	4313      	orrs	r3, r2
    2546:	60a3      	str	r3, [r4, #8]
    2548:	6962      	ldr	r2, [r4, #20]
    254a:	78ab      	ldrb	r3, [r5, #2]
    254c:	4313      	orrs	r3, r2
    254e:	6163      	str	r3, [r4, #20]
    2550:	78eb      	ldrb	r3, [r5, #3]
    2552:	2b00      	cmp	r3, #0
    2554:	d004      	beq.n	2560 <can_init+0x78>
    2556:	69a2      	ldr	r2, [r4, #24]
    2558:	2380      	movs	r3, #128	; 0x80
    255a:	01db      	lsls	r3, r3, #7
    255c:	4313      	orrs	r3, r2
    255e:	61a3      	str	r3, [r4, #24]
    2560:	792b      	ldrb	r3, [r5, #4]
    2562:	2b00      	cmp	r3, #0
    2564:	d004      	beq.n	2570 <can_init+0x88>
    2566:	69a2      	ldr	r2, [r4, #24]
    2568:	2380      	movs	r3, #128	; 0x80
    256a:	019b      	lsls	r3, r3, #6
    256c:	4313      	orrs	r3, r2
    256e:	61a3      	str	r3, [r4, #24]
    2570:	796b      	ldrb	r3, [r5, #5]
    2572:	2b00      	cmp	r3, #0
    2574:	d004      	beq.n	2580 <can_init+0x98>
    2576:	69a2      	ldr	r2, [r4, #24]
    2578:	2380      	movs	r3, #128	; 0x80
    257a:	015b      	lsls	r3, r3, #5
    257c:	4313      	orrs	r3, r2
    257e:	61a3      	str	r3, [r4, #24]
    2580:	79ab      	ldrb	r3, [r5, #6]
    2582:	2b00      	cmp	r3, #0
    2584:	d103      	bne.n	258e <can_init+0xa6>
    2586:	69a3      	ldr	r3, [r4, #24]
    2588:	2240      	movs	r2, #64	; 0x40
    258a:	4313      	orrs	r3, r2
    258c:	61a3      	str	r3, [r4, #24]
    258e:	79eb      	ldrb	r3, [r5, #7]
    2590:	2b00      	cmp	r3, #0
    2592:	d003      	beq.n	259c <can_init+0xb4>
    2594:	69a3      	ldr	r3, [r4, #24]
    2596:	2210      	movs	r2, #16
    2598:	4313      	orrs	r3, r2
    259a:	61a3      	str	r3, [r4, #24]
    259c:	7a2b      	ldrb	r3, [r5, #8]
    259e:	2b00      	cmp	r3, #0
    25a0:	d003      	beq.n	25aa <can_init+0xc2>
    25a2:	69a3      	ldr	r3, [r4, #24]
    25a4:	2208      	movs	r2, #8
    25a6:	4313      	orrs	r3, r2
    25a8:	61a3      	str	r3, [r4, #24]
    25aa:	7a6b      	ldrb	r3, [r5, #9]
    25ac:	041b      	lsls	r3, r3, #16
    25ae:	22f0      	movs	r2, #240	; 0xf0
    25b0:	0312      	lsls	r2, r2, #12
    25b2:	4013      	ands	r3, r2
    25b4:	2201      	movs	r2, #1
    25b6:	4313      	orrs	r3, r2
    25b8:	6223      	str	r3, [r4, #32]
    25ba:	7b2b      	ldrb	r3, [r5, #12]
    25bc:	7b6a      	ldrb	r2, [r5, #13]
    25be:	4313      	orrs	r3, r2
    25c0:	896a      	ldrh	r2, [r5, #10]
    25c2:	0412      	lsls	r2, r2, #16
    25c4:	4313      	orrs	r3, r2
    25c6:	62a3      	str	r3, [r4, #40]	; 0x28
    25c8:	7beb      	ldrb	r3, [r5, #15]
    25ca:	021b      	lsls	r3, r3, #8
    25cc:	22fe      	movs	r2, #254	; 0xfe
    25ce:	01d2      	lsls	r2, r2, #7
    25d0:	4013      	ands	r3, r2
    25d2:	7c29      	ldrb	r1, [r5, #16]
    25d4:	227f      	movs	r2, #127	; 0x7f
    25d6:	400a      	ands	r2, r1
    25d8:	4313      	orrs	r3, r2
    25da:	64a3      	str	r3, [r4, #72]	; 0x48
    25dc:	7c6a      	ldrb	r2, [r5, #17]
    25de:	0112      	lsls	r2, r2, #4
    25e0:	2330      	movs	r3, #48	; 0x30
    25e2:	4013      	ands	r3, r2
    25e4:	7ca9      	ldrb	r1, [r5, #18]
    25e6:	0089      	lsls	r1, r1, #2
    25e8:	220c      	movs	r2, #12
    25ea:	400a      	ands	r2, r1
    25ec:	4313      	orrs	r3, r2
    25ee:	2280      	movs	r2, #128	; 0x80
    25f0:	50a3      	str	r3, [r4, r2]
    25f2:	7ceb      	ldrb	r3, [r5, #19]
    25f4:	2b00      	cmp	r3, #0
    25f6:	d003      	beq.n	2600 <can_init+0x118>
    25f8:	58a3      	ldr	r3, [r4, r2]
    25fa:	2102      	movs	r1, #2
    25fc:	430b      	orrs	r3, r1
    25fe:	50a3      	str	r3, [r4, r2]
    2600:	7d2b      	ldrb	r3, [r5, #20]
    2602:	2b00      	cmp	r3, #0
    2604:	d004      	beq.n	2610 <can_init+0x128>
    2606:	2280      	movs	r2, #128	; 0x80
    2608:	58a3      	ldr	r3, [r4, r2]
    260a:	2101      	movs	r1, #1
    260c:	430b      	orrs	r3, r1
    260e:	50a3      	str	r3, [r4, r2]
    2610:	2390      	movs	r3, #144	; 0x90
    2612:	69aa      	ldr	r2, [r5, #24]
    2614:	50e2      	str	r2, [r4, r3]
    2616:	7f2b      	ldrb	r3, [r5, #28]
    2618:	2b00      	cmp	r3, #0
    261a:	d005      	beq.n	2628 <can_init+0x140>
    261c:	22a0      	movs	r2, #160	; 0xa0
    261e:	58a1      	ldr	r1, [r4, r2]
    2620:	2380      	movs	r3, #128	; 0x80
    2622:	061b      	lsls	r3, r3, #24
    2624:	430b      	orrs	r3, r1
    2626:	50a3      	str	r3, [r4, r2]
    2628:	22a0      	movs	r2, #160	; 0xa0
    262a:	58a1      	ldr	r1, [r4, r2]
    262c:	7f6b      	ldrb	r3, [r5, #29]
    262e:	061b      	lsls	r3, r3, #24
    2630:	20fe      	movs	r0, #254	; 0xfe
    2632:	05c0      	lsls	r0, r0, #23
    2634:	4003      	ands	r3, r0
    2636:	430b      	orrs	r3, r1
    2638:	50a3      	str	r3, [r4, r2]
    263a:	7fab      	ldrb	r3, [r5, #30]
    263c:	2b00      	cmp	r3, #0
    263e:	d005      	beq.n	264c <can_init+0x164>
    2640:	3210      	adds	r2, #16
    2642:	58a1      	ldr	r1, [r4, r2]
    2644:	2380      	movs	r3, #128	; 0x80
    2646:	061b      	lsls	r3, r3, #24
    2648:	430b      	orrs	r3, r1
    264a:	50a3      	str	r3, [r4, r2]
    264c:	22b0      	movs	r2, #176	; 0xb0
    264e:	58a1      	ldr	r1, [r4, r2]
    2650:	7feb      	ldrb	r3, [r5, #31]
    2652:	061b      	lsls	r3, r3, #24
    2654:	20fe      	movs	r0, #254	; 0xfe
    2656:	05c0      	lsls	r0, r0, #23
    2658:	4003      	ands	r3, r0
    265a:	430b      	orrs	r3, r1
    265c:	50a3      	str	r3, [r4, r2]
    265e:	2320      	movs	r3, #32
    2660:	5ceb      	ldrb	r3, [r5, r3]
    2662:	2b00      	cmp	r3, #0
    2664:	d005      	beq.n	2672 <can_init+0x18a>
    2666:	3210      	adds	r2, #16
    2668:	58a1      	ldr	r1, [r4, r2]
    266a:	2380      	movs	r3, #128	; 0x80
    266c:	05db      	lsls	r3, r3, #23
    266e:	430b      	orrs	r3, r1
    2670:	50a3      	str	r3, [r4, r2]
    2672:	22f0      	movs	r2, #240	; 0xf0
    2674:	58a1      	ldr	r1, [r4, r2]
    2676:	2321      	movs	r3, #33	; 0x21
    2678:	5ceb      	ldrb	r3, [r5, r3]
    267a:	061b      	lsls	r3, r3, #24
    267c:	20fc      	movs	r0, #252	; 0xfc
    267e:	0580      	lsls	r0, r0, #22
    2680:	4003      	ands	r3, r0
    2682:	430b      	orrs	r3, r1
    2684:	50a3      	str	r3, [r4, r2]
    2686:	2303      	movs	r3, #3
    2688:	65e3      	str	r3, [r4, #92]	; 0x5c
    268a:	3b04      	subs	r3, #4
    268c:	3a10      	subs	r2, #16
    268e:	50a3      	str	r3, [r4, r2]
    2690:	3204      	adds	r2, #4
    2692:	50a3      	str	r3, [r4, r2]
    2694:	bd70      	pop	{r4, r5, r6, pc}
    2696:	493e      	ldr	r1, [pc, #248]	; (2790 <can_init+0x2a8>)
    2698:	201a      	movs	r0, #26
    269a:	4b43      	ldr	r3, [pc, #268]	; (27a8 <can_init+0x2c0>)
    269c:	4798      	blx	r3
    269e:	201a      	movs	r0, #26
    26a0:	4b42      	ldr	r3, [pc, #264]	; (27ac <can_init+0x2c4>)
    26a2:	4798      	blx	r3
    26a4:	4b3b      	ldr	r3, [pc, #236]	; (2794 <can_init+0x2ac>)
    26a6:	699a      	ldr	r2, [r3, #24]
    26a8:	2102      	movs	r1, #2
    26aa:	430a      	orrs	r2, r1
    26ac:	619a      	str	r2, [r3, #24]
    26ae:	4a40      	ldr	r2, [pc, #256]	; (27b0 <can_init+0x2c8>)
    26b0:	0412      	lsls	r2, r2, #16
    26b2:	0c12      	lsrs	r2, r2, #16
    26b4:	2180      	movs	r1, #128	; 0x80
    26b6:	0389      	lsls	r1, r1, #14
    26b8:	430a      	orrs	r2, r1
    26ba:	2184      	movs	r1, #132	; 0x84
    26bc:	505a      	str	r2, [r3, r1]
    26be:	4a3d      	ldr	r2, [pc, #244]	; (27b4 <can_init+0x2cc>)
    26c0:	0412      	lsls	r2, r2, #16
    26c2:	0c12      	lsrs	r2, r2, #16
    26c4:	2180      	movs	r1, #128	; 0x80
    26c6:	0349      	lsls	r1, r1, #13
    26c8:	430a      	orrs	r2, r1
    26ca:	2088      	movs	r0, #136	; 0x88
    26cc:	501a      	str	r2, [r3, r0]
    26ce:	4a3a      	ldr	r2, [pc, #232]	; (27b8 <can_init+0x2d0>)
    26d0:	0412      	lsls	r2, r2, #16
    26d2:	0c12      	lsrs	r2, r2, #16
    26d4:	430a      	orrs	r2, r1
    26d6:	3018      	adds	r0, #24
    26d8:	501a      	str	r2, [r3, r0]
    26da:	4a38      	ldr	r2, [pc, #224]	; (27bc <can_init+0x2d4>)
    26dc:	0412      	lsls	r2, r2, #16
    26de:	0c12      	lsrs	r2, r2, #16
    26e0:	4311      	orrs	r1, r2
    26e2:	22b0      	movs	r2, #176	; 0xb0
    26e4:	5099      	str	r1, [r3, r2]
    26e6:	4a36      	ldr	r2, [pc, #216]	; (27c0 <can_init+0x2d8>)
    26e8:	0412      	lsls	r2, r2, #16
    26ea:	0c12      	lsrs	r2, r2, #16
    26ec:	21ac      	movs	r1, #172	; 0xac
    26ee:	505a      	str	r2, [r3, r1]
    26f0:	4a34      	ldr	r2, [pc, #208]	; (27c4 <can_init+0x2dc>)
    26f2:	0412      	lsls	r2, r2, #16
    26f4:	0c12      	lsrs	r2, r2, #16
    26f6:	4934      	ldr	r1, [pc, #208]	; (27c8 <can_init+0x2e0>)
    26f8:	430a      	orrs	r2, r1
    26fa:	21c0      	movs	r1, #192	; 0xc0
    26fc:	505a      	str	r2, [r3, r1]
    26fe:	4a33      	ldr	r2, [pc, #204]	; (27cc <can_init+0x2e4>)
    2700:	0412      	lsls	r2, r2, #16
    2702:	0c12      	lsrs	r2, r2, #16
    2704:	2180      	movs	r1, #128	; 0x80
    2706:	0309      	lsls	r1, r1, #12
    2708:	430a      	orrs	r2, r1
    270a:	21f0      	movs	r1, #240	; 0xf0
    270c:	505a      	str	r2, [r3, r1]
    270e:	e702      	b.n	2516 <can_init+0x2e>
    2710:	491f      	ldr	r1, [pc, #124]	; (2790 <can_init+0x2a8>)
    2712:	201b      	movs	r0, #27
    2714:	4b24      	ldr	r3, [pc, #144]	; (27a8 <can_init+0x2c0>)
    2716:	4798      	blx	r3
    2718:	201b      	movs	r0, #27
    271a:	4b24      	ldr	r3, [pc, #144]	; (27ac <can_init+0x2c4>)
    271c:	4798      	blx	r3
    271e:	4b1e      	ldr	r3, [pc, #120]	; (2798 <can_init+0x2b0>)
    2720:	699a      	ldr	r2, [r3, #24]
    2722:	2102      	movs	r1, #2
    2724:	430a      	orrs	r2, r1
    2726:	619a      	str	r2, [r3, #24]
    2728:	4a29      	ldr	r2, [pc, #164]	; (27d0 <can_init+0x2e8>)
    272a:	0412      	lsls	r2, r2, #16
    272c:	0c12      	lsrs	r2, r2, #16
    272e:	2180      	movs	r1, #128	; 0x80
    2730:	0389      	lsls	r1, r1, #14
    2732:	430a      	orrs	r2, r1
    2734:	2184      	movs	r1, #132	; 0x84
    2736:	505a      	str	r2, [r3, r1]
    2738:	4a26      	ldr	r2, [pc, #152]	; (27d4 <can_init+0x2ec>)
    273a:	0412      	lsls	r2, r2, #16
    273c:	0c12      	lsrs	r2, r2, #16
    273e:	2180      	movs	r1, #128	; 0x80
    2740:	0349      	lsls	r1, r1, #13
    2742:	430a      	orrs	r2, r1
    2744:	2088      	movs	r0, #136	; 0x88
    2746:	501a      	str	r2, [r3, r0]
    2748:	4a23      	ldr	r2, [pc, #140]	; (27d8 <can_init+0x2f0>)
    274a:	0412      	lsls	r2, r2, #16
    274c:	0c12      	lsrs	r2, r2, #16
    274e:	430a      	orrs	r2, r1
    2750:	3018      	adds	r0, #24
    2752:	501a      	str	r2, [r3, r0]
    2754:	4a21      	ldr	r2, [pc, #132]	; (27dc <can_init+0x2f4>)
    2756:	0412      	lsls	r2, r2, #16
    2758:	0c12      	lsrs	r2, r2, #16
    275a:	4311      	orrs	r1, r2
    275c:	22b0      	movs	r2, #176	; 0xb0
    275e:	5099      	str	r1, [r3, r2]
    2760:	4a1f      	ldr	r2, [pc, #124]	; (27e0 <can_init+0x2f8>)
    2762:	0412      	lsls	r2, r2, #16
    2764:	0c12      	lsrs	r2, r2, #16
    2766:	21ac      	movs	r1, #172	; 0xac
    2768:	505a      	str	r2, [r3, r1]
    276a:	4a1e      	ldr	r2, [pc, #120]	; (27e4 <can_init+0x2fc>)
    276c:	0412      	lsls	r2, r2, #16
    276e:	0c12      	lsrs	r2, r2, #16
    2770:	4915      	ldr	r1, [pc, #84]	; (27c8 <can_init+0x2e0>)
    2772:	430a      	orrs	r2, r1
    2774:	21c0      	movs	r1, #192	; 0xc0
    2776:	505a      	str	r2, [r3, r1]
    2778:	4a1b      	ldr	r2, [pc, #108]	; (27e8 <can_init+0x300>)
    277a:	0412      	lsls	r2, r2, #16
    277c:	0c12      	lsrs	r2, r2, #16
    277e:	2180      	movs	r1, #128	; 0x80
    2780:	0309      	lsls	r1, r1, #12
    2782:	430a      	orrs	r2, r1
    2784:	21f0      	movs	r1, #240	; 0xf0
    2786:	505a      	str	r2, [r3, r1]
    2788:	e6c5      	b.n	2516 <can_init+0x2e>
    278a:	46c0      	nop			; (mov r8, r8)
    278c:	000024b1 	.word	0x000024b1
    2790:	20002b48 	.word	0x20002b48
    2794:	42001c00 	.word	0x42001c00
    2798:	42002000 	.word	0x42002000
    279c:	00000777 	.word	0x00000777
    27a0:	06050a03 	.word	0x06050a03
    27a4:	00000a33 	.word	0x00000a33
    27a8:	00003911 	.word	0x00003911
    27ac:	000038a1 	.word	0x000038a1
    27b0:	20001094 	.word	0x20001094
    27b4:	20000714 	.word	0x20000714
    27b8:	20000794 	.word	0x20000794
    27bc:	20000c14 	.word	0x20000c14
    27c0:	20000294 	.word	0x20000294
    27c4:	20001114 	.word	0x20001114
    27c8:	04040000 	.word	0x04040000
    27cc:	20001354 	.word	0x20001354
    27d0:	20002194 	.word	0x20002194
    27d4:	20001814 	.word	0x20001814
    27d8:	20001894 	.word	0x20001894
    27dc:	20001d14 	.word	0x20001d14
    27e0:	20001394 	.word	0x20001394
    27e4:	20002214 	.word	0x20002214
    27e8:	20002454 	.word	0x20002454

000027ec <can_start>:
    27ec:	6802      	ldr	r2, [r0, #0]
    27ee:	6993      	ldr	r3, [r2, #24]
    27f0:	2101      	movs	r1, #1
    27f2:	438b      	bics	r3, r1
    27f4:	6193      	str	r3, [r2, #24]
    27f6:	6801      	ldr	r1, [r0, #0]
    27f8:	2201      	movs	r2, #1
    27fa:	698b      	ldr	r3, [r1, #24]
    27fc:	421a      	tst	r2, r3
    27fe:	d1fc      	bne.n	27fa <can_start+0xe>
    2800:	4770      	bx	lr

00002802 <can_enable_fd_mode>:
    2802:	6802      	ldr	r2, [r0, #0]
    2804:	6993      	ldr	r3, [r2, #24]
    2806:	2101      	movs	r1, #1
    2808:	430b      	orrs	r3, r1
    280a:	6193      	str	r3, [r2, #24]
    280c:	6802      	ldr	r2, [r0, #0]
    280e:	6993      	ldr	r3, [r2, #24]
    2810:	4219      	tst	r1, r3
    2812:	d0fc      	beq.n	280e <can_enable_fd_mode+0xc>
    2814:	6993      	ldr	r3, [r2, #24]
    2816:	2102      	movs	r1, #2
    2818:	430b      	orrs	r3, r1
    281a:	6193      	str	r3, [r2, #24]
    281c:	6802      	ldr	r2, [r0, #0]
    281e:	6991      	ldr	r1, [r2, #24]
    2820:	2380      	movs	r3, #128	; 0x80
    2822:	005b      	lsls	r3, r3, #1
    2824:	430b      	orrs	r3, r1
    2826:	6193      	str	r3, [r2, #24]
    2828:	6802      	ldr	r2, [r0, #0]
    282a:	6991      	ldr	r1, [r2, #24]
    282c:	2380      	movs	r3, #128	; 0x80
    282e:	009b      	lsls	r3, r3, #2
    2830:	430b      	orrs	r3, r1
    2832:	6193      	str	r3, [r2, #24]
    2834:	4770      	bx	lr
	...

00002838 <can_set_rx_standard_filter>:
    2838:	b510      	push	{r4, lr}
    283a:	6803      	ldr	r3, [r0, #0]
    283c:	4809      	ldr	r0, [pc, #36]	; (2864 <can_set_rx_standard_filter+0x2c>)
    283e:	4283      	cmp	r3, r0
    2840:	d004      	beq.n	284c <can_set_rx_standard_filter+0x14>
    2842:	4c09      	ldr	r4, [pc, #36]	; (2868 <can_set_rx_standard_filter+0x30>)
    2844:	2017      	movs	r0, #23
    2846:	42a3      	cmp	r3, r4
    2848:	d006      	beq.n	2858 <can_set_rx_standard_filter+0x20>
    284a:	bd10      	pop	{r4, pc}
    284c:	6809      	ldr	r1, [r1, #0]
    284e:	0092      	lsls	r2, r2, #2
    2850:	4b06      	ldr	r3, [pc, #24]	; (286c <can_set_rx_standard_filter+0x34>)
    2852:	50d1      	str	r1, [r2, r3]
    2854:	2000      	movs	r0, #0
    2856:	e7f8      	b.n	284a <can_set_rx_standard_filter+0x12>
    2858:	6809      	ldr	r1, [r1, #0]
    285a:	0092      	lsls	r2, r2, #2
    285c:	4b04      	ldr	r3, [pc, #16]	; (2870 <can_set_rx_standard_filter+0x38>)
    285e:	50d1      	str	r1, [r2, r3]
    2860:	2000      	movs	r0, #0
    2862:	e7f2      	b.n	284a <can_set_rx_standard_filter+0x12>
    2864:	42001c00 	.word	0x42001c00
    2868:	42002000 	.word	0x42002000
    286c:	20001094 	.word	0x20001094
    2870:	20002194 	.word	0x20002194

00002874 <can_get_rx_buffer_element>:
    2874:	b510      	push	{r4, lr}
    2876:	000c      	movs	r4, r1
    2878:	6803      	ldr	r3, [r0, #0]
    287a:	490f      	ldr	r1, [pc, #60]	; (28b8 <can_get_rx_buffer_element+0x44>)
    287c:	428b      	cmp	r3, r1
    287e:	d004      	beq.n	288a <can_get_rx_buffer_element+0x16>
    2880:	490e      	ldr	r1, [pc, #56]	; (28bc <can_get_rx_buffer_element+0x48>)
    2882:	2017      	movs	r0, #23
    2884:	428b      	cmp	r3, r1
    2886:	d00b      	beq.n	28a0 <can_get_rx_buffer_element+0x2c>
    2888:	bd10      	pop	{r4, pc}
    288a:	00d1      	lsls	r1, r2, #3
    288c:	188a      	adds	r2, r1, r2
    288e:	00d2      	lsls	r2, r2, #3
    2890:	490b      	ldr	r1, [pc, #44]	; (28c0 <can_get_rx_buffer_element+0x4c>)
    2892:	1889      	adds	r1, r1, r2
    2894:	2248      	movs	r2, #72	; 0x48
    2896:	0020      	movs	r0, r4
    2898:	4b0a      	ldr	r3, [pc, #40]	; (28c4 <can_get_rx_buffer_element+0x50>)
    289a:	4798      	blx	r3
    289c:	2000      	movs	r0, #0
    289e:	e7f3      	b.n	2888 <can_get_rx_buffer_element+0x14>
    28a0:	00d1      	lsls	r1, r2, #3
    28a2:	188a      	adds	r2, r1, r2
    28a4:	00d2      	lsls	r2, r2, #3
    28a6:	4908      	ldr	r1, [pc, #32]	; (28c8 <can_get_rx_buffer_element+0x54>)
    28a8:	1889      	adds	r1, r1, r2
    28aa:	2248      	movs	r2, #72	; 0x48
    28ac:	0020      	movs	r0, r4
    28ae:	4b05      	ldr	r3, [pc, #20]	; (28c4 <can_get_rx_buffer_element+0x50>)
    28b0:	4798      	blx	r3
    28b2:	2000      	movs	r0, #0
    28b4:	e7e8      	b.n	2888 <can_get_rx_buffer_element+0x14>
    28b6:	46c0      	nop			; (mov r8, r8)
    28b8:	42001c00 	.word	0x42001c00
    28bc:	42002000 	.word	0x42002000
    28c0:	20000294 	.word	0x20000294
    28c4:	00006f53 	.word	0x00006f53
    28c8:	20001394 	.word	0x20001394

000028cc <can_set_tx_buffer_element>:
    28cc:	b530      	push	{r4, r5, lr}
    28ce:	6803      	ldr	r3, [r0, #0]
    28d0:	481d      	ldr	r0, [pc, #116]	; (2948 <can_set_tx_buffer_element+0x7c>)
    28d2:	4283      	cmp	r3, r0
    28d4:	d004      	beq.n	28e0 <can_set_tx_buffer_element+0x14>
    28d6:	4c1d      	ldr	r4, [pc, #116]	; (294c <can_set_tx_buffer_element+0x80>)
    28d8:	2017      	movs	r0, #23
    28da:	42a3      	cmp	r3, r4
    28dc:	d01a      	beq.n	2914 <can_set_tx_buffer_element+0x48>
    28de:	bd30      	pop	{r4, r5, pc}
    28e0:	680d      	ldr	r5, [r1, #0]
    28e2:	481b      	ldr	r0, [pc, #108]	; (2950 <can_set_tx_buffer_element+0x84>)
    28e4:	00d4      	lsls	r4, r2, #3
    28e6:	18a3      	adds	r3, r4, r2
    28e8:	00db      	lsls	r3, r3, #3
    28ea:	501d      	str	r5, [r3, r0]
    28ec:	684d      	ldr	r5, [r1, #4]
    28ee:	18a3      	adds	r3, r4, r2
    28f0:	00db      	lsls	r3, r3, #3
    28f2:	18c3      	adds	r3, r0, r3
    28f4:	605d      	str	r5, [r3, #4]
    28f6:	000b      	movs	r3, r1
    28f8:	3308      	adds	r3, #8
    28fa:	18a2      	adds	r2, r4, r2
    28fc:	00d2      	lsls	r2, r2, #3
    28fe:	3208      	adds	r2, #8
    2900:	1882      	adds	r2, r0, r2
    2902:	3148      	adds	r1, #72	; 0x48
    2904:	7818      	ldrb	r0, [r3, #0]
    2906:	7010      	strb	r0, [r2, #0]
    2908:	3301      	adds	r3, #1
    290a:	3201      	adds	r2, #1
    290c:	428b      	cmp	r3, r1
    290e:	d1f9      	bne.n	2904 <can_set_tx_buffer_element+0x38>
    2910:	2000      	movs	r0, #0
    2912:	e7e4      	b.n	28de <can_set_tx_buffer_element+0x12>
    2914:	680d      	ldr	r5, [r1, #0]
    2916:	480f      	ldr	r0, [pc, #60]	; (2954 <can_set_tx_buffer_element+0x88>)
    2918:	00d4      	lsls	r4, r2, #3
    291a:	18a3      	adds	r3, r4, r2
    291c:	00db      	lsls	r3, r3, #3
    291e:	501d      	str	r5, [r3, r0]
    2920:	684d      	ldr	r5, [r1, #4]
    2922:	18a3      	adds	r3, r4, r2
    2924:	00db      	lsls	r3, r3, #3
    2926:	18c3      	adds	r3, r0, r3
    2928:	605d      	str	r5, [r3, #4]
    292a:	000b      	movs	r3, r1
    292c:	3308      	adds	r3, #8
    292e:	18a2      	adds	r2, r4, r2
    2930:	00d2      	lsls	r2, r2, #3
    2932:	3208      	adds	r2, #8
    2934:	1882      	adds	r2, r0, r2
    2936:	3148      	adds	r1, #72	; 0x48
    2938:	7818      	ldrb	r0, [r3, #0]
    293a:	7010      	strb	r0, [r2, #0]
    293c:	3301      	adds	r3, #1
    293e:	3201      	adds	r2, #1
    2940:	428b      	cmp	r3, r1
    2942:	d1f9      	bne.n	2938 <can_set_tx_buffer_element+0x6c>
    2944:	2000      	movs	r0, #0
    2946:	e7ca      	b.n	28de <can_set_tx_buffer_element+0x12>
    2948:	42001c00 	.word	0x42001c00
    294c:	42002000 	.word	0x42002000
    2950:	20001114 	.word	0x20001114
    2954:	20002214 	.word	0x20002214

00002958 <port_pin_set_config>:
    2958:	b500      	push	{lr}
    295a:	b083      	sub	sp, #12
    295c:	ab01      	add	r3, sp, #4
    295e:	2280      	movs	r2, #128	; 0x80
    2960:	701a      	strb	r2, [r3, #0]
    2962:	780a      	ldrb	r2, [r1, #0]
    2964:	705a      	strb	r2, [r3, #1]
    2966:	784a      	ldrb	r2, [r1, #1]
    2968:	709a      	strb	r2, [r3, #2]
    296a:	788a      	ldrb	r2, [r1, #2]
    296c:	70da      	strb	r2, [r3, #3]
    296e:	0019      	movs	r1, r3
    2970:	4b01      	ldr	r3, [pc, #4]	; (2978 <port_pin_set_config+0x20>)
    2972:	4798      	blx	r3
    2974:	b003      	add	sp, #12
    2976:	bd00      	pop	{pc}
    2978:	00003a0d 	.word	0x00003a0d

0000297c <long_division>:
    297c:	b5f0      	push	{r4, r5, r6, r7, lr}
    297e:	46de      	mov	lr, fp
    2980:	4657      	mov	r7, sl
    2982:	464e      	mov	r6, r9
    2984:	4645      	mov	r5, r8
    2986:	b5e0      	push	{r5, r6, r7, lr}
    2988:	b087      	sub	sp, #28
    298a:	4680      	mov	r8, r0
    298c:	9104      	str	r1, [sp, #16]
    298e:	0016      	movs	r6, r2
    2990:	001f      	movs	r7, r3
    2992:	2200      	movs	r2, #0
    2994:	2300      	movs	r3, #0
    2996:	2100      	movs	r1, #0
    2998:	468b      	mov	fp, r1
    299a:	243f      	movs	r4, #63	; 0x3f
    299c:	2001      	movs	r0, #1
    299e:	0021      	movs	r1, r4
    29a0:	9600      	str	r6, [sp, #0]
    29a2:	9701      	str	r7, [sp, #4]
    29a4:	465c      	mov	r4, fp
    29a6:	9403      	str	r4, [sp, #12]
    29a8:	4644      	mov	r4, r8
    29aa:	9405      	str	r4, [sp, #20]
    29ac:	e013      	b.n	29d6 <long_division+0x5a>
    29ae:	2420      	movs	r4, #32
    29b0:	1a64      	subs	r4, r4, r1
    29b2:	0005      	movs	r5, r0
    29b4:	40e5      	lsrs	r5, r4
    29b6:	46a8      	mov	r8, r5
    29b8:	e014      	b.n	29e4 <long_division+0x68>
    29ba:	9c00      	ldr	r4, [sp, #0]
    29bc:	9d01      	ldr	r5, [sp, #4]
    29be:	1b12      	subs	r2, r2, r4
    29c0:	41ab      	sbcs	r3, r5
    29c2:	465c      	mov	r4, fp
    29c4:	464d      	mov	r5, r9
    29c6:	432c      	orrs	r4, r5
    29c8:	46a3      	mov	fp, r4
    29ca:	9c03      	ldr	r4, [sp, #12]
    29cc:	4645      	mov	r5, r8
    29ce:	432c      	orrs	r4, r5
    29d0:	9403      	str	r4, [sp, #12]
    29d2:	3901      	subs	r1, #1
    29d4:	d325      	bcc.n	2a22 <long_division+0xa6>
    29d6:	2420      	movs	r4, #32
    29d8:	4264      	negs	r4, r4
    29da:	190c      	adds	r4, r1, r4
    29dc:	d4e7      	bmi.n	29ae <long_division+0x32>
    29de:	0005      	movs	r5, r0
    29e0:	40a5      	lsls	r5, r4
    29e2:	46a8      	mov	r8, r5
    29e4:	0004      	movs	r4, r0
    29e6:	408c      	lsls	r4, r1
    29e8:	46a1      	mov	r9, r4
    29ea:	1892      	adds	r2, r2, r2
    29ec:	415b      	adcs	r3, r3
    29ee:	0014      	movs	r4, r2
    29f0:	001d      	movs	r5, r3
    29f2:	9e05      	ldr	r6, [sp, #20]
    29f4:	464f      	mov	r7, r9
    29f6:	403e      	ands	r6, r7
    29f8:	46b4      	mov	ip, r6
    29fa:	9e04      	ldr	r6, [sp, #16]
    29fc:	4647      	mov	r7, r8
    29fe:	403e      	ands	r6, r7
    2a00:	46b2      	mov	sl, r6
    2a02:	4666      	mov	r6, ip
    2a04:	4657      	mov	r7, sl
    2a06:	433e      	orrs	r6, r7
    2a08:	d003      	beq.n	2a12 <long_division+0x96>
    2a0a:	0006      	movs	r6, r0
    2a0c:	4326      	orrs	r6, r4
    2a0e:	0032      	movs	r2, r6
    2a10:	002b      	movs	r3, r5
    2a12:	9c00      	ldr	r4, [sp, #0]
    2a14:	9d01      	ldr	r5, [sp, #4]
    2a16:	429d      	cmp	r5, r3
    2a18:	d8db      	bhi.n	29d2 <long_division+0x56>
    2a1a:	d1ce      	bne.n	29ba <long_division+0x3e>
    2a1c:	4294      	cmp	r4, r2
    2a1e:	d8d8      	bhi.n	29d2 <long_division+0x56>
    2a20:	e7cb      	b.n	29ba <long_division+0x3e>
    2a22:	9b03      	ldr	r3, [sp, #12]
    2a24:	4658      	mov	r0, fp
    2a26:	0019      	movs	r1, r3
    2a28:	b007      	add	sp, #28
    2a2a:	bc3c      	pop	{r2, r3, r4, r5}
    2a2c:	4690      	mov	r8, r2
    2a2e:	4699      	mov	r9, r3
    2a30:	46a2      	mov	sl, r4
    2a32:	46ab      	mov	fp, r5
    2a34:	bdf0      	pop	{r4, r5, r6, r7, pc}

00002a36 <_sercom_get_sync_baud_val>:
    2a36:	b510      	push	{r4, lr}
    2a38:	0849      	lsrs	r1, r1, #1
    2a3a:	2340      	movs	r3, #64	; 0x40
    2a3c:	2400      	movs	r4, #0
    2a3e:	4281      	cmp	r1, r0
    2a40:	d202      	bcs.n	2a48 <_sercom_get_sync_baud_val+0x12>
    2a42:	0018      	movs	r0, r3
    2a44:	bd10      	pop	{r4, pc}
    2a46:	001c      	movs	r4, r3
    2a48:	1a09      	subs	r1, r1, r0
    2a4a:	1c63      	adds	r3, r4, #1
    2a4c:	b29b      	uxth	r3, r3
    2a4e:	4288      	cmp	r0, r1
    2a50:	d9f9      	bls.n	2a46 <_sercom_get_sync_baud_val+0x10>
    2a52:	2340      	movs	r3, #64	; 0x40
    2a54:	2cff      	cmp	r4, #255	; 0xff
    2a56:	d8f4      	bhi.n	2a42 <_sercom_get_sync_baud_val+0xc>
    2a58:	8014      	strh	r4, [r2, #0]
    2a5a:	2300      	movs	r3, #0
    2a5c:	e7f1      	b.n	2a42 <_sercom_get_sync_baud_val+0xc>
	...

00002a60 <_sercom_get_async_baud_val>:
    2a60:	b5f0      	push	{r4, r5, r6, r7, lr}
    2a62:	b083      	sub	sp, #12
    2a64:	000f      	movs	r7, r1
    2a66:	0016      	movs	r6, r2
    2a68:	aa08      	add	r2, sp, #32
    2a6a:	7811      	ldrb	r1, [r2, #0]
    2a6c:	0004      	movs	r4, r0
    2a6e:	434c      	muls	r4, r1
    2a70:	2240      	movs	r2, #64	; 0x40
    2a72:	42bc      	cmp	r4, r7
    2a74:	d902      	bls.n	2a7c <_sercom_get_async_baud_val+0x1c>
    2a76:	0010      	movs	r0, r2
    2a78:	b003      	add	sp, #12
    2a7a:	bdf0      	pop	{r4, r5, r6, r7, pc}
    2a7c:	2b00      	cmp	r3, #0
    2a7e:	d114      	bne.n	2aaa <_sercom_get_async_baud_val+0x4a>
    2a80:	0002      	movs	r2, r0
    2a82:	0008      	movs	r0, r1
    2a84:	2100      	movs	r1, #0
    2a86:	4c19      	ldr	r4, [pc, #100]	; (2aec <_sercom_get_async_baud_val+0x8c>)
    2a88:	47a0      	blx	r4
    2a8a:	0001      	movs	r1, r0
    2a8c:	003a      	movs	r2, r7
    2a8e:	2300      	movs	r3, #0
    2a90:	2000      	movs	r0, #0
    2a92:	4c17      	ldr	r4, [pc, #92]	; (2af0 <_sercom_get_async_baud_val+0x90>)
    2a94:	47a0      	blx	r4
    2a96:	2200      	movs	r2, #0
    2a98:	2301      	movs	r3, #1
    2a9a:	1a12      	subs	r2, r2, r0
    2a9c:	418b      	sbcs	r3, r1
    2a9e:	0c12      	lsrs	r2, r2, #16
    2aa0:	041b      	lsls	r3, r3, #16
    2aa2:	431a      	orrs	r2, r3
    2aa4:	8032      	strh	r2, [r6, #0]
    2aa6:	2200      	movs	r2, #0
    2aa8:	e7e5      	b.n	2a76 <_sercom_get_async_baud_val+0x16>
    2aaa:	2200      	movs	r2, #0
    2aac:	2b01      	cmp	r3, #1
    2aae:	d1f9      	bne.n	2aa4 <_sercom_get_async_baud_val+0x44>
    2ab0:	000a      	movs	r2, r1
    2ab2:	2300      	movs	r3, #0
    2ab4:	2100      	movs	r1, #0
    2ab6:	4c0d      	ldr	r4, [pc, #52]	; (2aec <_sercom_get_async_baud_val+0x8c>)
    2ab8:	47a0      	blx	r4
    2aba:	0002      	movs	r2, r0
    2abc:	000b      	movs	r3, r1
    2abe:	9200      	str	r2, [sp, #0]
    2ac0:	9301      	str	r3, [sp, #4]
    2ac2:	0038      	movs	r0, r7
    2ac4:	2100      	movs	r1, #0
    2ac6:	4c0a      	ldr	r4, [pc, #40]	; (2af0 <_sercom_get_async_baud_val+0x90>)
    2ac8:	47a0      	blx	r4
    2aca:	0005      	movs	r5, r0
    2acc:	2380      	movs	r3, #128	; 0x80
    2ace:	019b      	lsls	r3, r3, #6
    2ad0:	2240      	movs	r2, #64	; 0x40
    2ad2:	4298      	cmp	r0, r3
    2ad4:	d8cf      	bhi.n	2a76 <_sercom_get_async_baud_val+0x16>
    2ad6:	0f79      	lsrs	r1, r7, #29
    2ad8:	00f8      	lsls	r0, r7, #3
    2ada:	9a00      	ldr	r2, [sp, #0]
    2adc:	9b01      	ldr	r3, [sp, #4]
    2ade:	47a0      	blx	r4
    2ae0:	00ea      	lsls	r2, r5, #3
    2ae2:	1a82      	subs	r2, r0, r2
    2ae4:	b2d2      	uxtb	r2, r2
    2ae6:	0352      	lsls	r2, r2, #13
    2ae8:	432a      	orrs	r2, r5
    2aea:	e7db      	b.n	2aa4 <_sercom_get_async_baud_val+0x44>
    2aec:	00006e59 	.word	0x00006e59
    2af0:	0000297d 	.word	0x0000297d

00002af4 <sercom_set_gclk_generator>:
    2af4:	b510      	push	{r4, lr}
    2af6:	b082      	sub	sp, #8
    2af8:	0004      	movs	r4, r0
    2afa:	4b0e      	ldr	r3, [pc, #56]	; (2b34 <sercom_set_gclk_generator+0x40>)
    2afc:	781b      	ldrb	r3, [r3, #0]
    2afe:	2b00      	cmp	r3, #0
    2b00:	d007      	beq.n	2b12 <sercom_set_gclk_generator+0x1e>
    2b02:	2900      	cmp	r1, #0
    2b04:	d105      	bne.n	2b12 <sercom_set_gclk_generator+0x1e>
    2b06:	4b0b      	ldr	r3, [pc, #44]	; (2b34 <sercom_set_gclk_generator+0x40>)
    2b08:	785b      	ldrb	r3, [r3, #1]
    2b0a:	4283      	cmp	r3, r0
    2b0c:	d010      	beq.n	2b30 <sercom_set_gclk_generator+0x3c>
    2b0e:	201d      	movs	r0, #29
    2b10:	e00c      	b.n	2b2c <sercom_set_gclk_generator+0x38>
    2b12:	a901      	add	r1, sp, #4
    2b14:	700c      	strb	r4, [r1, #0]
    2b16:	2012      	movs	r0, #18
    2b18:	4b07      	ldr	r3, [pc, #28]	; (2b38 <sercom_set_gclk_generator+0x44>)
    2b1a:	4798      	blx	r3
    2b1c:	2012      	movs	r0, #18
    2b1e:	4b07      	ldr	r3, [pc, #28]	; (2b3c <sercom_set_gclk_generator+0x48>)
    2b20:	4798      	blx	r3
    2b22:	4b04      	ldr	r3, [pc, #16]	; (2b34 <sercom_set_gclk_generator+0x40>)
    2b24:	705c      	strb	r4, [r3, #1]
    2b26:	2201      	movs	r2, #1
    2b28:	701a      	strb	r2, [r3, #0]
    2b2a:	2000      	movs	r0, #0
    2b2c:	b002      	add	sp, #8
    2b2e:	bd10      	pop	{r4, pc}
    2b30:	2000      	movs	r0, #0
    2b32:	e7fb      	b.n	2b2c <sercom_set_gclk_generator+0x38>
    2b34:	20002494 	.word	0x20002494
    2b38:	00003911 	.word	0x00003911
    2b3c:	000038a1 	.word	0x000038a1

00002b40 <_sercom_get_default_pad>:
    2b40:	4b40      	ldr	r3, [pc, #256]	; (2c44 <_sercom_get_default_pad+0x104>)
    2b42:	4298      	cmp	r0, r3
    2b44:	d031      	beq.n	2baa <_sercom_get_default_pad+0x6a>
    2b46:	d90a      	bls.n	2b5e <_sercom_get_default_pad+0x1e>
    2b48:	4b3f      	ldr	r3, [pc, #252]	; (2c48 <_sercom_get_default_pad+0x108>)
    2b4a:	4298      	cmp	r0, r3
    2b4c:	d04d      	beq.n	2bea <_sercom_get_default_pad+0xaa>
    2b4e:	4b3f      	ldr	r3, [pc, #252]	; (2c4c <_sercom_get_default_pad+0x10c>)
    2b50:	4298      	cmp	r0, r3
    2b52:	d05a      	beq.n	2c0a <_sercom_get_default_pad+0xca>
    2b54:	4b3e      	ldr	r3, [pc, #248]	; (2c50 <_sercom_get_default_pad+0x110>)
    2b56:	4298      	cmp	r0, r3
    2b58:	d037      	beq.n	2bca <_sercom_get_default_pad+0x8a>
    2b5a:	2000      	movs	r0, #0
    2b5c:	4770      	bx	lr
    2b5e:	4b3d      	ldr	r3, [pc, #244]	; (2c54 <_sercom_get_default_pad+0x114>)
    2b60:	4298      	cmp	r0, r3
    2b62:	d00c      	beq.n	2b7e <_sercom_get_default_pad+0x3e>
    2b64:	4b3c      	ldr	r3, [pc, #240]	; (2c58 <_sercom_get_default_pad+0x118>)
    2b66:	4298      	cmp	r0, r3
    2b68:	d1f7      	bne.n	2b5a <_sercom_get_default_pad+0x1a>
    2b6a:	2901      	cmp	r1, #1
    2b6c:	d017      	beq.n	2b9e <_sercom_get_default_pad+0x5e>
    2b6e:	2900      	cmp	r1, #0
    2b70:	d05d      	beq.n	2c2e <_sercom_get_default_pad+0xee>
    2b72:	2902      	cmp	r1, #2
    2b74:	d015      	beq.n	2ba2 <_sercom_get_default_pad+0x62>
    2b76:	2903      	cmp	r1, #3
    2b78:	d015      	beq.n	2ba6 <_sercom_get_default_pad+0x66>
    2b7a:	2000      	movs	r0, #0
    2b7c:	e7ee      	b.n	2b5c <_sercom_get_default_pad+0x1c>
    2b7e:	2901      	cmp	r1, #1
    2b80:	d007      	beq.n	2b92 <_sercom_get_default_pad+0x52>
    2b82:	2900      	cmp	r1, #0
    2b84:	d051      	beq.n	2c2a <_sercom_get_default_pad+0xea>
    2b86:	2902      	cmp	r1, #2
    2b88:	d005      	beq.n	2b96 <_sercom_get_default_pad+0x56>
    2b8a:	2903      	cmp	r1, #3
    2b8c:	d005      	beq.n	2b9a <_sercom_get_default_pad+0x5a>
    2b8e:	2000      	movs	r0, #0
    2b90:	e7e4      	b.n	2b5c <_sercom_get_default_pad+0x1c>
    2b92:	4832      	ldr	r0, [pc, #200]	; (2c5c <_sercom_get_default_pad+0x11c>)
    2b94:	e7e2      	b.n	2b5c <_sercom_get_default_pad+0x1c>
    2b96:	4832      	ldr	r0, [pc, #200]	; (2c60 <_sercom_get_default_pad+0x120>)
    2b98:	e7e0      	b.n	2b5c <_sercom_get_default_pad+0x1c>
    2b9a:	4832      	ldr	r0, [pc, #200]	; (2c64 <_sercom_get_default_pad+0x124>)
    2b9c:	e7de      	b.n	2b5c <_sercom_get_default_pad+0x1c>
    2b9e:	4832      	ldr	r0, [pc, #200]	; (2c68 <_sercom_get_default_pad+0x128>)
    2ba0:	e7dc      	b.n	2b5c <_sercom_get_default_pad+0x1c>
    2ba2:	4832      	ldr	r0, [pc, #200]	; (2c6c <_sercom_get_default_pad+0x12c>)
    2ba4:	e7da      	b.n	2b5c <_sercom_get_default_pad+0x1c>
    2ba6:	4832      	ldr	r0, [pc, #200]	; (2c70 <_sercom_get_default_pad+0x130>)
    2ba8:	e7d8      	b.n	2b5c <_sercom_get_default_pad+0x1c>
    2baa:	2901      	cmp	r1, #1
    2bac:	d007      	beq.n	2bbe <_sercom_get_default_pad+0x7e>
    2bae:	2900      	cmp	r1, #0
    2bb0:	d03f      	beq.n	2c32 <_sercom_get_default_pad+0xf2>
    2bb2:	2902      	cmp	r1, #2
    2bb4:	d005      	beq.n	2bc2 <_sercom_get_default_pad+0x82>
    2bb6:	2903      	cmp	r1, #3
    2bb8:	d005      	beq.n	2bc6 <_sercom_get_default_pad+0x86>
    2bba:	2000      	movs	r0, #0
    2bbc:	e7ce      	b.n	2b5c <_sercom_get_default_pad+0x1c>
    2bbe:	482d      	ldr	r0, [pc, #180]	; (2c74 <_sercom_get_default_pad+0x134>)
    2bc0:	e7cc      	b.n	2b5c <_sercom_get_default_pad+0x1c>
    2bc2:	482d      	ldr	r0, [pc, #180]	; (2c78 <_sercom_get_default_pad+0x138>)
    2bc4:	e7ca      	b.n	2b5c <_sercom_get_default_pad+0x1c>
    2bc6:	482d      	ldr	r0, [pc, #180]	; (2c7c <_sercom_get_default_pad+0x13c>)
    2bc8:	e7c8      	b.n	2b5c <_sercom_get_default_pad+0x1c>
    2bca:	2901      	cmp	r1, #1
    2bcc:	d007      	beq.n	2bde <_sercom_get_default_pad+0x9e>
    2bce:	2900      	cmp	r1, #0
    2bd0:	d031      	beq.n	2c36 <_sercom_get_default_pad+0xf6>
    2bd2:	2902      	cmp	r1, #2
    2bd4:	d005      	beq.n	2be2 <_sercom_get_default_pad+0xa2>
    2bd6:	2903      	cmp	r1, #3
    2bd8:	d005      	beq.n	2be6 <_sercom_get_default_pad+0xa6>
    2bda:	2000      	movs	r0, #0
    2bdc:	e7be      	b.n	2b5c <_sercom_get_default_pad+0x1c>
    2bde:	4828      	ldr	r0, [pc, #160]	; (2c80 <_sercom_get_default_pad+0x140>)
    2be0:	e7bc      	b.n	2b5c <_sercom_get_default_pad+0x1c>
    2be2:	4828      	ldr	r0, [pc, #160]	; (2c84 <_sercom_get_default_pad+0x144>)
    2be4:	e7ba      	b.n	2b5c <_sercom_get_default_pad+0x1c>
    2be6:	4828      	ldr	r0, [pc, #160]	; (2c88 <_sercom_get_default_pad+0x148>)
    2be8:	e7b8      	b.n	2b5c <_sercom_get_default_pad+0x1c>
    2bea:	2901      	cmp	r1, #1
    2bec:	d007      	beq.n	2bfe <_sercom_get_default_pad+0xbe>
    2bee:	2900      	cmp	r1, #0
    2bf0:	d023      	beq.n	2c3a <_sercom_get_default_pad+0xfa>
    2bf2:	2902      	cmp	r1, #2
    2bf4:	d005      	beq.n	2c02 <_sercom_get_default_pad+0xc2>
    2bf6:	2903      	cmp	r1, #3
    2bf8:	d005      	beq.n	2c06 <_sercom_get_default_pad+0xc6>
    2bfa:	2000      	movs	r0, #0
    2bfc:	e7ae      	b.n	2b5c <_sercom_get_default_pad+0x1c>
    2bfe:	4823      	ldr	r0, [pc, #140]	; (2c8c <_sercom_get_default_pad+0x14c>)
    2c00:	e7ac      	b.n	2b5c <_sercom_get_default_pad+0x1c>
    2c02:	4823      	ldr	r0, [pc, #140]	; (2c90 <_sercom_get_default_pad+0x150>)
    2c04:	e7aa      	b.n	2b5c <_sercom_get_default_pad+0x1c>
    2c06:	4823      	ldr	r0, [pc, #140]	; (2c94 <_sercom_get_default_pad+0x154>)
    2c08:	e7a8      	b.n	2b5c <_sercom_get_default_pad+0x1c>
    2c0a:	2901      	cmp	r1, #1
    2c0c:	d007      	beq.n	2c1e <_sercom_get_default_pad+0xde>
    2c0e:	2900      	cmp	r1, #0
    2c10:	d015      	beq.n	2c3e <_sercom_get_default_pad+0xfe>
    2c12:	2902      	cmp	r1, #2
    2c14:	d005      	beq.n	2c22 <_sercom_get_default_pad+0xe2>
    2c16:	2903      	cmp	r1, #3
    2c18:	d005      	beq.n	2c26 <_sercom_get_default_pad+0xe6>
    2c1a:	2000      	movs	r0, #0
    2c1c:	e79e      	b.n	2b5c <_sercom_get_default_pad+0x1c>
    2c1e:	481e      	ldr	r0, [pc, #120]	; (2c98 <_sercom_get_default_pad+0x158>)
    2c20:	e79c      	b.n	2b5c <_sercom_get_default_pad+0x1c>
    2c22:	481e      	ldr	r0, [pc, #120]	; (2c9c <_sercom_get_default_pad+0x15c>)
    2c24:	e79a      	b.n	2b5c <_sercom_get_default_pad+0x1c>
    2c26:	481e      	ldr	r0, [pc, #120]	; (2ca0 <_sercom_get_default_pad+0x160>)
    2c28:	e798      	b.n	2b5c <_sercom_get_default_pad+0x1c>
    2c2a:	481e      	ldr	r0, [pc, #120]	; (2ca4 <_sercom_get_default_pad+0x164>)
    2c2c:	e796      	b.n	2b5c <_sercom_get_default_pad+0x1c>
    2c2e:	481e      	ldr	r0, [pc, #120]	; (2ca8 <_sercom_get_default_pad+0x168>)
    2c30:	e794      	b.n	2b5c <_sercom_get_default_pad+0x1c>
    2c32:	481e      	ldr	r0, [pc, #120]	; (2cac <_sercom_get_default_pad+0x16c>)
    2c34:	e792      	b.n	2b5c <_sercom_get_default_pad+0x1c>
    2c36:	481e      	ldr	r0, [pc, #120]	; (2cb0 <_sercom_get_default_pad+0x170>)
    2c38:	e790      	b.n	2b5c <_sercom_get_default_pad+0x1c>
    2c3a:	481e      	ldr	r0, [pc, #120]	; (2cb4 <_sercom_get_default_pad+0x174>)
    2c3c:	e78e      	b.n	2b5c <_sercom_get_default_pad+0x1c>
    2c3e:	481e      	ldr	r0, [pc, #120]	; (2cb8 <_sercom_get_default_pad+0x178>)
    2c40:	e78c      	b.n	2b5c <_sercom_get_default_pad+0x1c>
    2c42:	46c0      	nop			; (mov r8, r8)
    2c44:	42000c00 	.word	0x42000c00
    2c48:	42001400 	.word	0x42001400
    2c4c:	42001800 	.word	0x42001800
    2c50:	42001000 	.word	0x42001000
    2c54:	42000400 	.word	0x42000400
    2c58:	42000800 	.word	0x42000800
    2c5c:	00050003 	.word	0x00050003
    2c60:	00060003 	.word	0x00060003
    2c64:	00070003 	.word	0x00070003
    2c68:	00110002 	.word	0x00110002
    2c6c:	00120002 	.word	0x00120002
    2c70:	00130002 	.word	0x00130002
    2c74:	000d0002 	.word	0x000d0002
    2c78:	000e0002 	.word	0x000e0002
    2c7c:	000f0002 	.word	0x000f0002
    2c80:	00170002 	.word	0x00170002
    2c84:	00180002 	.word	0x00180002
    2c88:	00190002 	.word	0x00190002
    2c8c:	00290003 	.word	0x00290003
    2c90:	002a0003 	.word	0x002a0003
    2c94:	002b0003 	.word	0x002b0003
    2c98:	00230003 	.word	0x00230003
    2c9c:	00200003 	.word	0x00200003
    2ca0:	00210003 	.word	0x00210003
    2ca4:	00040003 	.word	0x00040003
    2ca8:	00100002 	.word	0x00100002
    2cac:	000c0002 	.word	0x000c0002
    2cb0:	00160002 	.word	0x00160002
    2cb4:	00280003 	.word	0x00280003
    2cb8:	00220003 	.word	0x00220003

00002cbc <_sercom_get_sercom_inst_index>:
    2cbc:	b530      	push	{r4, r5, lr}
    2cbe:	b087      	sub	sp, #28
    2cc0:	4b0b      	ldr	r3, [pc, #44]	; (2cf0 <_sercom_get_sercom_inst_index+0x34>)
    2cc2:	466a      	mov	r2, sp
    2cc4:	cb32      	ldmia	r3!, {r1, r4, r5}
    2cc6:	c232      	stmia	r2!, {r1, r4, r5}
    2cc8:	cb32      	ldmia	r3!, {r1, r4, r5}
    2cca:	c232      	stmia	r2!, {r1, r4, r5}
    2ccc:	9b00      	ldr	r3, [sp, #0]
    2cce:	4283      	cmp	r3, r0
    2cd0:	d00b      	beq.n	2cea <_sercom_get_sercom_inst_index+0x2e>
    2cd2:	2301      	movs	r3, #1
    2cd4:	009a      	lsls	r2, r3, #2
    2cd6:	4669      	mov	r1, sp
    2cd8:	5852      	ldr	r2, [r2, r1]
    2cda:	4282      	cmp	r2, r0
    2cdc:	d006      	beq.n	2cec <_sercom_get_sercom_inst_index+0x30>
    2cde:	3301      	adds	r3, #1
    2ce0:	2b06      	cmp	r3, #6
    2ce2:	d1f7      	bne.n	2cd4 <_sercom_get_sercom_inst_index+0x18>
    2ce4:	2000      	movs	r0, #0
    2ce6:	b007      	add	sp, #28
    2ce8:	bd30      	pop	{r4, r5, pc}
    2cea:	2300      	movs	r3, #0
    2cec:	b2d8      	uxtb	r0, r3
    2cee:	e7fa      	b.n	2ce6 <_sercom_get_sercom_inst_index+0x2a>
    2cf0:	000085ac 	.word	0x000085ac

00002cf4 <_sercom_default_handler>:
    2cf4:	4770      	bx	lr
	...

00002cf8 <_sercom_set_handler>:
    2cf8:	b5f0      	push	{r4, r5, r6, r7, lr}
    2cfa:	4b0a      	ldr	r3, [pc, #40]	; (2d24 <_sercom_set_handler+0x2c>)
    2cfc:	781b      	ldrb	r3, [r3, #0]
    2cfe:	2b00      	cmp	r3, #0
    2d00:	d10c      	bne.n	2d1c <_sercom_set_handler+0x24>
    2d02:	4f09      	ldr	r7, [pc, #36]	; (2d28 <_sercom_set_handler+0x30>)
    2d04:	4e09      	ldr	r6, [pc, #36]	; (2d2c <_sercom_set_handler+0x34>)
    2d06:	4d0a      	ldr	r5, [pc, #40]	; (2d30 <_sercom_set_handler+0x38>)
    2d08:	2400      	movs	r4, #0
    2d0a:	51de      	str	r6, [r3, r7]
    2d0c:	195a      	adds	r2, r3, r5
    2d0e:	6014      	str	r4, [r2, #0]
    2d10:	3304      	adds	r3, #4
    2d12:	2b18      	cmp	r3, #24
    2d14:	d1f9      	bne.n	2d0a <_sercom_set_handler+0x12>
    2d16:	2201      	movs	r2, #1
    2d18:	4b02      	ldr	r3, [pc, #8]	; (2d24 <_sercom_set_handler+0x2c>)
    2d1a:	701a      	strb	r2, [r3, #0]
    2d1c:	0080      	lsls	r0, r0, #2
    2d1e:	4b02      	ldr	r3, [pc, #8]	; (2d28 <_sercom_set_handler+0x30>)
    2d20:	50c1      	str	r1, [r0, r3]
    2d22:	bdf0      	pop	{r4, r5, r6, r7, pc}
    2d24:	20002496 	.word	0x20002496
    2d28:	20002498 	.word	0x20002498
    2d2c:	00002cf5 	.word	0x00002cf5
    2d30:	20002b4c 	.word	0x20002b4c

00002d34 <_sercom_get_interrupt_vector>:
    2d34:	b500      	push	{lr}
    2d36:	b083      	sub	sp, #12
    2d38:	2309      	movs	r3, #9
    2d3a:	466a      	mov	r2, sp
    2d3c:	7013      	strb	r3, [r2, #0]
    2d3e:	3301      	adds	r3, #1
    2d40:	7053      	strb	r3, [r2, #1]
    2d42:	3301      	adds	r3, #1
    2d44:	7093      	strb	r3, [r2, #2]
    2d46:	3301      	adds	r3, #1
    2d48:	70d3      	strb	r3, [r2, #3]
    2d4a:	3301      	adds	r3, #1
    2d4c:	7113      	strb	r3, [r2, #4]
    2d4e:	3301      	adds	r3, #1
    2d50:	7153      	strb	r3, [r2, #5]
    2d52:	4b03      	ldr	r3, [pc, #12]	; (2d60 <_sercom_get_interrupt_vector+0x2c>)
    2d54:	4798      	blx	r3
    2d56:	466b      	mov	r3, sp
    2d58:	5618      	ldrsb	r0, [r3, r0]
    2d5a:	b003      	add	sp, #12
    2d5c:	bd00      	pop	{pc}
    2d5e:	46c0      	nop			; (mov r8, r8)
    2d60:	00002cbd 	.word	0x00002cbd

00002d64 <SERCOM0_Handler>:
    2d64:	b510      	push	{r4, lr}
    2d66:	4b02      	ldr	r3, [pc, #8]	; (2d70 <SERCOM0_Handler+0xc>)
    2d68:	681b      	ldr	r3, [r3, #0]
    2d6a:	2000      	movs	r0, #0
    2d6c:	4798      	blx	r3
    2d6e:	bd10      	pop	{r4, pc}
    2d70:	20002498 	.word	0x20002498

00002d74 <SERCOM1_Handler>:
    2d74:	b510      	push	{r4, lr}
    2d76:	4b02      	ldr	r3, [pc, #8]	; (2d80 <SERCOM1_Handler+0xc>)
    2d78:	685b      	ldr	r3, [r3, #4]
    2d7a:	2001      	movs	r0, #1
    2d7c:	4798      	blx	r3
    2d7e:	bd10      	pop	{r4, pc}
    2d80:	20002498 	.word	0x20002498

00002d84 <SERCOM2_Handler>:
    2d84:	b510      	push	{r4, lr}
    2d86:	4b02      	ldr	r3, [pc, #8]	; (2d90 <SERCOM2_Handler+0xc>)
    2d88:	689b      	ldr	r3, [r3, #8]
    2d8a:	2002      	movs	r0, #2
    2d8c:	4798      	blx	r3
    2d8e:	bd10      	pop	{r4, pc}
    2d90:	20002498 	.word	0x20002498

00002d94 <SERCOM3_Handler>:
    2d94:	b510      	push	{r4, lr}
    2d96:	4b02      	ldr	r3, [pc, #8]	; (2da0 <SERCOM3_Handler+0xc>)
    2d98:	68db      	ldr	r3, [r3, #12]
    2d9a:	2003      	movs	r0, #3
    2d9c:	4798      	blx	r3
    2d9e:	bd10      	pop	{r4, pc}
    2da0:	20002498 	.word	0x20002498

00002da4 <SERCOM4_Handler>:
    2da4:	b510      	push	{r4, lr}
    2da6:	4b02      	ldr	r3, [pc, #8]	; (2db0 <SERCOM4_Handler+0xc>)
    2da8:	691b      	ldr	r3, [r3, #16]
    2daa:	2004      	movs	r0, #4
    2dac:	4798      	blx	r3
    2dae:	bd10      	pop	{r4, pc}
    2db0:	20002498 	.word	0x20002498

00002db4 <SERCOM5_Handler>:
    2db4:	b510      	push	{r4, lr}
    2db6:	4b02      	ldr	r3, [pc, #8]	; (2dc0 <SERCOM5_Handler+0xc>)
    2db8:	695b      	ldr	r3, [r3, #20]
    2dba:	2005      	movs	r0, #5
    2dbc:	4798      	blx	r3
    2dbe:	bd10      	pop	{r4, pc}
    2dc0:	20002498 	.word	0x20002498

00002dc4 <usart_init>:
    2dc4:	b5f0      	push	{r4, r5, r6, r7, lr}
    2dc6:	46de      	mov	lr, fp
    2dc8:	4657      	mov	r7, sl
    2dca:	464e      	mov	r6, r9
    2dcc:	4645      	mov	r5, r8
    2dce:	b5e0      	push	{r5, r6, r7, lr}
    2dd0:	b091      	sub	sp, #68	; 0x44
    2dd2:	0005      	movs	r5, r0
    2dd4:	000c      	movs	r4, r1
    2dd6:	0016      	movs	r6, r2
    2dd8:	6029      	str	r1, [r5, #0]
    2dda:	0008      	movs	r0, r1
    2ddc:	4bd2      	ldr	r3, [pc, #840]	; (3128 <usart_init+0x364>)
    2dde:	4798      	blx	r3
    2de0:	2805      	cmp	r0, #5
    2de2:	d00d      	beq.n	2e00 <usart_init+0x3c>
    2de4:	0007      	movs	r7, r0
    2de6:	3713      	adds	r7, #19
    2de8:	6822      	ldr	r2, [r4, #0]
    2dea:	2305      	movs	r3, #5
    2dec:	07d2      	lsls	r2, r2, #31
    2dee:	d509      	bpl.n	2e04 <usart_init+0x40>
    2df0:	0018      	movs	r0, r3
    2df2:	b011      	add	sp, #68	; 0x44
    2df4:	bc3c      	pop	{r2, r3, r4, r5}
    2df6:	4690      	mov	r8, r2
    2df8:	4699      	mov	r9, r3
    2dfa:	46a2      	mov	sl, r4
    2dfc:	46ab      	mov	fp, r5
    2dfe:	bdf0      	pop	{r4, r5, r6, r7, pc}
    2e00:	2719      	movs	r7, #25
    2e02:	e7f1      	b.n	2de8 <usart_init+0x24>
    2e04:	6822      	ldr	r2, [r4, #0]
    2e06:	3317      	adds	r3, #23
    2e08:	0792      	lsls	r2, r2, #30
    2e0a:	d4f1      	bmi.n	2df0 <usart_init+0x2c>
    2e0c:	4ac7      	ldr	r2, [pc, #796]	; (312c <usart_init+0x368>)
    2e0e:	69d1      	ldr	r1, [r2, #28]
    2e10:	3001      	adds	r0, #1
    2e12:	3b1b      	subs	r3, #27
    2e14:	4083      	lsls	r3, r0
    2e16:	430b      	orrs	r3, r1
    2e18:	61d3      	str	r3, [r2, #28]
    2e1a:	a90f      	add	r1, sp, #60	; 0x3c
    2e1c:	2335      	movs	r3, #53	; 0x35
    2e1e:	4698      	mov	r8, r3
    2e20:	5cf3      	ldrb	r3, [r6, r3]
    2e22:	700b      	strb	r3, [r1, #0]
    2e24:	b2ff      	uxtb	r7, r7
    2e26:	0038      	movs	r0, r7
    2e28:	4bc1      	ldr	r3, [pc, #772]	; (3130 <usart_init+0x36c>)
    2e2a:	4798      	blx	r3
    2e2c:	0038      	movs	r0, r7
    2e2e:	4bc1      	ldr	r3, [pc, #772]	; (3134 <usart_init+0x370>)
    2e30:	4798      	blx	r3
    2e32:	4643      	mov	r3, r8
    2e34:	5cf0      	ldrb	r0, [r6, r3]
    2e36:	2100      	movs	r1, #0
    2e38:	4bbf      	ldr	r3, [pc, #764]	; (3138 <usart_init+0x374>)
    2e3a:	4798      	blx	r3
    2e3c:	7af3      	ldrb	r3, [r6, #11]
    2e3e:	716b      	strb	r3, [r5, #5]
    2e40:	232c      	movs	r3, #44	; 0x2c
    2e42:	5cf3      	ldrb	r3, [r6, r3]
    2e44:	71ab      	strb	r3, [r5, #6]
    2e46:	232d      	movs	r3, #45	; 0x2d
    2e48:	5cf3      	ldrb	r3, [r6, r3]
    2e4a:	71eb      	strb	r3, [r5, #7]
    2e4c:	7ef3      	ldrb	r3, [r6, #27]
    2e4e:	722b      	strb	r3, [r5, #8]
    2e50:	2324      	movs	r3, #36	; 0x24
    2e52:	5cf3      	ldrb	r3, [r6, r3]
    2e54:	726b      	strb	r3, [r5, #9]
    2e56:	682b      	ldr	r3, [r5, #0]
    2e58:	9302      	str	r3, [sp, #8]
    2e5a:	0018      	movs	r0, r3
    2e5c:	4bb2      	ldr	r3, [pc, #712]	; (3128 <usart_init+0x364>)
    2e5e:	4798      	blx	r3
    2e60:	2805      	cmp	r0, #5
    2e62:	d01d      	beq.n	2ea0 <usart_init+0xdc>
    2e64:	3013      	adds	r0, #19
    2e66:	2200      	movs	r2, #0
    2e68:	230e      	movs	r3, #14
    2e6a:	a906      	add	r1, sp, #24
    2e6c:	468c      	mov	ip, r1
    2e6e:	4463      	add	r3, ip
    2e70:	801a      	strh	r2, [r3, #0]
    2e72:	8a33      	ldrh	r3, [r6, #16]
    2e74:	4698      	mov	r8, r3
    2e76:	2380      	movs	r3, #128	; 0x80
    2e78:	01db      	lsls	r3, r3, #7
    2e7a:	4598      	cmp	r8, r3
    2e7c:	d100      	bne.n	2e80 <usart_init+0xbc>
    2e7e:	e0c3      	b.n	3008 <usart_init+0x244>
    2e80:	d910      	bls.n	2ea4 <usart_init+0xe0>
    2e82:	23c0      	movs	r3, #192	; 0xc0
    2e84:	01db      	lsls	r3, r3, #7
    2e86:	4598      	cmp	r8, r3
    2e88:	d100      	bne.n	2e8c <usart_init+0xc8>
    2e8a:	e0b8      	b.n	2ffe <usart_init+0x23a>
    2e8c:	2380      	movs	r3, #128	; 0x80
    2e8e:	021b      	lsls	r3, r3, #8
    2e90:	4598      	cmp	r8, r3
    2e92:	d000      	beq.n	2e96 <usart_init+0xd2>
    2e94:	e166      	b.n	3164 <usart_init+0x3a0>
    2e96:	2303      	movs	r3, #3
    2e98:	9306      	str	r3, [sp, #24]
    2e9a:	2300      	movs	r3, #0
    2e9c:	9307      	str	r3, [sp, #28]
    2e9e:	e00a      	b.n	2eb6 <usart_init+0xf2>
    2ea0:	2019      	movs	r0, #25
    2ea2:	e7e0      	b.n	2e66 <usart_init+0xa2>
    2ea4:	2380      	movs	r3, #128	; 0x80
    2ea6:	019b      	lsls	r3, r3, #6
    2ea8:	4598      	cmp	r8, r3
    2eaa:	d000      	beq.n	2eae <usart_init+0xea>
    2eac:	e15a      	b.n	3164 <usart_init+0x3a0>
    2eae:	2310      	movs	r3, #16
    2eb0:	9306      	str	r3, [sp, #24]
    2eb2:	3b0f      	subs	r3, #15
    2eb4:	9307      	str	r3, [sp, #28]
    2eb6:	6833      	ldr	r3, [r6, #0]
    2eb8:	9305      	str	r3, [sp, #20]
    2eba:	68f3      	ldr	r3, [r6, #12]
    2ebc:	469b      	mov	fp, r3
    2ebe:	6973      	ldr	r3, [r6, #20]
    2ec0:	9303      	str	r3, [sp, #12]
    2ec2:	7e33      	ldrb	r3, [r6, #24]
    2ec4:	9304      	str	r3, [sp, #16]
    2ec6:	232e      	movs	r3, #46	; 0x2e
    2ec8:	5cf3      	ldrb	r3, [r6, r3]
    2eca:	469a      	mov	sl, r3
    2ecc:	6873      	ldr	r3, [r6, #4]
    2ece:	4699      	mov	r9, r3
    2ed0:	2b00      	cmp	r3, #0
    2ed2:	d100      	bne.n	2ed6 <usart_init+0x112>
    2ed4:	e0c5      	b.n	3062 <usart_init+0x29e>
    2ed6:	2380      	movs	r3, #128	; 0x80
    2ed8:	055b      	lsls	r3, r3, #21
    2eda:	4599      	cmp	r9, r3
    2edc:	d100      	bne.n	2ee0 <usart_init+0x11c>
    2ede:	e0a8      	b.n	3032 <usart_init+0x26e>
    2ee0:	7e73      	ldrb	r3, [r6, #25]
    2ee2:	2b00      	cmp	r3, #0
    2ee4:	d002      	beq.n	2eec <usart_init+0x128>
    2ee6:	7eb3      	ldrb	r3, [r6, #26]
    2ee8:	9a02      	ldr	r2, [sp, #8]
    2eea:	7393      	strb	r3, [r2, #14]
    2eec:	230e      	movs	r3, #14
    2eee:	aa06      	add	r2, sp, #24
    2ef0:	4694      	mov	ip, r2
    2ef2:	4463      	add	r3, ip
    2ef4:	881b      	ldrh	r3, [r3, #0]
    2ef6:	9a02      	ldr	r2, [sp, #8]
    2ef8:	8193      	strh	r3, [r2, #12]
    2efa:	9a05      	ldr	r2, [sp, #20]
    2efc:	465b      	mov	r3, fp
    2efe:	431a      	orrs	r2, r3
    2f00:	9b03      	ldr	r3, [sp, #12]
    2f02:	431a      	orrs	r2, r3
    2f04:	464b      	mov	r3, r9
    2f06:	431a      	orrs	r2, r3
    2f08:	4643      	mov	r3, r8
    2f0a:	431a      	orrs	r2, r3
    2f0c:	9b04      	ldr	r3, [sp, #16]
    2f0e:	021b      	lsls	r3, r3, #8
    2f10:	431a      	orrs	r2, r3
    2f12:	4653      	mov	r3, sl
    2f14:	075b      	lsls	r3, r3, #29
    2f16:	431a      	orrs	r2, r3
    2f18:	232f      	movs	r3, #47	; 0x2f
    2f1a:	5cf3      	ldrb	r3, [r6, r3]
    2f1c:	2b00      	cmp	r3, #0
    2f1e:	d101      	bne.n	2f24 <usart_init+0x160>
    2f20:	3304      	adds	r3, #4
    2f22:	431a      	orrs	r2, r3
    2f24:	7e73      	ldrb	r3, [r6, #25]
    2f26:	029b      	lsls	r3, r3, #10
    2f28:	2124      	movs	r1, #36	; 0x24
    2f2a:	5c71      	ldrb	r1, [r6, r1]
    2f2c:	0249      	lsls	r1, r1, #9
    2f2e:	430b      	orrs	r3, r1
    2f30:	2126      	movs	r1, #38	; 0x26
    2f32:	5c71      	ldrb	r1, [r6, r1]
    2f34:	0209      	lsls	r1, r1, #8
    2f36:	430b      	orrs	r3, r1
    2f38:	212c      	movs	r1, #44	; 0x2c
    2f3a:	5c71      	ldrb	r1, [r6, r1]
    2f3c:	0449      	lsls	r1, r1, #17
    2f3e:	430b      	orrs	r3, r1
    2f40:	212d      	movs	r1, #45	; 0x2d
    2f42:	5c71      	ldrb	r1, [r6, r1]
    2f44:	0409      	lsls	r1, r1, #16
    2f46:	430b      	orrs	r3, r1
    2f48:	7ab0      	ldrb	r0, [r6, #10]
    2f4a:	7af1      	ldrb	r1, [r6, #11]
    2f4c:	4308      	orrs	r0, r1
    2f4e:	4318      	orrs	r0, r3
    2f50:	8933      	ldrh	r3, [r6, #8]
    2f52:	2bff      	cmp	r3, #255	; 0xff
    2f54:	d100      	bne.n	2f58 <usart_init+0x194>
    2f56:	e0aa      	b.n	30ae <usart_init+0x2ea>
    2f58:	2180      	movs	r1, #128	; 0x80
    2f5a:	0449      	lsls	r1, r1, #17
    2f5c:	430a      	orrs	r2, r1
    2f5e:	4318      	orrs	r0, r3
    2f60:	9902      	ldr	r1, [sp, #8]
    2f62:	688b      	ldr	r3, [r1, #8]
    2f64:	469c      	mov	ip, r3
    2f66:	8c33      	ldrh	r3, [r6, #32]
    2f68:	8c71      	ldrh	r1, [r6, #34]	; 0x22
    2f6a:	430b      	orrs	r3, r1
    2f6c:	001f      	movs	r7, r3
    2f6e:	2107      	movs	r1, #7
    2f70:	4663      	mov	r3, ip
    2f72:	4019      	ands	r1, r3
    2f74:	003b      	movs	r3, r7
    2f76:	430b      	orrs	r3, r1
    2f78:	9902      	ldr	r1, [sp, #8]
    2f7a:	608b      	str	r3, [r1, #8]
    2f7c:	69f3      	ldr	r3, [r6, #28]
    2f7e:	2b00      	cmp	r3, #0
    2f80:	d002      	beq.n	2f88 <usart_init+0x1c4>
    2f82:	496e      	ldr	r1, [pc, #440]	; (313c <usart_init+0x378>)
    2f84:	400a      	ands	r2, r1
    2f86:	431a      	orrs	r2, r3
    2f88:	2334      	movs	r3, #52	; 0x34
    2f8a:	5cf3      	ldrb	r3, [r6, r3]
    2f8c:	2b00      	cmp	r3, #0
    2f8e:	d103      	bne.n	2f98 <usart_init+0x1d4>
    2f90:	4b6b      	ldr	r3, [pc, #428]	; (3140 <usart_init+0x37c>)
    2f92:	789b      	ldrb	r3, [r3, #2]
    2f94:	079b      	lsls	r3, r3, #30
    2f96:	d501      	bpl.n	2f9c <usart_init+0x1d8>
    2f98:	2380      	movs	r3, #128	; 0x80
    2f9a:	431a      	orrs	r2, r3
    2f9c:	6829      	ldr	r1, [r5, #0]
    2f9e:	9f02      	ldr	r7, [sp, #8]
    2fa0:	69cb      	ldr	r3, [r1, #28]
    2fa2:	2b00      	cmp	r3, #0
    2fa4:	d1fc      	bne.n	2fa0 <usart_init+0x1dc>
    2fa6:	6078      	str	r0, [r7, #4]
    2fa8:	6829      	ldr	r1, [r5, #0]
    2faa:	69cb      	ldr	r3, [r1, #28]
    2fac:	2b00      	cmp	r3, #0
    2fae:	d1fc      	bne.n	2faa <usart_init+0x1e6>
    2fb0:	603a      	str	r2, [r7, #0]
    2fb2:	683b      	ldr	r3, [r7, #0]
    2fb4:	22f0      	movs	r2, #240	; 0xf0
    2fb6:	0512      	lsls	r2, r2, #20
    2fb8:	4013      	ands	r3, r2
    2fba:	22e0      	movs	r2, #224	; 0xe0
    2fbc:	04d2      	lsls	r2, r2, #19
    2fbe:	4293      	cmp	r3, r2
    2fc0:	d00a      	beq.n	2fd8 <usart_init+0x214>
    2fc2:	68bb      	ldr	r3, [r7, #8]
    2fc4:	2207      	movs	r2, #7
    2fc6:	4393      	bics	r3, r2
    2fc8:	60bb      	str	r3, [r7, #8]
    2fca:	68ba      	ldr	r2, [r7, #8]
    2fcc:	2325      	movs	r3, #37	; 0x25
    2fce:	5cf1      	ldrb	r1, [r6, r3]
    2fd0:	3b1e      	subs	r3, #30
    2fd2:	400b      	ands	r3, r1
    2fd4:	4313      	orrs	r3, r2
    2fd6:	60bb      	str	r3, [r7, #8]
    2fd8:	ab0e      	add	r3, sp, #56	; 0x38
    2fda:	2280      	movs	r2, #128	; 0x80
    2fdc:	701a      	strb	r2, [r3, #0]
    2fde:	2200      	movs	r2, #0
    2fe0:	705a      	strb	r2, [r3, #1]
    2fe2:	70da      	strb	r2, [r3, #3]
    2fe4:	709a      	strb	r2, [r3, #2]
    2fe6:	6bb3      	ldr	r3, [r6, #56]	; 0x38
    2fe8:	930a      	str	r3, [sp, #40]	; 0x28
    2fea:	6bf3      	ldr	r3, [r6, #60]	; 0x3c
    2fec:	930b      	str	r3, [sp, #44]	; 0x2c
    2fee:	6c33      	ldr	r3, [r6, #64]	; 0x40
    2ff0:	930c      	str	r3, [sp, #48]	; 0x30
    2ff2:	6c73      	ldr	r3, [r6, #68]	; 0x44
    2ff4:	9302      	str	r3, [sp, #8]
    2ff6:	930d      	str	r3, [sp, #52]	; 0x34
    2ff8:	2700      	movs	r7, #0
    2ffa:	ae0a      	add	r6, sp, #40	; 0x28
    2ffc:	e066      	b.n	30cc <usart_init+0x308>
    2ffe:	2308      	movs	r3, #8
    3000:	9306      	str	r3, [sp, #24]
    3002:	3b07      	subs	r3, #7
    3004:	9307      	str	r3, [sp, #28]
    3006:	e756      	b.n	2eb6 <usart_init+0xf2>
    3008:	6833      	ldr	r3, [r6, #0]
    300a:	9305      	str	r3, [sp, #20]
    300c:	68f3      	ldr	r3, [r6, #12]
    300e:	469b      	mov	fp, r3
    3010:	6973      	ldr	r3, [r6, #20]
    3012:	9303      	str	r3, [sp, #12]
    3014:	7e33      	ldrb	r3, [r6, #24]
    3016:	9304      	str	r3, [sp, #16]
    3018:	232e      	movs	r3, #46	; 0x2e
    301a:	5cf3      	ldrb	r3, [r6, r3]
    301c:	469a      	mov	sl, r3
    301e:	6873      	ldr	r3, [r6, #4]
    3020:	4699      	mov	r9, r3
    3022:	2b00      	cmp	r3, #0
    3024:	d019      	beq.n	305a <usart_init+0x296>
    3026:	2380      	movs	r3, #128	; 0x80
    3028:	055b      	lsls	r3, r3, #21
    302a:	4599      	cmp	r9, r3
    302c:	d001      	beq.n	3032 <usart_init+0x26e>
    302e:	2300      	movs	r3, #0
    3030:	e027      	b.n	3082 <usart_init+0x2be>
    3032:	232f      	movs	r3, #47	; 0x2f
    3034:	5cf3      	ldrb	r3, [r6, r3]
    3036:	2b00      	cmp	r3, #0
    3038:	d000      	beq.n	303c <usart_init+0x278>
    303a:	e751      	b.n	2ee0 <usart_init+0x11c>
    303c:	6ab3      	ldr	r3, [r6, #40]	; 0x28
    303e:	001f      	movs	r7, r3
    3040:	b2c0      	uxtb	r0, r0
    3042:	4b40      	ldr	r3, [pc, #256]	; (3144 <usart_init+0x380>)
    3044:	4798      	blx	r3
    3046:	0001      	movs	r1, r0
    3048:	220e      	movs	r2, #14
    304a:	ab06      	add	r3, sp, #24
    304c:	469c      	mov	ip, r3
    304e:	4462      	add	r2, ip
    3050:	0038      	movs	r0, r7
    3052:	4b3d      	ldr	r3, [pc, #244]	; (3148 <usart_init+0x384>)
    3054:	4798      	blx	r3
    3056:	0003      	movs	r3, r0
    3058:	e013      	b.n	3082 <usart_init+0x2be>
    305a:	2308      	movs	r3, #8
    305c:	9306      	str	r3, [sp, #24]
    305e:	2300      	movs	r3, #0
    3060:	9307      	str	r3, [sp, #28]
    3062:	232f      	movs	r3, #47	; 0x2f
    3064:	5cf3      	ldrb	r3, [r6, r3]
    3066:	2b00      	cmp	r3, #0
    3068:	d00f      	beq.n	308a <usart_init+0x2c6>
    306a:	9b06      	ldr	r3, [sp, #24]
    306c:	9300      	str	r3, [sp, #0]
    306e:	9b07      	ldr	r3, [sp, #28]
    3070:	220e      	movs	r2, #14
    3072:	a906      	add	r1, sp, #24
    3074:	468c      	mov	ip, r1
    3076:	4462      	add	r2, ip
    3078:	6b31      	ldr	r1, [r6, #48]	; 0x30
    307a:	6ab0      	ldr	r0, [r6, #40]	; 0x28
    307c:	4f33      	ldr	r7, [pc, #204]	; (314c <usart_init+0x388>)
    307e:	47b8      	blx	r7
    3080:	0003      	movs	r3, r0
    3082:	2b00      	cmp	r3, #0
    3084:	d000      	beq.n	3088 <usart_init+0x2c4>
    3086:	e6b3      	b.n	2df0 <usart_init+0x2c>
    3088:	e72a      	b.n	2ee0 <usart_init+0x11c>
    308a:	6ab3      	ldr	r3, [r6, #40]	; 0x28
    308c:	001f      	movs	r7, r3
    308e:	b2c0      	uxtb	r0, r0
    3090:	4b2c      	ldr	r3, [pc, #176]	; (3144 <usart_init+0x380>)
    3092:	4798      	blx	r3
    3094:	0001      	movs	r1, r0
    3096:	9b06      	ldr	r3, [sp, #24]
    3098:	9300      	str	r3, [sp, #0]
    309a:	9b07      	ldr	r3, [sp, #28]
    309c:	220e      	movs	r2, #14
    309e:	a806      	add	r0, sp, #24
    30a0:	4684      	mov	ip, r0
    30a2:	4462      	add	r2, ip
    30a4:	0038      	movs	r0, r7
    30a6:	4f29      	ldr	r7, [pc, #164]	; (314c <usart_init+0x388>)
    30a8:	47b8      	blx	r7
    30aa:	0003      	movs	r3, r0
    30ac:	e7e9      	b.n	3082 <usart_init+0x2be>
    30ae:	7ef3      	ldrb	r3, [r6, #27]
    30b0:	2b00      	cmp	r3, #0
    30b2:	d100      	bne.n	30b6 <usart_init+0x2f2>
    30b4:	e754      	b.n	2f60 <usart_init+0x19c>
    30b6:	2380      	movs	r3, #128	; 0x80
    30b8:	04db      	lsls	r3, r3, #19
    30ba:	431a      	orrs	r2, r3
    30bc:	e750      	b.n	2f60 <usart_init+0x19c>
    30be:	0020      	movs	r0, r4
    30c0:	4b23      	ldr	r3, [pc, #140]	; (3150 <usart_init+0x38c>)
    30c2:	4798      	blx	r3
    30c4:	e007      	b.n	30d6 <usart_init+0x312>
    30c6:	3701      	adds	r7, #1
    30c8:	2f04      	cmp	r7, #4
    30ca:	d00d      	beq.n	30e8 <usart_init+0x324>
    30cc:	b2f9      	uxtb	r1, r7
    30ce:	00bb      	lsls	r3, r7, #2
    30d0:	5998      	ldr	r0, [r3, r6]
    30d2:	2800      	cmp	r0, #0
    30d4:	d0f3      	beq.n	30be <usart_init+0x2fa>
    30d6:	1c43      	adds	r3, r0, #1
    30d8:	d0f5      	beq.n	30c6 <usart_init+0x302>
    30da:	a90e      	add	r1, sp, #56	; 0x38
    30dc:	7008      	strb	r0, [r1, #0]
    30de:	0c00      	lsrs	r0, r0, #16
    30e0:	b2c0      	uxtb	r0, r0
    30e2:	4b1c      	ldr	r3, [pc, #112]	; (3154 <usart_init+0x390>)
    30e4:	4798      	blx	r3
    30e6:	e7ee      	b.n	30c6 <usart_init+0x302>
    30e8:	2300      	movs	r3, #0
    30ea:	60eb      	str	r3, [r5, #12]
    30ec:	612b      	str	r3, [r5, #16]
    30ee:	616b      	str	r3, [r5, #20]
    30f0:	61ab      	str	r3, [r5, #24]
    30f2:	61eb      	str	r3, [r5, #28]
    30f4:	622b      	str	r3, [r5, #32]
    30f6:	62ab      	str	r3, [r5, #40]	; 0x28
    30f8:	626b      	str	r3, [r5, #36]	; 0x24
    30fa:	2200      	movs	r2, #0
    30fc:	85eb      	strh	r3, [r5, #46]	; 0x2e
    30fe:	85ab      	strh	r3, [r5, #44]	; 0x2c
    3100:	3330      	adds	r3, #48	; 0x30
    3102:	54ea      	strb	r2, [r5, r3]
    3104:	3301      	adds	r3, #1
    3106:	54ea      	strb	r2, [r5, r3]
    3108:	3301      	adds	r3, #1
    310a:	54ea      	strb	r2, [r5, r3]
    310c:	3301      	adds	r3, #1
    310e:	54ea      	strb	r2, [r5, r3]
    3110:	6828      	ldr	r0, [r5, #0]
    3112:	4b05      	ldr	r3, [pc, #20]	; (3128 <usart_init+0x364>)
    3114:	4798      	blx	r3
    3116:	0004      	movs	r4, r0
    3118:	490f      	ldr	r1, [pc, #60]	; (3158 <usart_init+0x394>)
    311a:	4b10      	ldr	r3, [pc, #64]	; (315c <usart_init+0x398>)
    311c:	4798      	blx	r3
    311e:	00a4      	lsls	r4, r4, #2
    3120:	4b0f      	ldr	r3, [pc, #60]	; (3160 <usart_init+0x39c>)
    3122:	50e5      	str	r5, [r4, r3]
    3124:	2300      	movs	r3, #0
    3126:	e663      	b.n	2df0 <usart_init+0x2c>
    3128:	00002cbd 	.word	0x00002cbd
    312c:	40000800 	.word	0x40000800
    3130:	00003911 	.word	0x00003911
    3134:	000038a1 	.word	0x000038a1
    3138:	00002af5 	.word	0x00002af5
    313c:	f0ffffff 	.word	0xf0ffffff
    3140:	41002000 	.word	0x41002000
    3144:	00003935 	.word	0x00003935
    3148:	00002a37 	.word	0x00002a37
    314c:	00002a61 	.word	0x00002a61
    3150:	00002b41 	.word	0x00002b41
    3154:	00003a0d 	.word	0x00003a0d
    3158:	00003201 	.word	0x00003201
    315c:	00002cf9 	.word	0x00002cf9
    3160:	20002b4c 	.word	0x20002b4c
    3164:	2310      	movs	r3, #16
    3166:	9306      	str	r3, [sp, #24]
    3168:	2300      	movs	r3, #0
    316a:	9307      	str	r3, [sp, #28]
    316c:	e6a3      	b.n	2eb6 <usart_init+0xf2>
    316e:	46c0      	nop			; (mov r8, r8)

00003170 <usart_write_wait>:
    3170:	79c2      	ldrb	r2, [r0, #7]
    3172:	231c      	movs	r3, #28
    3174:	2a00      	cmp	r2, #0
    3176:	d101      	bne.n	317c <usart_write_wait+0xc>
    3178:	0018      	movs	r0, r3
    317a:	4770      	bx	lr
    317c:	8dc2      	ldrh	r2, [r0, #46]	; 0x2e
    317e:	b292      	uxth	r2, r2
    3180:	3b17      	subs	r3, #23
    3182:	2a00      	cmp	r2, #0
    3184:	d1f8      	bne.n	3178 <usart_write_wait+0x8>
    3186:	6802      	ldr	r2, [r0, #0]
    3188:	8511      	strh	r1, [r2, #40]	; 0x28
    318a:	2102      	movs	r1, #2
    318c:	7e13      	ldrb	r3, [r2, #24]
    318e:	420b      	tst	r3, r1
    3190:	d0fc      	beq.n	318c <usart_write_wait+0x1c>
    3192:	2300      	movs	r3, #0
    3194:	e7f0      	b.n	3178 <usart_write_wait+0x8>

00003196 <usart_read_wait>:
    3196:	7982      	ldrb	r2, [r0, #6]
    3198:	231c      	movs	r3, #28
    319a:	2a00      	cmp	r2, #0
    319c:	d101      	bne.n	31a2 <usart_read_wait+0xc>
    319e:	0018      	movs	r0, r3
    31a0:	4770      	bx	lr
    31a2:	8d82      	ldrh	r2, [r0, #44]	; 0x2c
    31a4:	b292      	uxth	r2, r2
    31a6:	3b17      	subs	r3, #23
    31a8:	2a00      	cmp	r2, #0
    31aa:	d1f8      	bne.n	319e <usart_read_wait+0x8>
    31ac:	6802      	ldr	r2, [r0, #0]
    31ae:	7e10      	ldrb	r0, [r2, #24]
    31b0:	0740      	lsls	r0, r0, #29
    31b2:	d5f4      	bpl.n	319e <usart_read_wait+0x8>
    31b4:	8b53      	ldrh	r3, [r2, #26]
    31b6:	b2db      	uxtb	r3, r3
    31b8:	0658      	lsls	r0, r3, #25
    31ba:	d01d      	beq.n	31f8 <usart_read_wait+0x62>
    31bc:	0798      	lsls	r0, r3, #30
    31be:	d503      	bpl.n	31c8 <usart_read_wait+0x32>
    31c0:	2302      	movs	r3, #2
    31c2:	8353      	strh	r3, [r2, #26]
    31c4:	3318      	adds	r3, #24
    31c6:	e7ea      	b.n	319e <usart_read_wait+0x8>
    31c8:	0758      	lsls	r0, r3, #29
    31ca:	d503      	bpl.n	31d4 <usart_read_wait+0x3e>
    31cc:	2304      	movs	r3, #4
    31ce:	8353      	strh	r3, [r2, #26]
    31d0:	331a      	adds	r3, #26
    31d2:	e7e4      	b.n	319e <usart_read_wait+0x8>
    31d4:	07d8      	lsls	r0, r3, #31
    31d6:	d503      	bpl.n	31e0 <usart_read_wait+0x4a>
    31d8:	2301      	movs	r3, #1
    31da:	8353      	strh	r3, [r2, #26]
    31dc:	3312      	adds	r3, #18
    31de:	e7de      	b.n	319e <usart_read_wait+0x8>
    31e0:	06d8      	lsls	r0, r3, #27
    31e2:	d503      	bpl.n	31ec <usart_read_wait+0x56>
    31e4:	2310      	movs	r3, #16
    31e6:	8353      	strh	r3, [r2, #26]
    31e8:	3332      	adds	r3, #50	; 0x32
    31ea:	e7d8      	b.n	319e <usart_read_wait+0x8>
    31ec:	069b      	lsls	r3, r3, #26
    31ee:	d503      	bpl.n	31f8 <usart_read_wait+0x62>
    31f0:	2320      	movs	r3, #32
    31f2:	8353      	strh	r3, [r2, #26]
    31f4:	3321      	adds	r3, #33	; 0x21
    31f6:	e7d2      	b.n	319e <usart_read_wait+0x8>
    31f8:	8d13      	ldrh	r3, [r2, #40]	; 0x28
    31fa:	800b      	strh	r3, [r1, #0]
    31fc:	2300      	movs	r3, #0
    31fe:	e7ce      	b.n	319e <usart_read_wait+0x8>

00003200 <_usart_interrupt_handler>:
    3200:	b5f8      	push	{r3, r4, r5, r6, r7, lr}
    3202:	0080      	lsls	r0, r0, #2
    3204:	4b64      	ldr	r3, [pc, #400]	; (3398 <_usart_interrupt_handler+0x198>)
    3206:	58c5      	ldr	r5, [r0, r3]
    3208:	682c      	ldr	r4, [r5, #0]
    320a:	69e3      	ldr	r3, [r4, #28]
    320c:	2b00      	cmp	r3, #0
    320e:	d1fc      	bne.n	320a <_usart_interrupt_handler+0xa>
    3210:	7e23      	ldrb	r3, [r4, #24]
    3212:	7da6      	ldrb	r6, [r4, #22]
    3214:	401e      	ands	r6, r3
    3216:	2330      	movs	r3, #48	; 0x30
    3218:	5ceb      	ldrb	r3, [r5, r3]
    321a:	2231      	movs	r2, #49	; 0x31
    321c:	5caf      	ldrb	r7, [r5, r2]
    321e:	401f      	ands	r7, r3
    3220:	07f3      	lsls	r3, r6, #31
    3222:	d522      	bpl.n	326a <_usart_interrupt_handler+0x6a>
    3224:	8deb      	ldrh	r3, [r5, #46]	; 0x2e
    3226:	b29b      	uxth	r3, r3
    3228:	2b00      	cmp	r3, #0
    322a:	d01c      	beq.n	3266 <_usart_interrupt_handler+0x66>
    322c:	6aaa      	ldr	r2, [r5, #40]	; 0x28
    322e:	7813      	ldrb	r3, [r2, #0]
    3230:	b2db      	uxtb	r3, r3
    3232:	1c51      	adds	r1, r2, #1
    3234:	62a9      	str	r1, [r5, #40]	; 0x28
    3236:	7969      	ldrb	r1, [r5, #5]
    3238:	2901      	cmp	r1, #1
    323a:	d00e      	beq.n	325a <_usart_interrupt_handler+0x5a>
    323c:	b29b      	uxth	r3, r3
    323e:	05db      	lsls	r3, r3, #23
    3240:	0ddb      	lsrs	r3, r3, #23
    3242:	8523      	strh	r3, [r4, #40]	; 0x28
    3244:	8deb      	ldrh	r3, [r5, #46]	; 0x2e
    3246:	3b01      	subs	r3, #1
    3248:	b29b      	uxth	r3, r3
    324a:	85eb      	strh	r3, [r5, #46]	; 0x2e
    324c:	2b00      	cmp	r3, #0
    324e:	d10c      	bne.n	326a <_usart_interrupt_handler+0x6a>
    3250:	3301      	adds	r3, #1
    3252:	7523      	strb	r3, [r4, #20]
    3254:	3301      	adds	r3, #1
    3256:	75a3      	strb	r3, [r4, #22]
    3258:	e007      	b.n	326a <_usart_interrupt_handler+0x6a>
    325a:	7851      	ldrb	r1, [r2, #1]
    325c:	0209      	lsls	r1, r1, #8
    325e:	430b      	orrs	r3, r1
    3260:	3202      	adds	r2, #2
    3262:	62aa      	str	r2, [r5, #40]	; 0x28
    3264:	e7eb      	b.n	323e <_usart_interrupt_handler+0x3e>
    3266:	2301      	movs	r3, #1
    3268:	7523      	strb	r3, [r4, #20]
    326a:	07b3      	lsls	r3, r6, #30
    326c:	d506      	bpl.n	327c <_usart_interrupt_handler+0x7c>
    326e:	2302      	movs	r3, #2
    3270:	7523      	strb	r3, [r4, #20]
    3272:	2200      	movs	r2, #0
    3274:	3331      	adds	r3, #49	; 0x31
    3276:	54ea      	strb	r2, [r5, r3]
    3278:	07fb      	lsls	r3, r7, #31
    327a:	d41e      	bmi.n	32ba <_usart_interrupt_handler+0xba>
    327c:	0773      	lsls	r3, r6, #29
    327e:	d568      	bpl.n	3352 <_usart_interrupt_handler+0x152>
    3280:	8dab      	ldrh	r3, [r5, #44]	; 0x2c
    3282:	b29b      	uxth	r3, r3
    3284:	2b00      	cmp	r3, #0
    3286:	d062      	beq.n	334e <_usart_interrupt_handler+0x14e>
    3288:	8b63      	ldrh	r3, [r4, #26]
    328a:	b2db      	uxtb	r3, r3
    328c:	071a      	lsls	r2, r3, #28
    328e:	d418      	bmi.n	32c2 <_usart_interrupt_handler+0xc2>
    3290:	227f      	movs	r2, #127	; 0x7f
    3292:	4013      	ands	r3, r2
    3294:	065a      	lsls	r2, r3, #25
    3296:	d501      	bpl.n	329c <_usart_interrupt_handler+0x9c>
    3298:	2240      	movs	r2, #64	; 0x40
    329a:	4393      	bics	r3, r2
    329c:	2b00      	cmp	r3, #0
    329e:	d033      	beq.n	3308 <_usart_interrupt_handler+0x108>
    32a0:	079a      	lsls	r2, r3, #30
    32a2:	d511      	bpl.n	32c8 <_usart_interrupt_handler+0xc8>
    32a4:	221a      	movs	r2, #26
    32a6:	2332      	movs	r3, #50	; 0x32
    32a8:	54ea      	strb	r2, [r5, r3]
    32aa:	3b30      	subs	r3, #48	; 0x30
    32ac:	8363      	strh	r3, [r4, #26]
    32ae:	077b      	lsls	r3, r7, #29
    32b0:	d54f      	bpl.n	3352 <_usart_interrupt_handler+0x152>
    32b2:	0028      	movs	r0, r5
    32b4:	696b      	ldr	r3, [r5, #20]
    32b6:	4798      	blx	r3
    32b8:	e04b      	b.n	3352 <_usart_interrupt_handler+0x152>
    32ba:	0028      	movs	r0, r5
    32bc:	68eb      	ldr	r3, [r5, #12]
    32be:	4798      	blx	r3
    32c0:	e7dc      	b.n	327c <_usart_interrupt_handler+0x7c>
    32c2:	2277      	movs	r2, #119	; 0x77
    32c4:	4013      	ands	r3, r2
    32c6:	e7e5      	b.n	3294 <_usart_interrupt_handler+0x94>
    32c8:	075a      	lsls	r2, r3, #29
    32ca:	d505      	bpl.n	32d8 <_usart_interrupt_handler+0xd8>
    32cc:	221e      	movs	r2, #30
    32ce:	2332      	movs	r3, #50	; 0x32
    32d0:	54ea      	strb	r2, [r5, r3]
    32d2:	3b2e      	subs	r3, #46	; 0x2e
    32d4:	8363      	strh	r3, [r4, #26]
    32d6:	e7ea      	b.n	32ae <_usart_interrupt_handler+0xae>
    32d8:	07da      	lsls	r2, r3, #31
    32da:	d505      	bpl.n	32e8 <_usart_interrupt_handler+0xe8>
    32dc:	2213      	movs	r2, #19
    32de:	2332      	movs	r3, #50	; 0x32
    32e0:	54ea      	strb	r2, [r5, r3]
    32e2:	3b31      	subs	r3, #49	; 0x31
    32e4:	8363      	strh	r3, [r4, #26]
    32e6:	e7e2      	b.n	32ae <_usart_interrupt_handler+0xae>
    32e8:	06da      	lsls	r2, r3, #27
    32ea:	d505      	bpl.n	32f8 <_usart_interrupt_handler+0xf8>
    32ec:	2242      	movs	r2, #66	; 0x42
    32ee:	2332      	movs	r3, #50	; 0x32
    32f0:	54ea      	strb	r2, [r5, r3]
    32f2:	3b22      	subs	r3, #34	; 0x22
    32f4:	8363      	strh	r3, [r4, #26]
    32f6:	e7da      	b.n	32ae <_usart_interrupt_handler+0xae>
    32f8:	069b      	lsls	r3, r3, #26
    32fa:	d5d8      	bpl.n	32ae <_usart_interrupt_handler+0xae>
    32fc:	2241      	movs	r2, #65	; 0x41
    32fe:	2332      	movs	r3, #50	; 0x32
    3300:	54ea      	strb	r2, [r5, r3]
    3302:	3b12      	subs	r3, #18
    3304:	8363      	strh	r3, [r4, #26]
    3306:	e7d2      	b.n	32ae <_usart_interrupt_handler+0xae>
    3308:	8d23      	ldrh	r3, [r4, #40]	; 0x28
    330a:	05db      	lsls	r3, r3, #23
    330c:	0ddb      	lsrs	r3, r3, #23
    330e:	b2da      	uxtb	r2, r3
    3310:	6a69      	ldr	r1, [r5, #36]	; 0x24
    3312:	700a      	strb	r2, [r1, #0]
    3314:	6a6a      	ldr	r2, [r5, #36]	; 0x24
    3316:	1c51      	adds	r1, r2, #1
    3318:	6269      	str	r1, [r5, #36]	; 0x24
    331a:	7969      	ldrb	r1, [r5, #5]
    331c:	2901      	cmp	r1, #1
    331e:	d010      	beq.n	3342 <_usart_interrupt_handler+0x142>
    3320:	8dab      	ldrh	r3, [r5, #44]	; 0x2c
    3322:	3b01      	subs	r3, #1
    3324:	b29b      	uxth	r3, r3
    3326:	85ab      	strh	r3, [r5, #44]	; 0x2c
    3328:	2b00      	cmp	r3, #0
    332a:	d112      	bne.n	3352 <_usart_interrupt_handler+0x152>
    332c:	3304      	adds	r3, #4
    332e:	7523      	strb	r3, [r4, #20]
    3330:	2200      	movs	r2, #0
    3332:	332e      	adds	r3, #46	; 0x2e
    3334:	54ea      	strb	r2, [r5, r3]
    3336:	07bb      	lsls	r3, r7, #30
    3338:	d50b      	bpl.n	3352 <_usart_interrupt_handler+0x152>
    333a:	0028      	movs	r0, r5
    333c:	692b      	ldr	r3, [r5, #16]
    333e:	4798      	blx	r3
    3340:	e007      	b.n	3352 <_usart_interrupt_handler+0x152>
    3342:	0a1b      	lsrs	r3, r3, #8
    3344:	7053      	strb	r3, [r2, #1]
    3346:	6a6b      	ldr	r3, [r5, #36]	; 0x24
    3348:	3301      	adds	r3, #1
    334a:	626b      	str	r3, [r5, #36]	; 0x24
    334c:	e7e8      	b.n	3320 <_usart_interrupt_handler+0x120>
    334e:	2304      	movs	r3, #4
    3350:	7523      	strb	r3, [r4, #20]
    3352:	06f3      	lsls	r3, r6, #27
    3354:	d504      	bpl.n	3360 <_usart_interrupt_handler+0x160>
    3356:	2310      	movs	r3, #16
    3358:	7523      	strb	r3, [r4, #20]
    335a:	7623      	strb	r3, [r4, #24]
    335c:	06fb      	lsls	r3, r7, #27
    335e:	d40e      	bmi.n	337e <_usart_interrupt_handler+0x17e>
    3360:	06b3      	lsls	r3, r6, #26
    3362:	d504      	bpl.n	336e <_usart_interrupt_handler+0x16e>
    3364:	2320      	movs	r3, #32
    3366:	7523      	strb	r3, [r4, #20]
    3368:	7623      	strb	r3, [r4, #24]
    336a:	073b      	lsls	r3, r7, #28
    336c:	d40b      	bmi.n	3386 <_usart_interrupt_handler+0x186>
    336e:	0733      	lsls	r3, r6, #28
    3370:	d504      	bpl.n	337c <_usart_interrupt_handler+0x17c>
    3372:	2308      	movs	r3, #8
    3374:	7523      	strb	r3, [r4, #20]
    3376:	7623      	strb	r3, [r4, #24]
    3378:	06bb      	lsls	r3, r7, #26
    337a:	d408      	bmi.n	338e <_usart_interrupt_handler+0x18e>
    337c:	bdf8      	pop	{r3, r4, r5, r6, r7, pc}
    337e:	0028      	movs	r0, r5
    3380:	69eb      	ldr	r3, [r5, #28]
    3382:	4798      	blx	r3
    3384:	e7ec      	b.n	3360 <_usart_interrupt_handler+0x160>
    3386:	0028      	movs	r0, r5
    3388:	69ab      	ldr	r3, [r5, #24]
    338a:	4798      	blx	r3
    338c:	e7ef      	b.n	336e <_usart_interrupt_handler+0x16e>
    338e:	6a2b      	ldr	r3, [r5, #32]
    3390:	0028      	movs	r0, r5
    3392:	4798      	blx	r3
    3394:	e7f2      	b.n	337c <_usart_interrupt_handler+0x17c>
    3396:	46c0      	nop			; (mov r8, r8)
    3398:	20002b4c 	.word	0x20002b4c

0000339c <system_clock_source_get_hz>:
    339c:	b510      	push	{r4, lr}
    339e:	2807      	cmp	r0, #7
    33a0:	d803      	bhi.n	33aa <system_clock_source_get_hz+0xe>
    33a2:	0080      	lsls	r0, r0, #2
    33a4:	4b0f      	ldr	r3, [pc, #60]	; (33e4 <system_clock_source_get_hz+0x48>)
    33a6:	581b      	ldr	r3, [r3, r0]
    33a8:	469f      	mov	pc, r3
    33aa:	2000      	movs	r0, #0
    33ac:	e018      	b.n	33e0 <system_clock_source_get_hz+0x44>
    33ae:	4b0e      	ldr	r3, [pc, #56]	; (33e8 <system_clock_source_get_hz+0x4c>)
    33b0:	6858      	ldr	r0, [r3, #4]
    33b2:	e015      	b.n	33e0 <system_clock_source_get_hz+0x44>
    33b4:	4b0d      	ldr	r3, [pc, #52]	; (33ec <system_clock_source_get_hz+0x50>)
    33b6:	7d59      	ldrb	r1, [r3, #21]
    33b8:	0709      	lsls	r1, r1, #28
    33ba:	0f09      	lsrs	r1, r1, #28
    33bc:	3101      	adds	r1, #1
    33be:	480c      	ldr	r0, [pc, #48]	; (33f0 <system_clock_source_get_hz+0x54>)
    33c0:	4b0c      	ldr	r3, [pc, #48]	; (33f4 <system_clock_source_get_hz+0x58>)
    33c2:	4798      	blx	r3
    33c4:	e00c      	b.n	33e0 <system_clock_source_get_hz+0x44>
    33c6:	4b08      	ldr	r3, [pc, #32]	; (33e8 <system_clock_source_get_hz+0x4c>)
    33c8:	6898      	ldr	r0, [r3, #8]
    33ca:	e009      	b.n	33e0 <system_clock_source_get_hz+0x44>
    33cc:	4b07      	ldr	r3, [pc, #28]	; (33ec <system_clock_source_get_hz+0x50>)
    33ce:	7f1b      	ldrb	r3, [r3, #28]
    33d0:	2000      	movs	r0, #0
    33d2:	079b      	lsls	r3, r3, #30
    33d4:	d504      	bpl.n	33e0 <system_clock_source_get_hz+0x44>
    33d6:	4b04      	ldr	r3, [pc, #16]	; (33e8 <system_clock_source_get_hz+0x4c>)
    33d8:	6818      	ldr	r0, [r3, #0]
    33da:	e001      	b.n	33e0 <system_clock_source_get_hz+0x44>
    33dc:	2080      	movs	r0, #128	; 0x80
    33de:	0200      	lsls	r0, r0, #8
    33e0:	bd10      	pop	{r4, pc}
    33e2:	46c0      	nop			; (mov r8, r8)
    33e4:	000085c4 	.word	0x000085c4
    33e8:	200024b0 	.word	0x200024b0
    33ec:	40001000 	.word	0x40001000
    33f0:	02dc6c00 	.word	0x02dc6c00
    33f4:	00006b6d 	.word	0x00006b6d

000033f8 <system_clock_source_xosc32k_set_config>:
    33f8:	b5f0      	push	{r4, r5, r6, r7, lr}
    33fa:	46de      	mov	lr, fp
    33fc:	4657      	mov	r7, sl
    33fe:	464e      	mov	r6, r9
    3400:	4645      	mov	r5, r8
    3402:	b5e0      	push	{r5, r6, r7, lr}
    3404:	4a25      	ldr	r2, [pc, #148]	; (349c <system_clock_source_xosc32k_set_config+0xa4>)
    3406:	8a93      	ldrh	r3, [r2, #20]
    3408:	7845      	ldrb	r5, [r0, #1]
    340a:	7801      	ldrb	r1, [r0, #0]
    340c:	424c      	negs	r4, r1
    340e:	414c      	adcs	r4, r1
    3410:	46a1      	mov	r9, r4
    3412:	7881      	ldrb	r1, [r0, #2]
    3414:	468c      	mov	ip, r1
    3416:	78c1      	ldrb	r1, [r0, #3]
    3418:	4688      	mov	r8, r1
    341a:	7a46      	ldrb	r6, [r0, #9]
    341c:	7a07      	ldrb	r7, [r0, #8]
    341e:	7a81      	ldrb	r1, [r0, #10]
    3420:	468b      	mov	fp, r1
    3422:	491f      	ldr	r1, [pc, #124]	; (34a0 <system_clock_source_xosc32k_set_config+0xa8>)
    3424:	6844      	ldr	r4, [r0, #4]
    3426:	608c      	str	r4, [r1, #8]
    3428:	7ac1      	ldrb	r1, [r0, #11]
    342a:	0089      	lsls	r1, r1, #2
    342c:	7b84      	ldrb	r4, [r0, #14]
    342e:	0064      	lsls	r4, r4, #1
    3430:	4321      	orrs	r1, r4
    3432:	7b44      	ldrb	r4, [r0, #13]
    3434:	4321      	orrs	r1, r4
    3436:	b2c9      	uxtb	r1, r1
    3438:	7591      	strb	r1, [r2, #22]
    343a:	7b01      	ldrb	r1, [r0, #12]
    343c:	75d1      	strb	r1, [r2, #23]
    343e:	2101      	movs	r1, #1
    3440:	4648      	mov	r0, r9
    3442:	0080      	lsls	r0, r0, #2
    3444:	2404      	movs	r4, #4
    3446:	43a3      	bics	r3, r4
    3448:	4303      	orrs	r3, r0
    344a:	4640      	mov	r0, r8
    344c:	4008      	ands	r0, r1
    344e:	00c0      	lsls	r0, r0, #3
    3450:	3404      	adds	r4, #4
    3452:	43a3      	bics	r3, r4
    3454:	4303      	orrs	r3, r0
    3456:	4660      	mov	r0, ip
    3458:	4008      	ands	r0, r1
    345a:	0100      	lsls	r0, r0, #4
    345c:	3408      	adds	r4, #8
    345e:	43a3      	bics	r3, r4
    3460:	4303      	orrs	r3, r0
    3462:	400f      	ands	r7, r1
    3464:	01bf      	lsls	r7, r7, #6
    3466:	2040      	movs	r0, #64	; 0x40
    3468:	4383      	bics	r3, r0
    346a:	433b      	orrs	r3, r7
    346c:	400e      	ands	r6, r1
    346e:	01f6      	lsls	r6, r6, #7
    3470:	3040      	adds	r0, #64	; 0x40
    3472:	4383      	bics	r3, r0
    3474:	4333      	orrs	r3, r6
    3476:	3879      	subs	r0, #121	; 0x79
    3478:	4005      	ands	r5, r0
    347a:	022d      	lsls	r5, r5, #8
    347c:	4809      	ldr	r0, [pc, #36]	; (34a4 <system_clock_source_xosc32k_set_config+0xac>)
    347e:	4003      	ands	r3, r0
    3480:	432b      	orrs	r3, r5
    3482:	4658      	mov	r0, fp
    3484:	4001      	ands	r1, r0
    3486:	0309      	lsls	r1, r1, #12
    3488:	4807      	ldr	r0, [pc, #28]	; (34a8 <system_clock_source_xosc32k_set_config+0xb0>)
    348a:	4003      	ands	r3, r0
    348c:	430b      	orrs	r3, r1
    348e:	8293      	strh	r3, [r2, #20]
    3490:	bc3c      	pop	{r2, r3, r4, r5}
    3492:	4690      	mov	r8, r2
    3494:	4699      	mov	r9, r3
    3496:	46a2      	mov	sl, r4
    3498:	46ab      	mov	fp, r5
    349a:	bdf0      	pop	{r4, r5, r6, r7, pc}
    349c:	40001400 	.word	0x40001400
    34a0:	200024b0 	.word	0x200024b0
    34a4:	fffff8ff 	.word	0xfffff8ff
    34a8:	ffffefff 	.word	0xffffefff

000034ac <system_clock_source_dpll_set_config>:
    34ac:	b5f8      	push	{r3, r4, r5, r6, r7, lr}
    34ae:	0004      	movs	r4, r0
    34b0:	68c5      	ldr	r5, [r0, #12]
    34b2:	7d03      	ldrb	r3, [r0, #20]
    34b4:	2b01      	cmp	r3, #1
    34b6:	d04d      	beq.n	3554 <system_clock_source_dpll_set_config+0xa8>
    34b8:	68a3      	ldr	r3, [r4, #8]
    34ba:	0118      	lsls	r0, r3, #4
    34bc:	0029      	movs	r1, r5
    34be:	4b29      	ldr	r3, [pc, #164]	; (3564 <system_clock_source_dpll_set_config+0xb8>)
    34c0:	4798      	blx	r3
    34c2:	220f      	movs	r2, #15
    34c4:	4002      	ands	r2, r0
    34c6:	0903      	lsrs	r3, r0, #4
    34c8:	7821      	ldrb	r1, [r4, #0]
    34ca:	01c9      	lsls	r1, r1, #7
    34cc:	7866      	ldrb	r6, [r4, #1]
    34ce:	01b6      	lsls	r6, r6, #6
    34d0:	4331      	orrs	r1, r6
    34d2:	b2c9      	uxtb	r1, r1
    34d4:	4e24      	ldr	r6, [pc, #144]	; (3568 <system_clock_source_dpll_set_config+0xbc>)
    34d6:	7731      	strb	r1, [r6, #28]
    34d8:	0411      	lsls	r1, r2, #16
    34da:	3b01      	subs	r3, #1
    34dc:	051b      	lsls	r3, r3, #20
    34de:	0d1b      	lsrs	r3, r3, #20
    34e0:	430b      	orrs	r3, r1
    34e2:	6233      	str	r3, [r6, #32]
    34e4:	0037      	movs	r7, r6
    34e6:	262c      	movs	r6, #44	; 0x2c
    34e8:	2104      	movs	r1, #4
    34ea:	5dbb      	ldrb	r3, [r7, r6]
    34ec:	420b      	tst	r3, r1
    34ee:	d1fc      	bne.n	34ea <system_clock_source_dpll_set_config+0x3e>
    34f0:	78a3      	ldrb	r3, [r4, #2]
    34f2:	031b      	lsls	r3, r3, #12
    34f4:	78e1      	ldrb	r1, [r4, #3]
    34f6:	00c9      	lsls	r1, r1, #3
    34f8:	430b      	orrs	r3, r1
    34fa:	7921      	ldrb	r1, [r4, #4]
    34fc:	0089      	lsls	r1, r1, #2
    34fe:	430b      	orrs	r3, r1
    3500:	7ca1      	ldrb	r1, [r4, #18]
    3502:	2603      	movs	r6, #3
    3504:	4031      	ands	r1, r6
    3506:	430b      	orrs	r3, r1
    3508:	8a21      	ldrh	r1, [r4, #16]
    350a:	0409      	lsls	r1, r1, #16
    350c:	4f17      	ldr	r7, [pc, #92]	; (356c <system_clock_source_dpll_set_config+0xc0>)
    350e:	4039      	ands	r1, r7
    3510:	430b      	orrs	r3, r1
    3512:	7ce1      	ldrb	r1, [r4, #19]
    3514:	0209      	lsls	r1, r1, #8
    3516:	27e0      	movs	r7, #224	; 0xe0
    3518:	00ff      	lsls	r7, r7, #3
    351a:	4039      	ands	r1, r7
    351c:	430b      	orrs	r3, r1
    351e:	7d27      	ldrb	r7, [r4, #20]
    3520:	013f      	lsls	r7, r7, #4
    3522:	2130      	movs	r1, #48	; 0x30
    3524:	4039      	ands	r1, r7
    3526:	430b      	orrs	r3, r1
    3528:	490f      	ldr	r1, [pc, #60]	; (3568 <system_clock_source_dpll_set_config+0xbc>)
    352a:	624b      	str	r3, [r1, #36]	; 0x24
    352c:	7d63      	ldrb	r3, [r4, #21]
    352e:	401e      	ands	r6, r3
    3530:	2328      	movs	r3, #40	; 0x28
    3532:	54ce      	strb	r6, [r1, r3]
    3534:	000f      	movs	r7, r1
    3536:	262c      	movs	r6, #44	; 0x2c
    3538:	2108      	movs	r1, #8
    353a:	5dbb      	ldrb	r3, [r7, r6]
    353c:	420b      	tst	r3, r1
    353e:	d1fc      	bne.n	353a <system_clock_source_dpll_set_config+0x8e>
    3540:	230f      	movs	r3, #15
    3542:	4398      	bics	r0, r3
    3544:	1882      	adds	r2, r0, r2
    3546:	436a      	muls	r2, r5
    3548:	7d63      	ldrb	r3, [r4, #21]
    354a:	3304      	adds	r3, #4
    354c:	40da      	lsrs	r2, r3
    354e:	4b08      	ldr	r3, [pc, #32]	; (3570 <system_clock_source_dpll_set_config+0xc4>)
    3550:	601a      	str	r2, [r3, #0]
    3552:	bdf8      	pop	{r3, r4, r5, r6, r7, pc}
    3554:	8a01      	ldrh	r1, [r0, #16]
    3556:	3101      	adds	r1, #1
    3558:	0049      	lsls	r1, r1, #1
    355a:	0028      	movs	r0, r5
    355c:	4b01      	ldr	r3, [pc, #4]	; (3564 <system_clock_source_dpll_set_config+0xb8>)
    355e:	4798      	blx	r3
    3560:	0005      	movs	r5, r0
    3562:	e7a9      	b.n	34b8 <system_clock_source_dpll_set_config+0xc>
    3564:	00006b6d 	.word	0x00006b6d
    3568:	40001000 	.word	0x40001000
    356c:	07ff0000 	.word	0x07ff0000
    3570:	200024b0 	.word	0x200024b0

00003574 <system_clock_source_enable>:
    3574:	2807      	cmp	r0, #7
    3576:	d803      	bhi.n	3580 <system_clock_source_enable+0xc>
    3578:	0080      	lsls	r0, r0, #2
    357a:	4b18      	ldr	r3, [pc, #96]	; (35dc <system_clock_source_enable+0x68>)
    357c:	581b      	ldr	r3, [r3, r0]
    357e:	469f      	mov	pc, r3
    3580:	2017      	movs	r0, #23
    3582:	e029      	b.n	35d8 <system_clock_source_enable+0x64>
    3584:	4a16      	ldr	r2, [pc, #88]	; (35e0 <system_clock_source_enable+0x6c>)
    3586:	7d13      	ldrb	r3, [r2, #20]
    3588:	2102      	movs	r1, #2
    358a:	430b      	orrs	r3, r1
    358c:	7513      	strb	r3, [r2, #20]
    358e:	2000      	movs	r0, #0
    3590:	e022      	b.n	35d8 <system_clock_source_enable+0x64>
    3592:	4a14      	ldr	r2, [pc, #80]	; (35e4 <system_clock_source_enable+0x70>)
    3594:	6993      	ldr	r3, [r2, #24]
    3596:	2102      	movs	r1, #2
    3598:	430b      	orrs	r3, r1
    359a:	6193      	str	r3, [r2, #24]
    359c:	2000      	movs	r0, #0
    359e:	e01b      	b.n	35d8 <system_clock_source_enable+0x64>
    35a0:	4a0f      	ldr	r2, [pc, #60]	; (35e0 <system_clock_source_enable+0x6c>)
    35a2:	8a13      	ldrh	r3, [r2, #16]
    35a4:	2102      	movs	r1, #2
    35a6:	430b      	orrs	r3, r1
    35a8:	8213      	strh	r3, [r2, #16]
    35aa:	2000      	movs	r0, #0
    35ac:	e014      	b.n	35d8 <system_clock_source_enable+0x64>
    35ae:	4a0d      	ldr	r2, [pc, #52]	; (35e4 <system_clock_source_enable+0x70>)
    35b0:	8a93      	ldrh	r3, [r2, #20]
    35b2:	2102      	movs	r1, #2
    35b4:	430b      	orrs	r3, r1
    35b6:	8293      	strh	r3, [r2, #20]
    35b8:	2000      	movs	r0, #0
    35ba:	e00d      	b.n	35d8 <system_clock_source_enable+0x64>
    35bc:	4a08      	ldr	r2, [pc, #32]	; (35e0 <system_clock_source_enable+0x6c>)
    35be:	7f13      	ldrb	r3, [r2, #28]
    35c0:	2102      	movs	r1, #2
    35c2:	430b      	orrs	r3, r1
    35c4:	7713      	strb	r3, [r2, #28]
    35c6:	0010      	movs	r0, r2
    35c8:	312a      	adds	r1, #42	; 0x2a
    35ca:	2202      	movs	r2, #2
    35cc:	5c43      	ldrb	r3, [r0, r1]
    35ce:	4213      	tst	r3, r2
    35d0:	d1fc      	bne.n	35cc <system_clock_source_enable+0x58>
    35d2:	2000      	movs	r0, #0
    35d4:	e000      	b.n	35d8 <system_clock_source_enable+0x64>
    35d6:	2000      	movs	r0, #0
    35d8:	4770      	bx	lr
    35da:	46c0      	nop			; (mov r8, r8)
    35dc:	000085e4 	.word	0x000085e4
    35e0:	40001000 	.word	0x40001000
    35e4:	40001400 	.word	0x40001400

000035e8 <system_clock_init>:
    35e8:	b5f0      	push	{r4, r5, r6, r7, lr}
    35ea:	46c6      	mov	lr, r8
    35ec:	b500      	push	{lr}
    35ee:	b08e      	sub	sp, #56	; 0x38
    35f0:	2203      	movs	r2, #3
    35f2:	4b3f      	ldr	r3, [pc, #252]	; (36f0 <system_clock_init+0x108>)
    35f4:	609a      	str	r2, [r3, #8]
    35f6:	4a3f      	ldr	r2, [pc, #252]	; (36f4 <system_clock_init+0x10c>)
    35f8:	6853      	ldr	r3, [r2, #4]
    35fa:	211e      	movs	r1, #30
    35fc:	438b      	bics	r3, r1
    35fe:	3918      	subs	r1, #24
    3600:	430b      	orrs	r3, r1
    3602:	6053      	str	r3, [r2, #4]
    3604:	a80a      	add	r0, sp, #40	; 0x28
    3606:	2300      	movs	r3, #0
    3608:	7003      	strb	r3, [r0, #0]
    360a:	2280      	movs	r2, #128	; 0x80
    360c:	0212      	lsls	r2, r2, #8
    360e:	6042      	str	r2, [r0, #4]
    3610:	7083      	strb	r3, [r0, #2]
    3612:	2201      	movs	r2, #1
    3614:	70c2      	strb	r2, [r0, #3]
    3616:	7283      	strb	r3, [r0, #10]
    3618:	72c3      	strb	r3, [r0, #11]
    361a:	7303      	strb	r3, [r0, #12]
    361c:	7343      	strb	r3, [r0, #13]
    361e:	7383      	strb	r3, [r0, #14]
    3620:	3902      	subs	r1, #2
    3622:	7041      	strb	r1, [r0, #1]
    3624:	7243      	strb	r3, [r0, #9]
    3626:	7202      	strb	r2, [r0, #8]
    3628:	4b33      	ldr	r3, [pc, #204]	; (36f8 <system_clock_init+0x110>)
    362a:	4798      	blx	r3
    362c:	2005      	movs	r0, #5
    362e:	4b33      	ldr	r3, [pc, #204]	; (36fc <system_clock_init+0x114>)
    3630:	4798      	blx	r3
    3632:	4933      	ldr	r1, [pc, #204]	; (3700 <system_clock_init+0x118>)
    3634:	2201      	movs	r2, #1
    3636:	68cb      	ldr	r3, [r1, #12]
    3638:	421a      	tst	r2, r3
    363a:	d0fc      	beq.n	3636 <system_clock_init+0x4e>
    363c:	4b31      	ldr	r3, [pc, #196]	; (3704 <system_clock_init+0x11c>)
    363e:	7d1a      	ldrb	r2, [r3, #20]
    3640:	2180      	movs	r1, #128	; 0x80
    3642:	430a      	orrs	r2, r1
    3644:	751a      	strb	r2, [r3, #20]
    3646:	2202      	movs	r2, #2
    3648:	755a      	strb	r2, [r3, #21]
    364a:	001a      	movs	r2, r3
    364c:	6993      	ldr	r3, [r2, #24]
    364e:	2b00      	cmp	r3, #0
    3650:	d1fc      	bne.n	364c <system_clock_init+0x64>
    3652:	4b2d      	ldr	r3, [pc, #180]	; (3708 <system_clock_init+0x120>)
    3654:	4798      	blx	r3
    3656:	ad01      	add	r5, sp, #4
    3658:	2601      	movs	r6, #1
    365a:	9602      	str	r6, [sp, #8]
    365c:	2400      	movs	r4, #0
    365e:	706c      	strb	r4, [r5, #1]
    3660:	726c      	strb	r4, [r5, #9]
    3662:	2305      	movs	r3, #5
    3664:	702b      	strb	r3, [r5, #0]
    3666:	722e      	strb	r6, [r5, #8]
    3668:	0029      	movs	r1, r5
    366a:	2001      	movs	r0, #1
    366c:	4b27      	ldr	r3, [pc, #156]	; (370c <system_clock_init+0x124>)
    366e:	4698      	mov	r8, r3
    3670:	4798      	blx	r3
    3672:	2001      	movs	r0, #1
    3674:	4f26      	ldr	r7, [pc, #152]	; (3710 <system_clock_init+0x128>)
    3676:	47b8      	blx	r7
    3678:	606e      	str	r6, [r5, #4]
    367a:	706c      	strb	r4, [r5, #1]
    367c:	722c      	strb	r4, [r5, #8]
    367e:	726c      	strb	r4, [r5, #9]
    3680:	2307      	movs	r3, #7
    3682:	702b      	strb	r3, [r5, #0]
    3684:	0029      	movs	r1, r5
    3686:	2008      	movs	r0, #8
    3688:	47c0      	blx	r8
    368a:	2008      	movs	r0, #8
    368c:	47b8      	blx	r7
    368e:	a804      	add	r0, sp, #16
    3690:	7084      	strb	r4, [r0, #2]
    3692:	70c4      	strb	r4, [r0, #3]
    3694:	7104      	strb	r4, [r0, #4]
    3696:	4b1f      	ldr	r3, [pc, #124]	; (3714 <system_clock_init+0x12c>)
    3698:	6083      	str	r3, [r0, #8]
    369a:	8206      	strh	r6, [r0, #16]
    369c:	7544      	strb	r4, [r0, #21]
    369e:	74c4      	strb	r4, [r0, #19]
    36a0:	7484      	strb	r4, [r0, #18]
    36a2:	7004      	strb	r4, [r0, #0]
    36a4:	2301      	movs	r3, #1
    36a6:	7043      	strb	r3, [r0, #1]
    36a8:	7504      	strb	r4, [r0, #20]
    36aa:	4b1b      	ldr	r3, [pc, #108]	; (3718 <system_clock_init+0x130>)
    36ac:	60c3      	str	r3, [r0, #12]
    36ae:	4b1b      	ldr	r3, [pc, #108]	; (371c <system_clock_init+0x134>)
    36b0:	4798      	blx	r3
    36b2:	2007      	movs	r0, #7
    36b4:	4b11      	ldr	r3, [pc, #68]	; (36fc <system_clock_init+0x114>)
    36b6:	4798      	blx	r3
    36b8:	4812      	ldr	r0, [pc, #72]	; (3704 <system_clock_init+0x11c>)
    36ba:	2130      	movs	r1, #48	; 0x30
    36bc:	2203      	movs	r2, #3
    36be:	5c43      	ldrb	r3, [r0, r1]
    36c0:	4013      	ands	r3, r2
    36c2:	2b03      	cmp	r3, #3
    36c4:	d1fb      	bne.n	36be <system_clock_init+0xd6>
    36c6:	3b02      	subs	r3, #2
    36c8:	4a15      	ldr	r2, [pc, #84]	; (3720 <system_clock_init+0x138>)
    36ca:	7113      	strb	r3, [r2, #4]
    36cc:	a901      	add	r1, sp, #4
    36ce:	604b      	str	r3, [r1, #4]
    36d0:	2200      	movs	r2, #0
    36d2:	704a      	strb	r2, [r1, #1]
    36d4:	724a      	strb	r2, [r1, #9]
    36d6:	3207      	adds	r2, #7
    36d8:	700a      	strb	r2, [r1, #0]
    36da:	720b      	strb	r3, [r1, #8]
    36dc:	2000      	movs	r0, #0
    36de:	4b0b      	ldr	r3, [pc, #44]	; (370c <system_clock_init+0x124>)
    36e0:	4798      	blx	r3
    36e2:	2000      	movs	r0, #0
    36e4:	4b0a      	ldr	r3, [pc, #40]	; (3710 <system_clock_init+0x128>)
    36e6:	4798      	blx	r3
    36e8:	b00e      	add	sp, #56	; 0x38
    36ea:	bc04      	pop	{r2}
    36ec:	4690      	mov	r8, r2
    36ee:	bdf0      	pop	{r4, r5, r6, r7, pc}
    36f0:	40001800 	.word	0x40001800
    36f4:	41004000 	.word	0x41004000
    36f8:	000033f9 	.word	0x000033f9
    36fc:	00003575 	.word	0x00003575
    3700:	40001400 	.word	0x40001400
    3704:	40001000 	.word	0x40001000
    3708:	00003725 	.word	0x00003725
    370c:	00003749 	.word	0x00003749
    3710:	000037f5 	.word	0x000037f5
    3714:	02dc6c00 	.word	0x02dc6c00
    3718:	00007fff 	.word	0x00007fff
    371c:	000034ad 	.word	0x000034ad
    3720:	40000800 	.word	0x40000800

00003724 <system_gclk_init>:
    3724:	4a06      	ldr	r2, [pc, #24]	; (3740 <system_gclk_init+0x1c>)
    3726:	6953      	ldr	r3, [r2, #20]
    3728:	2180      	movs	r1, #128	; 0x80
    372a:	430b      	orrs	r3, r1
    372c:	6153      	str	r3, [r2, #20]
    372e:	2201      	movs	r2, #1
    3730:	4b04      	ldr	r3, [pc, #16]	; (3744 <system_gclk_init+0x20>)
    3732:	701a      	strb	r2, [r3, #0]
    3734:	0019      	movs	r1, r3
    3736:	780b      	ldrb	r3, [r1, #0]
    3738:	4213      	tst	r3, r2
    373a:	d1fc      	bne.n	3736 <system_gclk_init+0x12>
    373c:	4770      	bx	lr
    373e:	46c0      	nop			; (mov r8, r8)
    3740:	40000800 	.word	0x40000800
    3744:	40001c00 	.word	0x40001c00

00003748 <system_gclk_gen_set_config>:
    3748:	b570      	push	{r4, r5, r6, lr}
    374a:	0004      	movs	r4, r0
    374c:	780d      	ldrb	r5, [r1, #0]
    374e:	784b      	ldrb	r3, [r1, #1]
    3750:	2b00      	cmp	r3, #0
    3752:	d002      	beq.n	375a <system_gclk_gen_set_config+0x12>
    3754:	2380      	movs	r3, #128	; 0x80
    3756:	00db      	lsls	r3, r3, #3
    3758:	431d      	orrs	r5, r3
    375a:	7a4b      	ldrb	r3, [r1, #9]
    375c:	2b00      	cmp	r3, #0
    375e:	d002      	beq.n	3766 <system_gclk_gen_set_config+0x1e>
    3760:	2380      	movs	r3, #128	; 0x80
    3762:	011b      	lsls	r3, r3, #4
    3764:	431d      	orrs	r5, r3
    3766:	6848      	ldr	r0, [r1, #4]
    3768:	2801      	cmp	r0, #1
    376a:	d90f      	bls.n	378c <system_gclk_gen_set_config+0x44>
    376c:	1e43      	subs	r3, r0, #1
    376e:	4218      	tst	r0, r3
    3770:	d131      	bne.n	37d6 <system_gclk_gen_set_config+0x8e>
    3772:	2802      	cmp	r0, #2
    3774:	d92d      	bls.n	37d2 <system_gclk_gen_set_config+0x8a>
    3776:	2302      	movs	r3, #2
    3778:	2200      	movs	r2, #0
    377a:	3201      	adds	r2, #1
    377c:	005b      	lsls	r3, r3, #1
    377e:	4298      	cmp	r0, r3
    3780:	d8fb      	bhi.n	377a <system_gclk_gen_set_config+0x32>
    3782:	2380      	movs	r3, #128	; 0x80
    3784:	015b      	lsls	r3, r3, #5
    3786:	431d      	orrs	r5, r3
    3788:	0412      	lsls	r2, r2, #16
    378a:	4315      	orrs	r5, r2
    378c:	7a0b      	ldrb	r3, [r1, #8]
    378e:	2b00      	cmp	r3, #0
    3790:	d002      	beq.n	3798 <system_gclk_gen_set_config+0x50>
    3792:	2380      	movs	r3, #128	; 0x80
    3794:	019b      	lsls	r3, r3, #6
    3796:	431d      	orrs	r5, r3
    3798:	2604      	movs	r6, #4
    379a:	40a6      	lsls	r6, r4
    379c:	4911      	ldr	r1, [pc, #68]	; (37e4 <system_gclk_gen_set_config+0x9c>)
    379e:	4a12      	ldr	r2, [pc, #72]	; (37e8 <system_gclk_gen_set_config+0xa0>)
    37a0:	684b      	ldr	r3, [r1, #4]
    37a2:	4013      	ands	r3, r2
    37a4:	421e      	tst	r6, r3
    37a6:	d1fb      	bne.n	37a0 <system_gclk_gen_set_config+0x58>
    37a8:	4b10      	ldr	r3, [pc, #64]	; (37ec <system_gclk_gen_set_config+0xa4>)
    37aa:	4798      	blx	r3
    37ac:	00a4      	lsls	r4, r4, #2
    37ae:	4b0d      	ldr	r3, [pc, #52]	; (37e4 <system_gclk_gen_set_config+0x9c>)
    37b0:	469c      	mov	ip, r3
    37b2:	4464      	add	r4, ip
    37b4:	6a22      	ldr	r2, [r4, #32]
    37b6:	2380      	movs	r3, #128	; 0x80
    37b8:	005b      	lsls	r3, r3, #1
    37ba:	401a      	ands	r2, r3
    37bc:	432a      	orrs	r2, r5
    37be:	6222      	str	r2, [r4, #32]
    37c0:	4661      	mov	r1, ip
    37c2:	4a09      	ldr	r2, [pc, #36]	; (37e8 <system_gclk_gen_set_config+0xa0>)
    37c4:	684b      	ldr	r3, [r1, #4]
    37c6:	4013      	ands	r3, r2
    37c8:	421e      	tst	r6, r3
    37ca:	d1fb      	bne.n	37c4 <system_gclk_gen_set_config+0x7c>
    37cc:	4b08      	ldr	r3, [pc, #32]	; (37f0 <system_gclk_gen_set_config+0xa8>)
    37ce:	4798      	blx	r3
    37d0:	bd70      	pop	{r4, r5, r6, pc}
    37d2:	2200      	movs	r2, #0
    37d4:	e7d5      	b.n	3782 <system_gclk_gen_set_config+0x3a>
    37d6:	0400      	lsls	r0, r0, #16
    37d8:	2380      	movs	r3, #128	; 0x80
    37da:	009b      	lsls	r3, r3, #2
    37dc:	4318      	orrs	r0, r3
    37de:	4305      	orrs	r5, r0
    37e0:	e7d4      	b.n	378c <system_gclk_gen_set_config+0x44>
    37e2:	46c0      	nop			; (mov r8, r8)
    37e4:	40001c00 	.word	0x40001c00
    37e8:	000007fc 	.word	0x000007fc
    37ec:	0000240d 	.word	0x0000240d
    37f0:	0000244d 	.word	0x0000244d

000037f4 <system_gclk_gen_enable>:
    37f4:	b510      	push	{r4, lr}
    37f6:	0004      	movs	r4, r0
    37f8:	2204      	movs	r2, #4
    37fa:	4082      	lsls	r2, r0
    37fc:	4809      	ldr	r0, [pc, #36]	; (3824 <system_gclk_gen_enable+0x30>)
    37fe:	490a      	ldr	r1, [pc, #40]	; (3828 <system_gclk_gen_enable+0x34>)
    3800:	6843      	ldr	r3, [r0, #4]
    3802:	400b      	ands	r3, r1
    3804:	421a      	tst	r2, r3
    3806:	d1fb      	bne.n	3800 <system_gclk_gen_enable+0xc>
    3808:	4b08      	ldr	r3, [pc, #32]	; (382c <system_gclk_gen_enable+0x38>)
    380a:	4798      	blx	r3
    380c:	00a4      	lsls	r4, r4, #2
    380e:	4b05      	ldr	r3, [pc, #20]	; (3824 <system_gclk_gen_enable+0x30>)
    3810:	469c      	mov	ip, r3
    3812:	4464      	add	r4, ip
    3814:	6a22      	ldr	r2, [r4, #32]
    3816:	2380      	movs	r3, #128	; 0x80
    3818:	005b      	lsls	r3, r3, #1
    381a:	4313      	orrs	r3, r2
    381c:	6223      	str	r3, [r4, #32]
    381e:	4b04      	ldr	r3, [pc, #16]	; (3830 <system_gclk_gen_enable+0x3c>)
    3820:	4798      	blx	r3
    3822:	bd10      	pop	{r4, pc}
    3824:	40001c00 	.word	0x40001c00
    3828:	000007fc 	.word	0x000007fc
    382c:	0000240d 	.word	0x0000240d
    3830:	0000244d 	.word	0x0000244d

00003834 <system_gclk_gen_get_hz>:
    3834:	b5f8      	push	{r3, r4, r5, r6, r7, lr}
    3836:	0004      	movs	r4, r0
    3838:	2204      	movs	r2, #4
    383a:	4082      	lsls	r2, r0
    383c:	4812      	ldr	r0, [pc, #72]	; (3888 <system_gclk_gen_get_hz+0x54>)
    383e:	4913      	ldr	r1, [pc, #76]	; (388c <system_gclk_gen_get_hz+0x58>)
    3840:	6843      	ldr	r3, [r0, #4]
    3842:	400b      	ands	r3, r1
    3844:	421a      	tst	r2, r3
    3846:	d1fb      	bne.n	3840 <system_gclk_gen_get_hz+0xc>
    3848:	4b11      	ldr	r3, [pc, #68]	; (3890 <system_gclk_gen_get_hz+0x5c>)
    384a:	4798      	blx	r3
    384c:	4f0e      	ldr	r7, [pc, #56]	; (3888 <system_gclk_gen_get_hz+0x54>)
    384e:	3408      	adds	r4, #8
    3850:	00a4      	lsls	r4, r4, #2
    3852:	59e0      	ldr	r0, [r4, r7]
    3854:	0740      	lsls	r0, r0, #29
    3856:	0f40      	lsrs	r0, r0, #29
    3858:	4b0e      	ldr	r3, [pc, #56]	; (3894 <system_gclk_gen_get_hz+0x60>)
    385a:	4798      	blx	r3
    385c:	0006      	movs	r6, r0
    385e:	59e5      	ldr	r5, [r4, r7]
    3860:	04ed      	lsls	r5, r5, #19
    3862:	0fed      	lsrs	r5, r5, #31
    3864:	59e4      	ldr	r4, [r4, r7]
    3866:	0c24      	lsrs	r4, r4, #16
    3868:	4b0b      	ldr	r3, [pc, #44]	; (3898 <system_gclk_gen_get_hz+0x64>)
    386a:	4798      	blx	r3
    386c:	2d00      	cmp	r5, #0
    386e:	d107      	bne.n	3880 <system_gclk_gen_get_hz+0x4c>
    3870:	2c01      	cmp	r4, #1
    3872:	d907      	bls.n	3884 <system_gclk_gen_get_hz+0x50>
    3874:	0021      	movs	r1, r4
    3876:	0030      	movs	r0, r6
    3878:	4b08      	ldr	r3, [pc, #32]	; (389c <system_gclk_gen_get_hz+0x68>)
    387a:	4798      	blx	r3
    387c:	0006      	movs	r6, r0
    387e:	e001      	b.n	3884 <system_gclk_gen_get_hz+0x50>
    3880:	3401      	adds	r4, #1
    3882:	40e6      	lsrs	r6, r4
    3884:	0030      	movs	r0, r6
    3886:	bdf8      	pop	{r3, r4, r5, r6, r7, pc}
    3888:	40001c00 	.word	0x40001c00
    388c:	000007fc 	.word	0x000007fc
    3890:	0000240d 	.word	0x0000240d
    3894:	0000339d 	.word	0x0000339d
    3898:	0000244d 	.word	0x0000244d
    389c:	00006b6d 	.word	0x00006b6d

000038a0 <system_gclk_chan_enable>:
    38a0:	b510      	push	{r4, lr}
    38a2:	0004      	movs	r4, r0
    38a4:	4b09      	ldr	r3, [pc, #36]	; (38cc <system_gclk_chan_enable+0x2c>)
    38a6:	4798      	blx	r3
    38a8:	00a0      	lsls	r0, r4, #2
    38aa:	4b09      	ldr	r3, [pc, #36]	; (38d0 <system_gclk_chan_enable+0x30>)
    38ac:	469c      	mov	ip, r3
    38ae:	4460      	add	r0, ip
    38b0:	2280      	movs	r2, #128	; 0x80
    38b2:	5883      	ldr	r3, [r0, r2]
    38b4:	2140      	movs	r1, #64	; 0x40
    38b6:	430b      	orrs	r3, r1
    38b8:	5083      	str	r3, [r0, r2]
    38ba:	3140      	adds	r1, #64	; 0x40
    38bc:	3a40      	subs	r2, #64	; 0x40
    38be:	5843      	ldr	r3, [r0, r1]
    38c0:	421a      	tst	r2, r3
    38c2:	d0fc      	beq.n	38be <system_gclk_chan_enable+0x1e>
    38c4:	4b03      	ldr	r3, [pc, #12]	; (38d4 <system_gclk_chan_enable+0x34>)
    38c6:	4798      	blx	r3
    38c8:	bd10      	pop	{r4, pc}
    38ca:	46c0      	nop			; (mov r8, r8)
    38cc:	0000240d 	.word	0x0000240d
    38d0:	40001c00 	.word	0x40001c00
    38d4:	0000244d 	.word	0x0000244d

000038d8 <system_gclk_chan_disable>:
    38d8:	b510      	push	{r4, lr}
    38da:	0004      	movs	r4, r0
    38dc:	4b09      	ldr	r3, [pc, #36]	; (3904 <system_gclk_chan_disable+0x2c>)
    38de:	4798      	blx	r3
    38e0:	00a0      	lsls	r0, r4, #2
    38e2:	4b09      	ldr	r3, [pc, #36]	; (3908 <system_gclk_chan_disable+0x30>)
    38e4:	469c      	mov	ip, r3
    38e6:	4460      	add	r0, ip
    38e8:	2280      	movs	r2, #128	; 0x80
    38ea:	5883      	ldr	r3, [r0, r2]
    38ec:	2140      	movs	r1, #64	; 0x40
    38ee:	438b      	bics	r3, r1
    38f0:	5083      	str	r3, [r0, r2]
    38f2:	3140      	adds	r1, #64	; 0x40
    38f4:	3a40      	subs	r2, #64	; 0x40
    38f6:	5843      	ldr	r3, [r0, r1]
    38f8:	421a      	tst	r2, r3
    38fa:	d1fc      	bne.n	38f6 <system_gclk_chan_disable+0x1e>
    38fc:	4b03      	ldr	r3, [pc, #12]	; (390c <system_gclk_chan_disable+0x34>)
    38fe:	4798      	blx	r3
    3900:	bd10      	pop	{r4, pc}
    3902:	46c0      	nop			; (mov r8, r8)
    3904:	0000240d 	.word	0x0000240d
    3908:	40001c00 	.word	0x40001c00
    390c:	0000244d 	.word	0x0000244d

00003910 <system_gclk_chan_set_config>:
    3910:	b570      	push	{r4, r5, r6, lr}
    3912:	0004      	movs	r4, r0
    3914:	000d      	movs	r5, r1
    3916:	4b05      	ldr	r3, [pc, #20]	; (392c <system_gclk_chan_set_config+0x1c>)
    3918:	4798      	blx	r3
    391a:	782a      	ldrb	r2, [r5, #0]
    391c:	230f      	movs	r3, #15
    391e:	4013      	ands	r3, r2
    3920:	3420      	adds	r4, #32
    3922:	00a4      	lsls	r4, r4, #2
    3924:	4a02      	ldr	r2, [pc, #8]	; (3930 <system_gclk_chan_set_config+0x20>)
    3926:	50a3      	str	r3, [r4, r2]
    3928:	bd70      	pop	{r4, r5, r6, pc}
    392a:	46c0      	nop			; (mov r8, r8)
    392c:	000038d9 	.word	0x000038d9
    3930:	40001c00 	.word	0x40001c00

00003934 <system_gclk_chan_get_hz>:
    3934:	b510      	push	{r4, lr}
    3936:	0004      	movs	r4, r0
    3938:	4b06      	ldr	r3, [pc, #24]	; (3954 <system_gclk_chan_get_hz+0x20>)
    393a:	4798      	blx	r3
    393c:	3420      	adds	r4, #32
    393e:	00a4      	lsls	r4, r4, #2
    3940:	4b05      	ldr	r3, [pc, #20]	; (3958 <system_gclk_chan_get_hz+0x24>)
    3942:	58e4      	ldr	r4, [r4, r3]
    3944:	0724      	lsls	r4, r4, #28
    3946:	0f24      	lsrs	r4, r4, #28
    3948:	4b04      	ldr	r3, [pc, #16]	; (395c <system_gclk_chan_get_hz+0x28>)
    394a:	4798      	blx	r3
    394c:	0020      	movs	r0, r4
    394e:	4b04      	ldr	r3, [pc, #16]	; (3960 <system_gclk_chan_get_hz+0x2c>)
    3950:	4798      	blx	r3
    3952:	bd10      	pop	{r4, pc}
    3954:	0000240d 	.word	0x0000240d
    3958:	40001c00 	.word	0x40001c00
    395c:	0000244d 	.word	0x0000244d
    3960:	00003835 	.word	0x00003835

00003964 <_system_pinmux_config>:
    3964:	b530      	push	{r4, r5, lr}
    3966:	78d3      	ldrb	r3, [r2, #3]
    3968:	2b00      	cmp	r3, #0
    396a:	d135      	bne.n	39d8 <_system_pinmux_config+0x74>
    396c:	7813      	ldrb	r3, [r2, #0]
    396e:	2b80      	cmp	r3, #128	; 0x80
    3970:	d029      	beq.n	39c6 <_system_pinmux_config+0x62>
    3972:	061b      	lsls	r3, r3, #24
    3974:	2480      	movs	r4, #128	; 0x80
    3976:	0264      	lsls	r4, r4, #9
    3978:	4323      	orrs	r3, r4
    397a:	7854      	ldrb	r4, [r2, #1]
    397c:	2502      	movs	r5, #2
    397e:	43ac      	bics	r4, r5
    3980:	d106      	bne.n	3990 <_system_pinmux_config+0x2c>
    3982:	7894      	ldrb	r4, [r2, #2]
    3984:	2c00      	cmp	r4, #0
    3986:	d120      	bne.n	39ca <_system_pinmux_config+0x66>
    3988:	2480      	movs	r4, #128	; 0x80
    398a:	02a4      	lsls	r4, r4, #10
    398c:	4323      	orrs	r3, r4
    398e:	6041      	str	r1, [r0, #4]
    3990:	7854      	ldrb	r4, [r2, #1]
    3992:	3c01      	subs	r4, #1
    3994:	2c01      	cmp	r4, #1
    3996:	d91c      	bls.n	39d2 <_system_pinmux_config+0x6e>
    3998:	040d      	lsls	r5, r1, #16
    399a:	0c2d      	lsrs	r5, r5, #16
    399c:	24a0      	movs	r4, #160	; 0xa0
    399e:	05e4      	lsls	r4, r4, #23
    39a0:	432c      	orrs	r4, r5
    39a2:	431c      	orrs	r4, r3
    39a4:	6284      	str	r4, [r0, #40]	; 0x28
    39a6:	0c0d      	lsrs	r5, r1, #16
    39a8:	24d0      	movs	r4, #208	; 0xd0
    39aa:	0624      	lsls	r4, r4, #24
    39ac:	432c      	orrs	r4, r5
    39ae:	431c      	orrs	r4, r3
    39b0:	6284      	str	r4, [r0, #40]	; 0x28
    39b2:	78d4      	ldrb	r4, [r2, #3]
    39b4:	2c00      	cmp	r4, #0
    39b6:	d122      	bne.n	39fe <_system_pinmux_config+0x9a>
    39b8:	035b      	lsls	r3, r3, #13
    39ba:	d51c      	bpl.n	39f6 <_system_pinmux_config+0x92>
    39bc:	7893      	ldrb	r3, [r2, #2]
    39be:	2b01      	cmp	r3, #1
    39c0:	d01e      	beq.n	3a00 <_system_pinmux_config+0x9c>
    39c2:	6141      	str	r1, [r0, #20]
    39c4:	e017      	b.n	39f6 <_system_pinmux_config+0x92>
    39c6:	2300      	movs	r3, #0
    39c8:	e7d7      	b.n	397a <_system_pinmux_config+0x16>
    39ca:	24c0      	movs	r4, #192	; 0xc0
    39cc:	02e4      	lsls	r4, r4, #11
    39ce:	4323      	orrs	r3, r4
    39d0:	e7dd      	b.n	398e <_system_pinmux_config+0x2a>
    39d2:	4c0d      	ldr	r4, [pc, #52]	; (3a08 <_system_pinmux_config+0xa4>)
    39d4:	4023      	ands	r3, r4
    39d6:	e7df      	b.n	3998 <_system_pinmux_config+0x34>
    39d8:	6041      	str	r1, [r0, #4]
    39da:	040c      	lsls	r4, r1, #16
    39dc:	0c24      	lsrs	r4, r4, #16
    39de:	23a0      	movs	r3, #160	; 0xa0
    39e0:	05db      	lsls	r3, r3, #23
    39e2:	4323      	orrs	r3, r4
    39e4:	6283      	str	r3, [r0, #40]	; 0x28
    39e6:	0c0c      	lsrs	r4, r1, #16
    39e8:	23d0      	movs	r3, #208	; 0xd0
    39ea:	061b      	lsls	r3, r3, #24
    39ec:	4323      	orrs	r3, r4
    39ee:	6283      	str	r3, [r0, #40]	; 0x28
    39f0:	78d3      	ldrb	r3, [r2, #3]
    39f2:	2b00      	cmp	r3, #0
    39f4:	d103      	bne.n	39fe <_system_pinmux_config+0x9a>
    39f6:	7853      	ldrb	r3, [r2, #1]
    39f8:	3b01      	subs	r3, #1
    39fa:	2b01      	cmp	r3, #1
    39fc:	d902      	bls.n	3a04 <_system_pinmux_config+0xa0>
    39fe:	bd30      	pop	{r4, r5, pc}
    3a00:	6181      	str	r1, [r0, #24]
    3a02:	e7f8      	b.n	39f6 <_system_pinmux_config+0x92>
    3a04:	6081      	str	r1, [r0, #8]
    3a06:	e7fa      	b.n	39fe <_system_pinmux_config+0x9a>
    3a08:	fffbffff 	.word	0xfffbffff

00003a0c <system_pinmux_pin_set_config>:
    3a0c:	b510      	push	{r4, lr}
    3a0e:	000a      	movs	r2, r1
    3a10:	09c1      	lsrs	r1, r0, #7
    3a12:	2300      	movs	r3, #0
    3a14:	2900      	cmp	r1, #0
    3a16:	d105      	bne.n	3a24 <system_pinmux_pin_set_config+0x18>
    3a18:	0943      	lsrs	r3, r0, #5
    3a1a:	01db      	lsls	r3, r3, #7
    3a1c:	2182      	movs	r1, #130	; 0x82
    3a1e:	05c9      	lsls	r1, r1, #23
    3a20:	468c      	mov	ip, r1
    3a22:	4463      	add	r3, ip
    3a24:	241f      	movs	r4, #31
    3a26:	4020      	ands	r0, r4
    3a28:	2101      	movs	r1, #1
    3a2a:	4081      	lsls	r1, r0
    3a2c:	0018      	movs	r0, r3
    3a2e:	4b01      	ldr	r3, [pc, #4]	; (3a34 <system_pinmux_pin_set_config+0x28>)
    3a30:	4798      	blx	r3
    3a32:	bd10      	pop	{r4, pc}
    3a34:	00003965 	.word	0x00003965

00003a38 <_system_dummy_init>:
    3a38:	4770      	bx	lr
	...

00003a3c <system_init>:
    3a3c:	b510      	push	{r4, lr}
    3a3e:	4b05      	ldr	r3, [pc, #20]	; (3a54 <system_init+0x18>)
    3a40:	4798      	blx	r3
    3a42:	4b05      	ldr	r3, [pc, #20]	; (3a58 <system_init+0x1c>)
    3a44:	4798      	blx	r3
    3a46:	4b05      	ldr	r3, [pc, #20]	; (3a5c <system_init+0x20>)
    3a48:	4798      	blx	r3
    3a4a:	4b05      	ldr	r3, [pc, #20]	; (3a60 <system_init+0x24>)
    3a4c:	4798      	blx	r3
    3a4e:	4b05      	ldr	r3, [pc, #20]	; (3a64 <system_init+0x28>)
    3a50:	4798      	blx	r3
    3a52:	bd10      	pop	{r4, pc}
    3a54:	000035e9 	.word	0x000035e9
    3a58:	0000247d 	.word	0x0000247d
    3a5c:	00003a39 	.word	0x00003a39
    3a60:	00003a39 	.word	0x00003a39
    3a64:	00003a39 	.word	0x00003a39

00003a68 <Dummy_Handler>:
    3a68:	e7fe      	b.n	3a68 <Dummy_Handler>
	...

00003a6c <Reset_Handler>:
    3a6c:	b510      	push	{r4, lr}
    3a6e:	4a17      	ldr	r2, [pc, #92]	; (3acc <Reset_Handler+0x60>)
    3a70:	4b17      	ldr	r3, [pc, #92]	; (3ad0 <Reset_Handler+0x64>)
    3a72:	429a      	cmp	r2, r3
    3a74:	d011      	beq.n	3a9a <Reset_Handler+0x2e>
    3a76:	001a      	movs	r2, r3
    3a78:	4b16      	ldr	r3, [pc, #88]	; (3ad4 <Reset_Handler+0x68>)
    3a7a:	429a      	cmp	r2, r3
    3a7c:	d20d      	bcs.n	3a9a <Reset_Handler+0x2e>
    3a7e:	4a16      	ldr	r2, [pc, #88]	; (3ad8 <Reset_Handler+0x6c>)
    3a80:	3303      	adds	r3, #3
    3a82:	1a9b      	subs	r3, r3, r2
    3a84:	089b      	lsrs	r3, r3, #2
    3a86:	3301      	adds	r3, #1
    3a88:	009b      	lsls	r3, r3, #2
    3a8a:	2200      	movs	r2, #0
    3a8c:	4810      	ldr	r0, [pc, #64]	; (3ad0 <Reset_Handler+0x64>)
    3a8e:	490f      	ldr	r1, [pc, #60]	; (3acc <Reset_Handler+0x60>)
    3a90:	588c      	ldr	r4, [r1, r2]
    3a92:	5084      	str	r4, [r0, r2]
    3a94:	3204      	adds	r2, #4
    3a96:	429a      	cmp	r2, r3
    3a98:	d1fa      	bne.n	3a90 <Reset_Handler+0x24>
    3a9a:	4a10      	ldr	r2, [pc, #64]	; (3adc <Reset_Handler+0x70>)
    3a9c:	4b10      	ldr	r3, [pc, #64]	; (3ae0 <Reset_Handler+0x74>)
    3a9e:	429a      	cmp	r2, r3
    3aa0:	d20a      	bcs.n	3ab8 <Reset_Handler+0x4c>
    3aa2:	43d3      	mvns	r3, r2
    3aa4:	490e      	ldr	r1, [pc, #56]	; (3ae0 <Reset_Handler+0x74>)
    3aa6:	185b      	adds	r3, r3, r1
    3aa8:	2103      	movs	r1, #3
    3aaa:	438b      	bics	r3, r1
    3aac:	3304      	adds	r3, #4
    3aae:	189b      	adds	r3, r3, r2
    3ab0:	2100      	movs	r1, #0
    3ab2:	c202      	stmia	r2!, {r1}
    3ab4:	4293      	cmp	r3, r2
    3ab6:	d1fc      	bne.n	3ab2 <Reset_Handler+0x46>
    3ab8:	4a0a      	ldr	r2, [pc, #40]	; (3ae4 <Reset_Handler+0x78>)
    3aba:	21ff      	movs	r1, #255	; 0xff
    3abc:	4b0a      	ldr	r3, [pc, #40]	; (3ae8 <Reset_Handler+0x7c>)
    3abe:	438b      	bics	r3, r1
    3ac0:	6093      	str	r3, [r2, #8]
    3ac2:	4b0a      	ldr	r3, [pc, #40]	; (3aec <Reset_Handler+0x80>)
    3ac4:	4798      	blx	r3
    3ac6:	4b0a      	ldr	r3, [pc, #40]	; (3af0 <Reset_Handler+0x84>)
    3ac8:	4798      	blx	r3
    3aca:	e7fe      	b.n	3aca <Reset_Handler+0x5e>
    3acc:	0000ae60 	.word	0x0000ae60
    3ad0:	20000000 	.word	0x20000000
    3ad4:	20000264 	.word	0x20000264
    3ad8:	20000004 	.word	0x20000004
    3adc:	20000264 	.word	0x20000264
    3ae0:	20002ba0 	.word	0x20002ba0
    3ae4:	e000ed00 	.word	0xe000ed00
    3ae8:	00000000 	.word	0x00000000
    3aec:	00006ed9 	.word	0x00006ed9
    3af0:	00006789 	.word	0x00006789

00003af4 <_read>:
    3af4:	b5f0      	push	{r4, r5, r6, r7, lr}
    3af6:	46c6      	mov	lr, r8
    3af8:	b500      	push	{lr}
    3afa:	000c      	movs	r4, r1
    3afc:	4690      	mov	r8, r2
    3afe:	2800      	cmp	r0, #0
    3b00:	d10f      	bne.n	3b22 <_read+0x2e>
    3b02:	2a00      	cmp	r2, #0
    3b04:	dd11      	ble.n	3b2a <_read+0x36>
    3b06:	188f      	adds	r7, r1, r2
    3b08:	4e09      	ldr	r6, [pc, #36]	; (3b30 <_read+0x3c>)
    3b0a:	4d0a      	ldr	r5, [pc, #40]	; (3b34 <_read+0x40>)
    3b0c:	6830      	ldr	r0, [r6, #0]
    3b0e:	0021      	movs	r1, r4
    3b10:	682b      	ldr	r3, [r5, #0]
    3b12:	4798      	blx	r3
    3b14:	3401      	adds	r4, #1
    3b16:	42bc      	cmp	r4, r7
    3b18:	d1f8      	bne.n	3b0c <_read+0x18>
    3b1a:	4640      	mov	r0, r8
    3b1c:	bc04      	pop	{r2}
    3b1e:	4690      	mov	r8, r2
    3b20:	bdf0      	pop	{r4, r5, r6, r7, pc}
    3b22:	2301      	movs	r3, #1
    3b24:	425b      	negs	r3, r3
    3b26:	4698      	mov	r8, r3
    3b28:	e7f7      	b.n	3b1a <_read+0x26>
    3b2a:	4680      	mov	r8, r0
    3b2c:	e7f5      	b.n	3b1a <_read+0x26>
    3b2e:	46c0      	nop			; (mov r8, r8)
    3b30:	20002b6c 	.word	0x20002b6c
    3b34:	20002b64 	.word	0x20002b64

00003b38 <_write>:
    3b38:	b5f0      	push	{r4, r5, r6, r7, lr}
    3b3a:	46c6      	mov	lr, r8
    3b3c:	b500      	push	{lr}
    3b3e:	000e      	movs	r6, r1
    3b40:	0015      	movs	r5, r2
    3b42:	3801      	subs	r0, #1
    3b44:	2802      	cmp	r0, #2
    3b46:	d810      	bhi.n	3b6a <_write+0x32>
    3b48:	2a00      	cmp	r2, #0
    3b4a:	d011      	beq.n	3b70 <_write+0x38>
    3b4c:	2400      	movs	r4, #0
    3b4e:	4b0c      	ldr	r3, [pc, #48]	; (3b80 <_write+0x48>)
    3b50:	4698      	mov	r8, r3
    3b52:	4f0c      	ldr	r7, [pc, #48]	; (3b84 <_write+0x4c>)
    3b54:	4643      	mov	r3, r8
    3b56:	6818      	ldr	r0, [r3, #0]
    3b58:	5d31      	ldrb	r1, [r6, r4]
    3b5a:	683b      	ldr	r3, [r7, #0]
    3b5c:	4798      	blx	r3
    3b5e:	2800      	cmp	r0, #0
    3b60:	db08      	blt.n	3b74 <_write+0x3c>
    3b62:	3401      	adds	r4, #1
    3b64:	42a5      	cmp	r5, r4
    3b66:	d1f5      	bne.n	3b54 <_write+0x1c>
    3b68:	e006      	b.n	3b78 <_write+0x40>
    3b6a:	2401      	movs	r4, #1
    3b6c:	4264      	negs	r4, r4
    3b6e:	e003      	b.n	3b78 <_write+0x40>
    3b70:	0014      	movs	r4, r2
    3b72:	e001      	b.n	3b78 <_write+0x40>
    3b74:	2401      	movs	r4, #1
    3b76:	4264      	negs	r4, r4
    3b78:	0020      	movs	r0, r4
    3b7a:	bc04      	pop	{r2}
    3b7c:	4690      	mov	r8, r2
    3b7e:	bdf0      	pop	{r4, r5, r6, r7, pc}
    3b80:	20002b6c 	.word	0x20002b6c
    3b84:	20002b68 	.word	0x20002b68

00003b88 <_sbrk>:
    3b88:	0003      	movs	r3, r0
    3b8a:	4a06      	ldr	r2, [pc, #24]	; (3ba4 <_sbrk+0x1c>)
    3b8c:	6812      	ldr	r2, [r2, #0]
    3b8e:	2a00      	cmp	r2, #0
    3b90:	d004      	beq.n	3b9c <_sbrk+0x14>
    3b92:	4a04      	ldr	r2, [pc, #16]	; (3ba4 <_sbrk+0x1c>)
    3b94:	6810      	ldr	r0, [r2, #0]
    3b96:	18c3      	adds	r3, r0, r3
    3b98:	6013      	str	r3, [r2, #0]
    3b9a:	4770      	bx	lr
    3b9c:	4902      	ldr	r1, [pc, #8]	; (3ba8 <_sbrk+0x20>)
    3b9e:	4a01      	ldr	r2, [pc, #4]	; (3ba4 <_sbrk+0x1c>)
    3ba0:	6011      	str	r1, [r2, #0]
    3ba2:	e7f6      	b.n	3b92 <_sbrk+0xa>
    3ba4:	200024bc 	.word	0x200024bc
    3ba8:	20006ba0 	.word	0x20006ba0

00003bac <_close>:
    3bac:	2001      	movs	r0, #1
    3bae:	4240      	negs	r0, r0
    3bb0:	4770      	bx	lr

00003bb2 <_fstat>:
    3bb2:	2380      	movs	r3, #128	; 0x80
    3bb4:	019b      	lsls	r3, r3, #6
    3bb6:	604b      	str	r3, [r1, #4]
    3bb8:	2000      	movs	r0, #0
    3bba:	4770      	bx	lr

00003bbc <_isatty>:
    3bbc:	2001      	movs	r0, #1
    3bbe:	4770      	bx	lr

00003bc0 <_lseek>:
    3bc0:	2000      	movs	r0, #0
    3bc2:	4770      	bx	lr

00003bc4 <_exit>:
    3bc4:	be00      	bkpt	0x0000
    3bc6:	e7fe      	b.n	3bc6 <_exit+0x2>

00003bc8 <is_zero_ct>:
    3bc8:	b510      	push	{r4, lr}
    3bca:	6802      	ldr	r2, [r0, #0]
    3bcc:	2901      	cmp	r1, #1
    3bce:	d906      	bls.n	3bde <is_zero_ct+0x16>
    3bd0:	1d03      	adds	r3, r0, #4
    3bd2:	0089      	lsls	r1, r1, #2
    3bd4:	1840      	adds	r0, r0, r1
    3bd6:	cb10      	ldmia	r3!, {r4}
    3bd8:	4322      	orrs	r2, r4
    3bda:	4283      	cmp	r3, r0
    3bdc:	d1fb      	bne.n	3bd6 <is_zero_ct+0xe>
    3bde:	4250      	negs	r0, r2
    3be0:	4310      	orrs	r0, r2
    3be2:	0fc0      	lsrs	r0, r0, #31
    3be4:	3801      	subs	r0, #1
    3be6:	4240      	negs	r0, r0
    3be8:	bd10      	pop	{r4, pc}
	...

00003bec <encode>:
    3bec:	b5f8      	push	{r3, r4, r5, r6, r7, lr}
    3bee:	0005      	movs	r5, r0
    3bf0:	000e      	movs	r6, r1
    3bf2:	69c7      	ldr	r7, [r0, #28]
    3bf4:	68c4      	ldr	r4, [r0, #12]
    3bf6:	0001      	movs	r1, r0
    3bf8:	3120      	adds	r1, #32
    3bfa:	2220      	movs	r2, #32
    3bfc:	0030      	movs	r0, r6
    3bfe:	4b0b      	ldr	r3, [pc, #44]	; (3c2c <encode+0x40>)
    3c00:	4798      	blx	r3
    3c02:	2104      	movs	r1, #4
    3c04:	0028      	movs	r0, r5
    3c06:	4b0a      	ldr	r3, [pc, #40]	; (3c30 <encode+0x44>)
    3c08:	4798      	blx	r3
    3c0a:	2800      	cmp	r0, #0
    3c0c:	d106      	bne.n	3c1c <encode+0x30>
    3c0e:	0064      	lsls	r4, r4, #1
    3c10:	0fe4      	lsrs	r4, r4, #31
    3c12:	07e4      	lsls	r4, r4, #31
    3c14:	69f3      	ldr	r3, [r6, #28]
    3c16:	431c      	orrs	r4, r3
    3c18:	61f4      	str	r4, [r6, #28]
    3c1a:	bdf8      	pop	{r3, r4, r5, r6, r7, pc}
    3c1c:	007f      	lsls	r7, r7, #1
    3c1e:	0fff      	lsrs	r7, r7, #31
    3c20:	07ff      	lsls	r7, r7, #31
    3c22:	69f3      	ldr	r3, [r6, #28]
    3c24:	431f      	orrs	r7, r3
    3c26:	61f7      	str	r7, [r6, #28]
    3c28:	e7f7      	b.n	3c1a <encode+0x2e>
    3c2a:	46c0      	nop			; (mov r8, r8)
    3c2c:	00006f65 	.word	0x00006f65
    3c30:	00003bc9 	.word	0x00003bc9

00003c34 <decode>:
    3c34:	b5f0      	push	{r4, r5, r6, r7, lr}
    3c36:	46c6      	mov	lr, r8
    3c38:	b500      	push	{lr}
    3c3a:	4c87      	ldr	r4, [pc, #540]	; (3e58 <decode+0x224>)
    3c3c:	44a5      	add	sp, r4
    3c3e:	0004      	movs	r4, r0
    3c40:	000f      	movs	r7, r1
    3c42:	2228      	movs	r2, #40	; 0x28
    3c44:	2100      	movs	r1, #0
    3c46:	a849      	add	r0, sp, #292	; 0x124
    3c48:	4b84      	ldr	r3, [pc, #528]	; (3e5c <decode+0x228>)
    3c4a:	4798      	blx	r3
    3c4c:	2301      	movs	r3, #1
    3c4e:	9349      	str	r3, [sp, #292]	; 0x124
    3c50:	331f      	adds	r3, #31
    3c52:	469c      	mov	ip, r3
    3c54:	44bc      	add	ip, r7
    3c56:	4663      	mov	r3, ip
    3c58:	4665      	mov	r5, ip
    3c5a:	9301      	str	r3, [sp, #4]
    3c5c:	2220      	movs	r2, #32
    3c5e:	0021      	movs	r1, r4
    3c60:	0018      	movs	r0, r3
    3c62:	4b7f      	ldr	r3, [pc, #508]	; (3e60 <decode+0x22c>)
    3c64:	4798      	blx	r3
    3c66:	7fe3      	ldrb	r3, [r4, #31]
    3c68:	09db      	lsrs	r3, r3, #7
    3c6a:	4698      	mov	r8, r3
    3c6c:	6bfb      	ldr	r3, [r7, #60]	; 0x3c
    3c6e:	005b      	lsls	r3, r3, #1
    3c70:	085b      	lsrs	r3, r3, #1
    3c72:	63fb      	str	r3, [r7, #60]	; 0x3c
    3c74:	a90d      	add	r1, sp, #52	; 0x34
    3c76:	0028      	movs	r0, r5
    3c78:	4b7a      	ldr	r3, [pc, #488]	; (3e64 <decode+0x230>)
    3c7a:	4798      	blx	r3
    3c7c:	a95d      	add	r1, sp, #372	; 0x174
    3c7e:	a80d      	add	r0, sp, #52	; 0x34
    3c80:	4b79      	ldr	r3, [pc, #484]	; (3e68 <decode+0x234>)
    3c82:	4798      	blx	r3
    3c84:	aa53      	add	r2, sp, #332	; 0x14c
    3c86:	4979      	ldr	r1, [pc, #484]	; (3e6c <decode+0x238>)
    3c88:	a85d      	add	r0, sp, #372	; 0x174
    3c8a:	4b79      	ldr	r3, [pc, #484]	; (3e70 <decode+0x23c>)
    3c8c:	4798      	blx	r3
    3c8e:	aa5d      	add	r2, sp, #372	; 0x174
    3c90:	a949      	add	r1, sp, #292	; 0x124
    3c92:	0010      	movs	r0, r2
    3c94:	4b77      	ldr	r3, [pc, #476]	; (3e74 <decode+0x240>)
    3c96:	4798      	blx	r3
    3c98:	aa53      	add	r2, sp, #332	; 0x14c
    3c9a:	a949      	add	r1, sp, #292	; 0x124
    3c9c:	0010      	movs	r0, r2
    3c9e:	4b76      	ldr	r3, [pc, #472]	; (3e78 <decode+0x244>)
    3ca0:	4798      	blx	r3
    3ca2:	a97b      	add	r1, sp, #492	; 0x1ec
    3ca4:	a853      	add	r0, sp, #332	; 0x14c
    3ca6:	4c75      	ldr	r4, [pc, #468]	; (3e7c <decode+0x248>)
    3ca8:	47a0      	blx	r4
    3caa:	a976      	add	r1, sp, #472	; 0x1d8
    3cac:	a858      	add	r0, sp, #352	; 0x160
    3cae:	47a0      	blx	r4
    3cb0:	aa7b      	add	r2, sp, #492	; 0x1ec
    3cb2:	a976      	add	r1, sp, #472	; 0x1d8
    3cb4:	0010      	movs	r0, r2
    3cb6:	4e72      	ldr	r6, [pc, #456]	; (3e80 <decode+0x24c>)
    3cb8:	47b0      	blx	r6
    3cba:	aa76      	add	r2, sp, #472	; 0x1d8
    3cbc:	a953      	add	r1, sp, #332	; 0x14c
    3cbe:	a85d      	add	r0, sp, #372	; 0x174
    3cc0:	4d70      	ldr	r5, [pc, #448]	; (3e84 <decode+0x250>)
    3cc2:	47a8      	blx	r5
    3cc4:	aa71      	add	r2, sp, #452	; 0x1c4
    3cc6:	a958      	add	r1, sp, #352	; 0x160
    3cc8:	a862      	add	r0, sp, #392	; 0x188
    3cca:	47a8      	blx	r5
    3ccc:	aa76      	add	r2, sp, #472	; 0x1d8
    3cce:	a971      	add	r1, sp, #452	; 0x1c4
    3cd0:	0010      	movs	r0, r2
    3cd2:	47b0      	blx	r6
    3cd4:	aa71      	add	r2, sp, #452	; 0x1c4
    3cd6:	a953      	add	r1, sp, #332	; 0x14c
    3cd8:	a862      	add	r0, sp, #392	; 0x188
    3cda:	47a8      	blx	r5
    3cdc:	aa6c      	add	r2, sp, #432	; 0x1b0
    3cde:	a958      	add	r1, sp, #352	; 0x160
    3ce0:	a85d      	add	r0, sp, #372	; 0x174
    3ce2:	47a8      	blx	r5
    3ce4:	aa71      	add	r2, sp, #452	; 0x1c4
    3ce6:	a96c      	add	r1, sp, #432	; 0x1b0
    3ce8:	0010      	movs	r0, r2
    3cea:	4b67      	ldr	r3, [pc, #412]	; (3e88 <decode+0x254>)
    3cec:	4798      	blx	r3
    3cee:	a96c      	add	r1, sp, #432	; 0x1b0
    3cf0:	a876      	add	r0, sp, #472	; 0x1d8
    3cf2:	47a0      	blx	r4
    3cf4:	a967      	add	r1, sp, #412	; 0x19c
    3cf6:	a871      	add	r0, sp, #452	; 0x1c4
    3cf8:	47a0      	blx	r4
    3cfa:	aa6c      	add	r2, sp, #432	; 0x1b0
    3cfc:	a967      	add	r1, sp, #412	; 0x19c
    3cfe:	0010      	movs	r0, r2
    3d00:	47b0      	blx	r6
    3d02:	247d      	movs	r4, #125	; 0x7d
    3d04:	4d5d      	ldr	r5, [pc, #372]	; (3e7c <decode+0x248>)
    3d06:	a96c      	add	r1, sp, #432	; 0x1b0
    3d08:	0008      	movs	r0, r1
    3d0a:	47a8      	blx	r5
    3d0c:	3c01      	subs	r4, #1
    3d0e:	2c00      	cmp	r4, #0
    3d10:	d1f9      	bne.n	3d06 <decode+0xd2>
    3d12:	aa80      	add	r2, sp, #512	; 0x200
    3d14:	a96c      	add	r1, sp, #432	; 0x1b0
    3d16:	a876      	add	r0, sp, #472	; 0x1d8
    3d18:	4b59      	ldr	r3, [pc, #356]	; (3e80 <decode+0x24c>)
    3d1a:	4798      	blx	r3
    3d1c:	a980      	add	r1, sp, #512	; 0x200
    3d1e:	0008      	movs	r0, r1
    3d20:	4b5a      	ldr	r3, [pc, #360]	; (3e8c <decode+0x258>)
    3d22:	4798      	blx	r3
    3d24:	2105      	movs	r1, #5
    3d26:	a880      	add	r0, sp, #512	; 0x200
    3d28:	4b59      	ldr	r3, [pc, #356]	; (3e90 <decode+0x25c>)
    3d2a:	4798      	blx	r3
    3d2c:	2800      	cmp	r0, #0
    3d2e:	d000      	beq.n	3d32 <decode+0xfe>
    3d30:	e073      	b.n	3e1a <decode+0x1e6>
    3d32:	aa80      	add	r2, sp, #512	; 0x200
    3d34:	0011      	movs	r1, r2
    3d36:	0010      	movs	r0, r2
    3d38:	4b51      	ldr	r3, [pc, #324]	; (3e80 <decode+0x24c>)
    3d3a:	4798      	blx	r3
    3d3c:	a96c      	add	r1, sp, #432	; 0x1b0
    3d3e:	a87b      	add	r0, sp, #492	; 0x1ec
    3d40:	4d4e      	ldr	r5, [pc, #312]	; (3e7c <decode+0x248>)
    3d42:	47a8      	blx	r5
    3d44:	aa6c      	add	r2, sp, #432	; 0x1b0
    3d46:	0011      	movs	r1, r2
    3d48:	a87b      	add	r0, sp, #492	; 0x1ec
    3d4a:	4c4e      	ldr	r4, [pc, #312]	; (3e84 <decode+0x250>)
    3d4c:	47a0      	blx	r4
    3d4e:	aa6c      	add	r2, sp, #432	; 0x1b0
    3d50:	0011      	movs	r1, r2
    3d52:	a880      	add	r0, sp, #512	; 0x200
    3d54:	47a0      	blx	r4
    3d56:	a985      	add	r1, sp, #532	; 0x214
    3d58:	a86c      	add	r0, sp, #432	; 0x1b0
    3d5a:	4b4e      	ldr	r3, [pc, #312]	; (3e94 <decode+0x260>)
    3d5c:	4798      	blx	r3
    3d5e:	aa6c      	add	r2, sp, #432	; 0x1b0
    3d60:	a985      	add	r1, sp, #532	; 0x214
    3d62:	a87b      	add	r0, sp, #492	; 0x1ec
    3d64:	47a0      	blx	r4
    3d66:	aa03      	add	r2, sp, #12
    3d68:	a96c      	add	r1, sp, #432	; 0x1b0
    3d6a:	a880      	add	r0, sp, #512	; 0x200
    3d6c:	47a0      	blx	r4
    3d6e:	a976      	add	r1, sp, #472	; 0x1d8
    3d70:	a803      	add	r0, sp, #12
    3d72:	47a8      	blx	r5
    3d74:	aa76      	add	r2, sp, #472	; 0x1d8
    3d76:	0011      	movs	r1, r2
    3d78:	a87b      	add	r0, sp, #492	; 0x1ec
    3d7a:	47a0      	blx	r4
    3d7c:	a803      	add	r0, sp, #12
    3d7e:	4b46      	ldr	r3, [pc, #280]	; (3e98 <decode+0x264>)
    3d80:	4798      	blx	r3
    3d82:	aa08      	add	r2, sp, #32
    3d84:	a96c      	add	r1, sp, #432	; 0x1b0
    3d86:	a871      	add	r0, sp, #452	; 0x1c4
    3d88:	47a0      	blx	r4
    3d8a:	aa80      	add	r2, sp, #512	; 0x200
    3d8c:	a976      	add	r1, sp, #472	; 0x1d8
    3d8e:	0010      	movs	r0, r2
    3d90:	4b3d      	ldr	r3, [pc, #244]	; (3e88 <decode+0x254>)
    3d92:	4798      	blx	r3
    3d94:	a980      	add	r1, sp, #512	; 0x200
    3d96:	0008      	movs	r0, r1
    3d98:	4b3c      	ldr	r3, [pc, #240]	; (3e8c <decode+0x258>)
    3d9a:	4798      	blx	r3
    3d9c:	2105      	movs	r1, #5
    3d9e:	a880      	add	r0, sp, #512	; 0x200
    3da0:	4b3b      	ldr	r3, [pc, #236]	; (3e90 <decode+0x25c>)
    3da2:	4798      	blx	r3
    3da4:	2800      	cmp	r0, #0
    3da6:	d03e      	beq.n	3e26 <decode+0x1f2>
    3da8:	a903      	add	r1, sp, #12
    3daa:	0008      	movs	r0, r1
    3dac:	4b3b      	ldr	r3, [pc, #236]	; (3e9c <decode+0x268>)
    3dae:	4798      	blx	r3
    3db0:	2105      	movs	r1, #5
    3db2:	a803      	add	r0, sp, #12
    3db4:	4b36      	ldr	r3, [pc, #216]	; (3e90 <decode+0x25c>)
    3db6:	4798      	blx	r3
    3db8:	2800      	cmp	r0, #0
    3dba:	d049      	beq.n	3e50 <decode+0x21c>
    3dbc:	9b0c      	ldr	r3, [sp, #48]	; 0x30
    3dbe:	0d9b      	lsrs	r3, r3, #22
    3dc0:	4543      	cmp	r3, r8
    3dc2:	d002      	beq.n	3dca <decode+0x196>
    3dc4:	a803      	add	r0, sp, #12
    3dc6:	4b36      	ldr	r3, [pc, #216]	; (3ea0 <decode+0x26c>)
    3dc8:	4798      	blx	r3
    3dca:	a917      	add	r1, sp, #92	; 0x5c
    3dcc:	a803      	add	r0, sp, #12
    3dce:	4c33      	ldr	r4, [pc, #204]	; (3e9c <decode+0x268>)
    3dd0:	47a0      	blx	r4
    3dd2:	a921      	add	r1, sp, #132	; 0x84
    3dd4:	a80d      	add	r0, sp, #52	; 0x34
    3dd6:	47a0      	blx	r4
    3dd8:	a817      	add	r0, sp, #92	; 0x5c
    3dda:	4b32      	ldr	r3, [pc, #200]	; (3ea4 <decode+0x270>)
    3ddc:	4798      	blx	r3
    3dde:	2800      	cmp	r0, #0
    3de0:	d108      	bne.n	3df4 <decode+0x1c0>
    3de2:	a81c      	add	r0, sp, #112	; 0x70
    3de4:	4b30      	ldr	r3, [pc, #192]	; (3ea8 <decode+0x274>)
    3de6:	4798      	blx	r3
    3de8:	a817      	add	r0, sp, #92	; 0x5c
    3dea:	4b2e      	ldr	r3, [pc, #184]	; (3ea4 <decode+0x270>)
    3dec:	4798      	blx	r3
    3dee:	2300      	movs	r3, #0
    3df0:	2800      	cmp	r0, #0
    3df2:	d00b      	beq.n	3e0c <decode+0x1d8>
    3df4:	a917      	add	r1, sp, #92	; 0x5c
    3df6:	0008      	movs	r0, r1
    3df8:	4b28      	ldr	r3, [pc, #160]	; (3e9c <decode+0x268>)
    3dfa:	4798      	blx	r3
    3dfc:	0039      	movs	r1, r7
    3dfe:	a817      	add	r0, sp, #92	; 0x5c
    3e00:	4c2a      	ldr	r4, [pc, #168]	; (3eac <decode+0x278>)
    3e02:	47a0      	blx	r4
    3e04:	9901      	ldr	r1, [sp, #4]
    3e06:	a821      	add	r0, sp, #132	; 0x84
    3e08:	47a0      	blx	r4
    3e0a:	2301      	movs	r3, #1
    3e0c:	0018      	movs	r0, r3
    3e0e:	238a      	movs	r3, #138	; 0x8a
    3e10:	009b      	lsls	r3, r3, #2
    3e12:	449d      	add	sp, r3
    3e14:	bc04      	pop	{r2}
    3e16:	4690      	mov	r8, r2
    3e18:	bdf0      	pop	{r4, r5, r6, r7, pc}
    3e1a:	aa80      	add	r2, sp, #512	; 0x200
    3e1c:	a96c      	add	r1, sp, #432	; 0x1b0
    3e1e:	a876      	add	r0, sp, #472	; 0x1d8
    3e20:	4b19      	ldr	r3, [pc, #100]	; (3e88 <decode+0x254>)
    3e22:	4798      	blx	r3
    3e24:	e785      	b.n	3d32 <decode+0xfe>
    3e26:	ab7b      	add	r3, sp, #492	; 0x1ec
    3e28:	aa03      	add	r2, sp, #12
    3e2a:	0019      	movs	r1, r3
    3e2c:	ca31      	ldmia	r2!, {r0, r4, r5}
    3e2e:	c131      	stmia	r1!, {r0, r4, r5}
    3e30:	ca11      	ldmia	r2!, {r0, r4}
    3e32:	c111      	stmia	r1!, {r0, r4}
    3e34:	ac03      	add	r4, sp, #12
    3e36:	aa08      	add	r2, sp, #32
    3e38:	0021      	movs	r1, r4
    3e3a:	0010      	movs	r0, r2
    3e3c:	c870      	ldmia	r0!, {r4, r5, r6}
    3e3e:	c170      	stmia	r1!, {r4, r5, r6}
    3e40:	c830      	ldmia	r0!, {r4, r5}
    3e42:	c130      	stmia	r1!, {r4, r5}
    3e44:	cb13      	ldmia	r3!, {r0, r1, r4}
    3e46:	c213      	stmia	r2!, {r0, r1, r4}
    3e48:	0011      	movs	r1, r2
    3e4a:	cb05      	ldmia	r3!, {r0, r2}
    3e4c:	c105      	stmia	r1!, {r0, r2}
    3e4e:	e7ab      	b.n	3da8 <decode+0x174>
    3e50:	9b07      	ldr	r3, [sp, #28]
    3e52:	0d9b      	lsrs	r3, r3, #22
    3e54:	e7b4      	b.n	3dc0 <decode+0x18c>
    3e56:	46c0      	nop			; (mov r8, r8)
    3e58:	fffffdd8 	.word	0xfffffdd8
    3e5c:	00006f89 	.word	0x00006f89
    3e60:	00006f65 	.word	0x00006f65
    3e64:	0000477d 	.word	0x0000477d
    3e68:	00005235 	.word	0x00005235
    3e6c:	00008604 	.word	0x00008604
    3e70:	000051c1 	.word	0x000051c1
    3e74:	00005001 	.word	0x00005001
    3e78:	00004fe1 	.word	0x00004fe1
    3e7c:	0000422d 	.word	0x0000422d
    3e80:	00003f03 	.word	0x00003f03
    3e84:	00003f99 	.word	0x00003f99
    3e88:	00003f3f 	.word	0x00003f3f
    3e8c:	00004471 	.word	0x00004471
    3e90:	00003bc9 	.word	0x00003bc9
    3e94:	00004501 	.word	0x00004501
    3e98:	00004ad1 	.word	0x00004ad1
    3e9c:	000051a5 	.word	0x000051a5
    3ea0:	00005089 	.word	0x00005089
    3ea4:	000057ed 	.word	0x000057ed
    3ea8:	00003f6d 	.word	0x00003f6d
    3eac:	00004805 	.word	0x00004805

00003eb0 <digit_x_digit>:
    3eb0:	b570      	push	{r4, r5, r6, lr}
    3eb2:	0403      	lsls	r3, r0, #16
    3eb4:	0c1b      	lsrs	r3, r3, #16
    3eb6:	0c00      	lsrs	r0, r0, #16
    3eb8:	040c      	lsls	r4, r1, #16
    3eba:	0c24      	lsrs	r4, r4, #16
    3ebc:	0c09      	lsrs	r1, r1, #16
    3ebe:	0025      	movs	r5, r4
    3ec0:	435d      	muls	r5, r3
    3ec2:	434b      	muls	r3, r1
    3ec4:	4344      	muls	r4, r0
    3ec6:	4341      	muls	r1, r0
    3ec8:	0c28      	lsrs	r0, r5, #16
    3eca:	0426      	lsls	r6, r4, #16
    3ecc:	0c36      	lsrs	r6, r6, #16
    3ece:	1980      	adds	r0, r0, r6
    3ed0:	041e      	lsls	r6, r3, #16
    3ed2:	0c36      	lsrs	r6, r6, #16
    3ed4:	1980      	adds	r0, r0, r6
    3ed6:	0c06      	lsrs	r6, r0, #16
    3ed8:	042d      	lsls	r5, r5, #16
    3eda:	0c2d      	lsrs	r5, r5, #16
    3edc:	0400      	lsls	r0, r0, #16
    3ede:	4045      	eors	r5, r0
    3ee0:	6015      	str	r5, [r2, #0]
    3ee2:	0c24      	lsrs	r4, r4, #16
    3ee4:	0c1b      	lsrs	r3, r3, #16
    3ee6:	18e3      	adds	r3, r4, r3
    3ee8:	040c      	lsls	r4, r1, #16
    3eea:	0c24      	lsrs	r4, r4, #16
    3eec:	191b      	adds	r3, r3, r4
    3eee:	199b      	adds	r3, r3, r6
    3ef0:	0c18      	lsrs	r0, r3, #16
    3ef2:	0c09      	lsrs	r1, r1, #16
    3ef4:	1809      	adds	r1, r1, r0
    3ef6:	0409      	lsls	r1, r1, #16
    3ef8:	041b      	lsls	r3, r3, #16
    3efa:	0c1b      	lsrs	r3, r3, #16
    3efc:	404b      	eors	r3, r1
    3efe:	6053      	str	r3, [r2, #4]
    3f00:	bd70      	pop	{r4, r5, r6, pc}

00003f02 <vadd1271>:
    3f02:	b510      	push	{r4, lr}
    3f04:	6803      	ldr	r3, [r0, #0]
    3f06:	001c      	movs	r4, r3
    3f08:	680b      	ldr	r3, [r1, #0]
    3f0a:	469c      	mov	ip, r3
    3f0c:	4464      	add	r4, ip
    3f0e:	6014      	str	r4, [r2, #0]
    3f10:	6843      	ldr	r3, [r0, #4]
    3f12:	001c      	movs	r4, r3
    3f14:	684b      	ldr	r3, [r1, #4]
    3f16:	469c      	mov	ip, r3
    3f18:	4464      	add	r4, ip
    3f1a:	6054      	str	r4, [r2, #4]
    3f1c:	6883      	ldr	r3, [r0, #8]
    3f1e:	001c      	movs	r4, r3
    3f20:	688b      	ldr	r3, [r1, #8]
    3f22:	469c      	mov	ip, r3
    3f24:	4464      	add	r4, ip
    3f26:	6094      	str	r4, [r2, #8]
    3f28:	68c3      	ldr	r3, [r0, #12]
    3f2a:	001c      	movs	r4, r3
    3f2c:	68cb      	ldr	r3, [r1, #12]
    3f2e:	469c      	mov	ip, r3
    3f30:	4464      	add	r4, ip
    3f32:	60d4      	str	r4, [r2, #12]
    3f34:	6903      	ldr	r3, [r0, #16]
    3f36:	6909      	ldr	r1, [r1, #16]
    3f38:	185b      	adds	r3, r3, r1
    3f3a:	6113      	str	r3, [r2, #16]
    3f3c:	bd10      	pop	{r4, pc}

00003f3e <vsub1271>:
    3f3e:	b510      	push	{r4, lr}
    3f40:	6803      	ldr	r3, [r0, #0]
    3f42:	680c      	ldr	r4, [r1, #0]
    3f44:	1b1b      	subs	r3, r3, r4
    3f46:	6013      	str	r3, [r2, #0]
    3f48:	6843      	ldr	r3, [r0, #4]
    3f4a:	684c      	ldr	r4, [r1, #4]
    3f4c:	1b1b      	subs	r3, r3, r4
    3f4e:	6053      	str	r3, [r2, #4]
    3f50:	6883      	ldr	r3, [r0, #8]
    3f52:	688c      	ldr	r4, [r1, #8]
    3f54:	1b1b      	subs	r3, r3, r4
    3f56:	6093      	str	r3, [r2, #8]
    3f58:	68c3      	ldr	r3, [r0, #12]
    3f5a:	68cc      	ldr	r4, [r1, #12]
    3f5c:	1b1b      	subs	r3, r3, r4
    3f5e:	60d3      	str	r3, [r2, #12]
    3f60:	6903      	ldr	r3, [r0, #16]
    3f62:	6909      	ldr	r1, [r1, #16]
    3f64:	1a5b      	subs	r3, r3, r1
    3f66:	6113      	str	r3, [r2, #16]
    3f68:	bd10      	pop	{r4, pc}
	...

00003f6c <vneg1271>:
    3f6c:	4b08      	ldr	r3, [pc, #32]	; (3f90 <vneg1271+0x24>)
    3f6e:	6802      	ldr	r2, [r0, #0]
    3f70:	1a9a      	subs	r2, r3, r2
    3f72:	6002      	str	r2, [r0, #0]
    3f74:	6842      	ldr	r2, [r0, #4]
    3f76:	1a9a      	subs	r2, r3, r2
    3f78:	6042      	str	r2, [r0, #4]
    3f7a:	6882      	ldr	r2, [r0, #8]
    3f7c:	1a9a      	subs	r2, r3, r2
    3f7e:	6082      	str	r2, [r0, #8]
    3f80:	68c2      	ldr	r2, [r0, #12]
    3f82:	1a9b      	subs	r3, r3, r2
    3f84:	60c3      	str	r3, [r0, #12]
    3f86:	4b03      	ldr	r3, [pc, #12]	; (3f94 <vneg1271+0x28>)
    3f88:	6902      	ldr	r2, [r0, #16]
    3f8a:	1a9b      	subs	r3, r3, r2
    3f8c:	6103      	str	r3, [r0, #16]
    3f8e:	4770      	bx	lr
    3f90:	03ffffff 	.word	0x03ffffff
    3f94:	007fffff 	.word	0x007fffff

00003f98 <vmul1271>:
    3f98:	b5f0      	push	{r4, r5, r6, r7, lr}
    3f9a:	46de      	mov	lr, fp
    3f9c:	4657      	mov	r7, sl
    3f9e:	464e      	mov	r6, r9
    3fa0:	4645      	mov	r5, r8
    3fa2:	b5e0      	push	{r5, r6, r7, lr}
    3fa4:	b09d      	sub	sp, #116	; 0x74
    3fa6:	4691      	mov	r9, r2
    3fa8:	6844      	ldr	r4, [r0, #4]
    3faa:	17e3      	asrs	r3, r4, #31
    3fac:	9301      	str	r3, [sp, #4]
    3fae:	6882      	ldr	r2, [r0, #8]
    3fb0:	4690      	mov	r8, r2
    3fb2:	17d2      	asrs	r2, r2, #31
    3fb4:	9213      	str	r2, [sp, #76]	; 0x4c
    3fb6:	4645      	mov	r5, r8
    3fb8:	176d      	asrs	r5, r5, #29
    3fba:	951a      	str	r5, [sp, #104]	; 0x68
    3fbc:	4646      	mov	r6, r8
    3fbe:	00f6      	lsls	r6, r6, #3
    3fc0:	9618      	str	r6, [sp, #96]	; 0x60
    3fc2:	68c7      	ldr	r7, [r0, #12]
    3fc4:	46ba      	mov	sl, r7
    3fc6:	17ff      	asrs	r7, r7, #31
    3fc8:	9717      	str	r7, [sp, #92]	; 0x5c
    3fca:	4653      	mov	r3, sl
    3fcc:	175d      	asrs	r5, r3, #29
    3fce:	9516      	str	r5, [sp, #88]	; 0x58
    3fd0:	00de      	lsls	r6, r3, #3
    3fd2:	9614      	str	r6, [sp, #80]	; 0x50
    3fd4:	6903      	ldr	r3, [r0, #16]
    3fd6:	469b      	mov	fp, r3
    3fd8:	17db      	asrs	r3, r3, #31
    3fda:	931b      	str	r3, [sp, #108]	; 0x6c
    3fdc:	465a      	mov	r2, fp
    3fde:	1752      	asrs	r2, r2, #29
    3fe0:	9212      	str	r2, [sp, #72]	; 0x48
    3fe2:	465f      	mov	r7, fp
    3fe4:	00fd      	lsls	r5, r7, #3
    3fe6:	950e      	str	r5, [sp, #56]	; 0x38
    3fe8:	6803      	ldr	r3, [r0, #0]
    3fea:	9302      	str	r3, [sp, #8]
    3fec:	17da      	asrs	r2, r3, #31
    3fee:	9203      	str	r2, [sp, #12]
    3ff0:	680a      	ldr	r2, [r1, #0]
    3ff2:	9204      	str	r2, [sp, #16]
    3ff4:	17d0      	asrs	r0, r2, #31
    3ff6:	9005      	str	r0, [sp, #20]
    3ff8:	6908      	ldr	r0, [r1, #16]
    3ffa:	0006      	movs	r6, r0
    3ffc:	17c5      	asrs	r5, r0, #31
    3ffe:	9506      	str	r5, [sp, #24]
    4000:	6848      	ldr	r0, [r1, #4]
    4002:	9007      	str	r0, [sp, #28]
    4004:	17c7      	asrs	r7, r0, #31
    4006:	9708      	str	r7, [sp, #32]
    4008:	68cd      	ldr	r5, [r1, #12]
    400a:	9509      	str	r5, [sp, #36]	; 0x24
    400c:	17ef      	asrs	r7, r5, #31
    400e:	970a      	str	r7, [sp, #40]	; 0x28
    4010:	688f      	ldr	r7, [r1, #8]
    4012:	970b      	str	r7, [sp, #44]	; 0x2c
    4014:	17f9      	asrs	r1, r7, #31
    4016:	910c      	str	r1, [sp, #48]	; 0x30
    4018:	0f63      	lsrs	r3, r4, #29
    401a:	9901      	ldr	r1, [sp, #4]
    401c:	00c9      	lsls	r1, r1, #3
    401e:	4319      	orrs	r1, r3
    4020:	00e0      	lsls	r0, r4, #3
    4022:	4d81      	ldr	r5, [pc, #516]	; (4228 <STACK_SIZE+0x228>)
    4024:	960d      	str	r6, [sp, #52]	; 0x34
    4026:	0032      	movs	r2, r6
    4028:	9b06      	ldr	r3, [sp, #24]
    402a:	47a8      	blx	r5
    402c:	0006      	movs	r6, r0
    402e:	000f      	movs	r7, r1
    4030:	9a04      	ldr	r2, [sp, #16]
    4032:	9b05      	ldr	r3, [sp, #20]
    4034:	9802      	ldr	r0, [sp, #8]
    4036:	9903      	ldr	r1, [sp, #12]
    4038:	47a8      	blx	r5
    403a:	1836      	adds	r6, r6, r0
    403c:	414f      	adcs	r7, r1
    403e:	9a07      	ldr	r2, [sp, #28]
    4040:	9b08      	ldr	r3, [sp, #32]
    4042:	980e      	ldr	r0, [sp, #56]	; 0x38
    4044:	9912      	ldr	r1, [sp, #72]	; 0x48
    4046:	47a8      	blx	r5
    4048:	1836      	adds	r6, r6, r0
    404a:	414f      	adcs	r7, r1
    404c:	9a09      	ldr	r2, [sp, #36]	; 0x24
    404e:	9b0a      	ldr	r3, [sp, #40]	; 0x28
    4050:	9818      	ldr	r0, [sp, #96]	; 0x60
    4052:	991a      	ldr	r1, [sp, #104]	; 0x68
    4054:	47a8      	blx	r5
    4056:	1836      	adds	r6, r6, r0
    4058:	414f      	adcs	r7, r1
    405a:	9a0b      	ldr	r2, [sp, #44]	; 0x2c
    405c:	9b0c      	ldr	r3, [sp, #48]	; 0x30
    405e:	9814      	ldr	r0, [sp, #80]	; 0x50
    4060:	9916      	ldr	r1, [sp, #88]	; 0x58
    4062:	47a8      	blx	r5
    4064:	1836      	adds	r6, r6, r0
    4066:	414f      	adcs	r7, r1
    4068:	9610      	str	r6, [sp, #64]	; 0x40
    406a:	9711      	str	r7, [sp, #68]	; 0x44
    406c:	9a07      	ldr	r2, [sp, #28]
    406e:	9b08      	ldr	r3, [sp, #32]
    4070:	9802      	ldr	r0, [sp, #8]
    4072:	9903      	ldr	r1, [sp, #12]
    4074:	47a8      	blx	r5
    4076:	0006      	movs	r6, r0
    4078:	000f      	movs	r7, r1
    407a:	9a04      	ldr	r2, [sp, #16]
    407c:	9b05      	ldr	r3, [sp, #20]
    407e:	0020      	movs	r0, r4
    4080:	9901      	ldr	r1, [sp, #4]
    4082:	47a8      	blx	r5
    4084:	1836      	adds	r6, r6, r0
    4086:	414f      	adcs	r7, r1
    4088:	9a0d      	ldr	r2, [sp, #52]	; 0x34
    408a:	9b06      	ldr	r3, [sp, #24]
    408c:	9818      	ldr	r0, [sp, #96]	; 0x60
    408e:	991a      	ldr	r1, [sp, #104]	; 0x68
    4090:	47a8      	blx	r5
    4092:	1836      	adds	r6, r6, r0
    4094:	414f      	adcs	r7, r1
    4096:	9a0b      	ldr	r2, [sp, #44]	; 0x2c
    4098:	9b0c      	ldr	r3, [sp, #48]	; 0x30
    409a:	980e      	ldr	r0, [sp, #56]	; 0x38
    409c:	9912      	ldr	r1, [sp, #72]	; 0x48
    409e:	47a8      	blx	r5
    40a0:	1836      	adds	r6, r6, r0
    40a2:	414f      	adcs	r7, r1
    40a4:	9a09      	ldr	r2, [sp, #36]	; 0x24
    40a6:	9b0a      	ldr	r3, [sp, #40]	; 0x28
    40a8:	9814      	ldr	r0, [sp, #80]	; 0x50
    40aa:	9916      	ldr	r1, [sp, #88]	; 0x58
    40ac:	47a8      	blx	r5
    40ae:	1836      	adds	r6, r6, r0
    40b0:	414f      	adcs	r7, r1
    40b2:	9618      	str	r6, [sp, #96]	; 0x60
    40b4:	9719      	str	r7, [sp, #100]	; 0x64
    40b6:	9a0b      	ldr	r2, [sp, #44]	; 0x2c
    40b8:	9b0c      	ldr	r3, [sp, #48]	; 0x30
    40ba:	9802      	ldr	r0, [sp, #8]
    40bc:	9903      	ldr	r1, [sp, #12]
    40be:	47a8      	blx	r5
    40c0:	0006      	movs	r6, r0
    40c2:	000f      	movs	r7, r1
    40c4:	9a04      	ldr	r2, [sp, #16]
    40c6:	9b05      	ldr	r3, [sp, #20]
    40c8:	4640      	mov	r0, r8
    40ca:	9913      	ldr	r1, [sp, #76]	; 0x4c
    40cc:	47a8      	blx	r5
    40ce:	1836      	adds	r6, r6, r0
    40d0:	414f      	adcs	r7, r1
    40d2:	9a07      	ldr	r2, [sp, #28]
    40d4:	9b08      	ldr	r3, [sp, #32]
    40d6:	0020      	movs	r0, r4
    40d8:	9901      	ldr	r1, [sp, #4]
    40da:	47a8      	blx	r5
    40dc:	1836      	adds	r6, r6, r0
    40de:	414f      	adcs	r7, r1
    40e0:	9a0d      	ldr	r2, [sp, #52]	; 0x34
    40e2:	9b06      	ldr	r3, [sp, #24]
    40e4:	9814      	ldr	r0, [sp, #80]	; 0x50
    40e6:	9916      	ldr	r1, [sp, #88]	; 0x58
    40e8:	47a8      	blx	r5
    40ea:	1836      	adds	r6, r6, r0
    40ec:	414f      	adcs	r7, r1
    40ee:	9a09      	ldr	r2, [sp, #36]	; 0x24
    40f0:	9b0a      	ldr	r3, [sp, #40]	; 0x28
    40f2:	980e      	ldr	r0, [sp, #56]	; 0x38
    40f4:	9912      	ldr	r1, [sp, #72]	; 0x48
    40f6:	47a8      	blx	r5
    40f8:	0032      	movs	r2, r6
    40fa:	003b      	movs	r3, r7
    40fc:	1812      	adds	r2, r2, r0
    40fe:	414b      	adcs	r3, r1
    4100:	9214      	str	r2, [sp, #80]	; 0x50
    4102:	9315      	str	r3, [sp, #84]	; 0x54
    4104:	9a09      	ldr	r2, [sp, #36]	; 0x24
    4106:	9b0a      	ldr	r3, [sp, #40]	; 0x28
    4108:	9802      	ldr	r0, [sp, #8]
    410a:	9903      	ldr	r1, [sp, #12]
    410c:	47a8      	blx	r5
    410e:	0006      	movs	r6, r0
    4110:	000f      	movs	r7, r1
    4112:	9a04      	ldr	r2, [sp, #16]
    4114:	9b05      	ldr	r3, [sp, #20]
    4116:	4650      	mov	r0, sl
    4118:	9917      	ldr	r1, [sp, #92]	; 0x5c
    411a:	47a8      	blx	r5
    411c:	1836      	adds	r6, r6, r0
    411e:	414f      	adcs	r7, r1
    4120:	9a0b      	ldr	r2, [sp, #44]	; 0x2c
    4122:	9b0c      	ldr	r3, [sp, #48]	; 0x30
    4124:	0020      	movs	r0, r4
    4126:	9901      	ldr	r1, [sp, #4]
    4128:	47a8      	blx	r5
    412a:	1836      	adds	r6, r6, r0
    412c:	414f      	adcs	r7, r1
    412e:	9a07      	ldr	r2, [sp, #28]
    4130:	9b08      	ldr	r3, [sp, #32]
    4132:	4640      	mov	r0, r8
    4134:	9913      	ldr	r1, [sp, #76]	; 0x4c
    4136:	47a8      	blx	r5
    4138:	1836      	adds	r6, r6, r0
    413a:	414f      	adcs	r7, r1
    413c:	9a0d      	ldr	r2, [sp, #52]	; 0x34
    413e:	9b06      	ldr	r3, [sp, #24]
    4140:	980e      	ldr	r0, [sp, #56]	; 0x38
    4142:	9912      	ldr	r1, [sp, #72]	; 0x48
    4144:	47a8      	blx	r5
    4146:	1836      	adds	r6, r6, r0
    4148:	414f      	adcs	r7, r1
    414a:	960e      	str	r6, [sp, #56]	; 0x38
    414c:	970f      	str	r7, [sp, #60]	; 0x3c
    414e:	9a0d      	ldr	r2, [sp, #52]	; 0x34
    4150:	9b06      	ldr	r3, [sp, #24]
    4152:	9802      	ldr	r0, [sp, #8]
    4154:	9903      	ldr	r1, [sp, #12]
    4156:	47a8      	blx	r5
    4158:	0006      	movs	r6, r0
    415a:	000f      	movs	r7, r1
    415c:	9a04      	ldr	r2, [sp, #16]
    415e:	9b05      	ldr	r3, [sp, #20]
    4160:	4658      	mov	r0, fp
    4162:	991b      	ldr	r1, [sp, #108]	; 0x6c
    4164:	47a8      	blx	r5
    4166:	1836      	adds	r6, r6, r0
    4168:	414f      	adcs	r7, r1
    416a:	9a09      	ldr	r2, [sp, #36]	; 0x24
    416c:	9b0a      	ldr	r3, [sp, #40]	; 0x28
    416e:	0020      	movs	r0, r4
    4170:	9901      	ldr	r1, [sp, #4]
    4172:	47a8      	blx	r5
    4174:	1836      	adds	r6, r6, r0
    4176:	414f      	adcs	r7, r1
    4178:	9a07      	ldr	r2, [sp, #28]
    417a:	9b08      	ldr	r3, [sp, #32]
    417c:	4650      	mov	r0, sl
    417e:	9917      	ldr	r1, [sp, #92]	; 0x5c
    4180:	47a8      	blx	r5
    4182:	1836      	adds	r6, r6, r0
    4184:	414f      	adcs	r7, r1
    4186:	9a0b      	ldr	r2, [sp, #44]	; 0x2c
    4188:	9b0c      	ldr	r3, [sp, #48]	; 0x30
    418a:	4640      	mov	r0, r8
    418c:	9913      	ldr	r1, [sp, #76]	; 0x4c
    418e:	47a8      	blx	r5
    4190:	1836      	adds	r6, r6, r0
    4192:	414f      	adcs	r7, r1
    4194:	9c10      	ldr	r4, [sp, #64]	; 0x40
    4196:	9d11      	ldr	r5, [sp, #68]	; 0x44
    4198:	01ab      	lsls	r3, r5, #6
    419a:	0ea0      	lsrs	r0, r4, #26
    419c:	4318      	orrs	r0, r3
    419e:	16a9      	asrs	r1, r5, #26
    41a0:	9b18      	ldr	r3, [sp, #96]	; 0x60
    41a2:	9c19      	ldr	r4, [sp, #100]	; 0x64
    41a4:	18c0      	adds	r0, r0, r3
    41a6:	4161      	adcs	r1, r4
    41a8:	018b      	lsls	r3, r1, #6
    41aa:	0e84      	lsrs	r4, r0, #26
    41ac:	431c      	orrs	r4, r3
    41ae:	168d      	asrs	r5, r1, #26
    41b0:	9a14      	ldr	r2, [sp, #80]	; 0x50
    41b2:	9b15      	ldr	r3, [sp, #84]	; 0x54
    41b4:	18a4      	adds	r4, r4, r2
    41b6:	415d      	adcs	r5, r3
    41b8:	01a3      	lsls	r3, r4, #6
    41ba:	099b      	lsrs	r3, r3, #6
    41bc:	464a      	mov	r2, r9
    41be:	6093      	str	r3, [r2, #8]
    41c0:	01a9      	lsls	r1, r5, #6
    41c2:	0ea2      	lsrs	r2, r4, #26
    41c4:	430a      	orrs	r2, r1
    41c6:	16ab      	asrs	r3, r5, #26
    41c8:	9c0e      	ldr	r4, [sp, #56]	; 0x38
    41ca:	9d0f      	ldr	r5, [sp, #60]	; 0x3c
    41cc:	1912      	adds	r2, r2, r4
    41ce:	416b      	adcs	r3, r5
    41d0:	0191      	lsls	r1, r2, #6
    41d2:	0989      	lsrs	r1, r1, #6
    41d4:	464d      	mov	r5, r9
    41d6:	60e9      	str	r1, [r5, #12]
    41d8:	0199      	lsls	r1, r3, #6
    41da:	0e94      	lsrs	r4, r2, #26
    41dc:	430c      	orrs	r4, r1
    41de:	169d      	asrs	r5, r3, #26
    41e0:	19a4      	adds	r4, r4, r6
    41e2:	417d      	adcs	r5, r7
    41e4:	0263      	lsls	r3, r4, #9
    41e6:	0a5b      	lsrs	r3, r3, #9
    41e8:	464a      	mov	r2, r9
    41ea:	6113      	str	r3, [r2, #16]
    41ec:	9b10      	ldr	r3, [sp, #64]	; 0x40
    41ee:	019b      	lsls	r3, r3, #6
    41f0:	099b      	lsrs	r3, r3, #6
    41f2:	001e      	movs	r6, r3
    41f4:	2700      	movs	r7, #0
    41f6:	0269      	lsls	r1, r5, #9
    41f8:	0de2      	lsrs	r2, r4, #23
    41fa:	430a      	orrs	r2, r1
    41fc:	15eb      	asrs	r3, r5, #23
    41fe:	1992      	adds	r2, r2, r6
    4200:	417b      	adcs	r3, r7
    4202:	0191      	lsls	r1, r2, #6
    4204:	0989      	lsrs	r1, r1, #6
    4206:	464c      	mov	r4, r9
    4208:	6021      	str	r1, [r4, #0]
    420a:	0180      	lsls	r0, r0, #6
    420c:	0980      	lsrs	r0, r0, #6
    420e:	019b      	lsls	r3, r3, #6
    4210:	0e92      	lsrs	r2, r2, #26
    4212:	431a      	orrs	r2, r3
    4214:	1880      	adds	r0, r0, r2
    4216:	6060      	str	r0, [r4, #4]
    4218:	b01d      	add	sp, #116	; 0x74
    421a:	bc3c      	pop	{r2, r3, r4, r5}
    421c:	4690      	mov	r8, r2
    421e:	4699      	mov	r9, r3
    4220:	46a2      	mov	sl, r4
    4222:	46ab      	mov	fp, r5
    4224:	bdf0      	pop	{r4, r5, r6, r7, pc}
    4226:	46c0      	nop			; (mov r8, r8)
    4228:	00006e59 	.word	0x00006e59

0000422c <vsqr1271>:
    422c:	b5f0      	push	{r4, r5, r6, r7, lr}
    422e:	46de      	mov	lr, fp
    4230:	4657      	mov	r7, sl
    4232:	464e      	mov	r6, r9
    4234:	4645      	mov	r5, r8
    4236:	b5e0      	push	{r5, r6, r7, lr}
    4238:	b091      	sub	sp, #68	; 0x44
    423a:	4689      	mov	r9, r1
    423c:	6801      	ldr	r1, [r0, #0]
    423e:	17cb      	asrs	r3, r1, #31
    4240:	004a      	lsls	r2, r1, #1
    4242:	9205      	str	r2, [sp, #20]
    4244:	6844      	ldr	r4, [r0, #4]
    4246:	17e2      	asrs	r2, r4, #31
    4248:	9201      	str	r2, [sp, #4]
    424a:	9408      	str	r4, [sp, #32]
    424c:	0065      	lsls	r5, r4, #1
    424e:	950d      	str	r5, [sp, #52]	; 0x34
    4250:	6886      	ldr	r6, [r0, #8]
    4252:	46b3      	mov	fp, r6
    4254:	17f4      	asrs	r4, r6, #31
    4256:	9403      	str	r4, [sp, #12]
    4258:	68c6      	ldr	r6, [r0, #12]
    425a:	46b2      	mov	sl, r6
    425c:	17f5      	asrs	r5, r6, #31
    425e:	9502      	str	r5, [sp, #8]
    4260:	6904      	ldr	r4, [r0, #16]
    4262:	17e6      	asrs	r6, r4, #31
    4264:	46b0      	mov	r8, r6
    4266:	1726      	asrs	r6, r4, #28
    4268:	960c      	str	r6, [sp, #48]	; 0x30
    426a:	0120      	lsls	r0, r4, #4
    426c:	900a      	str	r0, [sp, #40]	; 0x28
    426e:	4d65      	ldr	r5, [pc, #404]	; (4404 <vsqr1271+0x1d8>)
    4270:	000a      	movs	r2, r1
    4272:	0008      	movs	r0, r1
    4274:	9304      	str	r3, [sp, #16]
    4276:	0019      	movs	r1, r3
    4278:	47a8      	blx	r5
    427a:	0006      	movs	r6, r0
    427c:	000f      	movs	r7, r1
    427e:	9a0a      	ldr	r2, [sp, #40]	; 0x28
    4280:	9b0c      	ldr	r3, [sp, #48]	; 0x30
    4282:	9808      	ldr	r0, [sp, #32]
    4284:	9901      	ldr	r1, [sp, #4]
    4286:	47a8      	blx	r5
    4288:	1836      	adds	r6, r6, r0
    428a:	414f      	adcs	r7, r1
    428c:	465b      	mov	r3, fp
    428e:	0f1b      	lsrs	r3, r3, #28
    4290:	9803      	ldr	r0, [sp, #12]
    4292:	0101      	lsls	r1, r0, #4
    4294:	4319      	orrs	r1, r3
    4296:	465b      	mov	r3, fp
    4298:	0118      	lsls	r0, r3, #4
    429a:	4652      	mov	r2, sl
    429c:	9b02      	ldr	r3, [sp, #8]
    429e:	47a8      	blx	r5
    42a0:	1836      	adds	r6, r6, r0
    42a2:	414f      	adcs	r7, r1
    42a4:	9606      	str	r6, [sp, #24]
    42a6:	9707      	str	r7, [sp, #28]
    42a8:	4653      	mov	r3, sl
    42aa:	0f5b      	lsrs	r3, r3, #29
    42ac:	9f02      	ldr	r7, [sp, #8]
    42ae:	00f9      	lsls	r1, r7, #3
    42b0:	4319      	orrs	r1, r3
    42b2:	4653      	mov	r3, sl
    42b4:	00d8      	lsls	r0, r3, #3
    42b6:	4652      	mov	r2, sl
    42b8:	003b      	movs	r3, r7
    42ba:	47a8      	blx	r5
    42bc:	0006      	movs	r6, r0
    42be:	000f      	movs	r7, r1
    42c0:	9a08      	ldr	r2, [sp, #32]
    42c2:	9b01      	ldr	r3, [sp, #4]
    42c4:	9805      	ldr	r0, [sp, #20]
    42c6:	9904      	ldr	r1, [sp, #16]
    42c8:	47a8      	blx	r5
    42ca:	1836      	adds	r6, r6, r0
    42cc:	414f      	adcs	r7, r1
    42ce:	9a0a      	ldr	r2, [sp, #40]	; 0x28
    42d0:	9b0c      	ldr	r3, [sp, #48]	; 0x30
    42d2:	4658      	mov	r0, fp
    42d4:	9903      	ldr	r1, [sp, #12]
    42d6:	47a8      	blx	r5
    42d8:	1836      	adds	r6, r6, r0
    42da:	414f      	adcs	r7, r1
    42dc:	960e      	str	r6, [sp, #56]	; 0x38
    42de:	970f      	str	r7, [sp, #60]	; 0x3c
    42e0:	465a      	mov	r2, fp
    42e2:	9b03      	ldr	r3, [sp, #12]
    42e4:	9805      	ldr	r0, [sp, #20]
    42e6:	9904      	ldr	r1, [sp, #16]
    42e8:	47a8      	blx	r5
    42ea:	0006      	movs	r6, r0
    42ec:	000f      	movs	r7, r1
    42ee:	9808      	ldr	r0, [sp, #32]
    42f0:	0002      	movs	r2, r0
    42f2:	9901      	ldr	r1, [sp, #4]
    42f4:	000b      	movs	r3, r1
    42f6:	47a8      	blx	r5
    42f8:	1836      	adds	r6, r6, r0
    42fa:	414f      	adcs	r7, r1
    42fc:	9a0a      	ldr	r2, [sp, #40]	; 0x28
    42fe:	9b0c      	ldr	r3, [sp, #48]	; 0x30
    4300:	4650      	mov	r0, sl
    4302:	9902      	ldr	r1, [sp, #8]
    4304:	47a8      	blx	r5
    4306:	0032      	movs	r2, r6
    4308:	003b      	movs	r3, r7
    430a:	1812      	adds	r2, r2, r0
    430c:	414b      	adcs	r3, r1
    430e:	9208      	str	r2, [sp, #32]
    4310:	9309      	str	r3, [sp, #36]	; 0x24
    4312:	4652      	mov	r2, sl
    4314:	9b02      	ldr	r3, [sp, #8]
    4316:	9805      	ldr	r0, [sp, #20]
    4318:	9904      	ldr	r1, [sp, #16]
    431a:	47a8      	blx	r5
    431c:	0006      	movs	r6, r0
    431e:	000f      	movs	r7, r1
    4320:	465a      	mov	r2, fp
    4322:	9b03      	ldr	r3, [sp, #12]
    4324:	980d      	ldr	r0, [sp, #52]	; 0x34
    4326:	9901      	ldr	r1, [sp, #4]
    4328:	47a8      	blx	r5
    432a:	1836      	adds	r6, r6, r0
    432c:	414f      	adcs	r7, r1
    432e:	0f63      	lsrs	r3, r4, #29
    4330:	4640      	mov	r0, r8
    4332:	00c1      	lsls	r1, r0, #3
    4334:	4319      	orrs	r1, r3
    4336:	00e0      	lsls	r0, r4, #3
    4338:	0022      	movs	r2, r4
    433a:	4643      	mov	r3, r8
    433c:	47a8      	blx	r5
    433e:	1836      	adds	r6, r6, r0
    4340:	414f      	adcs	r7, r1
    4342:	960a      	str	r6, [sp, #40]	; 0x28
    4344:	970b      	str	r7, [sp, #44]	; 0x2c
    4346:	0022      	movs	r2, r4
    4348:	4643      	mov	r3, r8
    434a:	9805      	ldr	r0, [sp, #20]
    434c:	9904      	ldr	r1, [sp, #16]
    434e:	47a8      	blx	r5
    4350:	0006      	movs	r6, r0
    4352:	000f      	movs	r7, r1
    4354:	4652      	mov	r2, sl
    4356:	9b02      	ldr	r3, [sp, #8]
    4358:	980d      	ldr	r0, [sp, #52]	; 0x34
    435a:	9901      	ldr	r1, [sp, #4]
    435c:	47a8      	blx	r5
    435e:	1836      	adds	r6, r6, r0
    4360:	414f      	adcs	r7, r1
    4362:	465a      	mov	r2, fp
    4364:	9903      	ldr	r1, [sp, #12]
    4366:	000b      	movs	r3, r1
    4368:	4658      	mov	r0, fp
    436a:	47a8      	blx	r5
    436c:	1836      	adds	r6, r6, r0
    436e:	414f      	adcs	r7, r1
    4370:	9c06      	ldr	r4, [sp, #24]
    4372:	9d07      	ldr	r5, [sp, #28]
    4374:	01ab      	lsls	r3, r5, #6
    4376:	0ea0      	lsrs	r0, r4, #26
    4378:	4318      	orrs	r0, r3
    437a:	16a9      	asrs	r1, r5, #26
    437c:	9b0e      	ldr	r3, [sp, #56]	; 0x38
    437e:	9c0f      	ldr	r4, [sp, #60]	; 0x3c
    4380:	18c0      	adds	r0, r0, r3
    4382:	4161      	adcs	r1, r4
    4384:	018b      	lsls	r3, r1, #6
    4386:	0e84      	lsrs	r4, r0, #26
    4388:	431c      	orrs	r4, r3
    438a:	168d      	asrs	r5, r1, #26
    438c:	9a08      	ldr	r2, [sp, #32]
    438e:	9b09      	ldr	r3, [sp, #36]	; 0x24
    4390:	18a4      	adds	r4, r4, r2
    4392:	415d      	adcs	r5, r3
    4394:	01a3      	lsls	r3, r4, #6
    4396:	099b      	lsrs	r3, r3, #6
    4398:	464a      	mov	r2, r9
    439a:	6093      	str	r3, [r2, #8]
    439c:	01a9      	lsls	r1, r5, #6
    439e:	0ea2      	lsrs	r2, r4, #26
    43a0:	430a      	orrs	r2, r1
    43a2:	16ab      	asrs	r3, r5, #26
    43a4:	9c0a      	ldr	r4, [sp, #40]	; 0x28
    43a6:	9d0b      	ldr	r5, [sp, #44]	; 0x2c
    43a8:	1912      	adds	r2, r2, r4
    43aa:	416b      	adcs	r3, r5
    43ac:	0191      	lsls	r1, r2, #6
    43ae:	0989      	lsrs	r1, r1, #6
    43b0:	464d      	mov	r5, r9
    43b2:	60e9      	str	r1, [r5, #12]
    43b4:	0199      	lsls	r1, r3, #6
    43b6:	0e94      	lsrs	r4, r2, #26
    43b8:	430c      	orrs	r4, r1
    43ba:	169d      	asrs	r5, r3, #26
    43bc:	19a4      	adds	r4, r4, r6
    43be:	417d      	adcs	r5, r7
    43c0:	0263      	lsls	r3, r4, #9
    43c2:	0a5b      	lsrs	r3, r3, #9
    43c4:	464a      	mov	r2, r9
    43c6:	6113      	str	r3, [r2, #16]
    43c8:	9b06      	ldr	r3, [sp, #24]
    43ca:	019b      	lsls	r3, r3, #6
    43cc:	099b      	lsrs	r3, r3, #6
    43ce:	001e      	movs	r6, r3
    43d0:	2700      	movs	r7, #0
    43d2:	0269      	lsls	r1, r5, #9
    43d4:	0de2      	lsrs	r2, r4, #23
    43d6:	430a      	orrs	r2, r1
    43d8:	15eb      	asrs	r3, r5, #23
    43da:	1992      	adds	r2, r2, r6
    43dc:	417b      	adcs	r3, r7
    43de:	0191      	lsls	r1, r2, #6
    43e0:	0989      	lsrs	r1, r1, #6
    43e2:	464c      	mov	r4, r9
    43e4:	6021      	str	r1, [r4, #0]
    43e6:	0180      	lsls	r0, r0, #6
    43e8:	0980      	lsrs	r0, r0, #6
    43ea:	019b      	lsls	r3, r3, #6
    43ec:	0e92      	lsrs	r2, r2, #26
    43ee:	431a      	orrs	r2, r3
    43f0:	1880      	adds	r0, r0, r2
    43f2:	6060      	str	r0, [r4, #4]
    43f4:	b011      	add	sp, #68	; 0x44
    43f6:	bc3c      	pop	{r2, r3, r4, r5}
    43f8:	4690      	mov	r8, r2
    43fa:	4699      	mov	r9, r3
    43fc:	46a2      	mov	sl, r4
    43fe:	46ab      	mov	fp, r5
    4400:	bdf0      	pop	{r4, r5, r6, r7, pc}
    4402:	46c0      	nop			; (mov r8, r8)
    4404:	00006e59 	.word	0x00006e59

00004408 <vmod1271_incomplete>:
    4408:	b5f0      	push	{r4, r5, r6, r7, lr}
    440a:	6805      	ldr	r5, [r0, #0]
    440c:	6847      	ldr	r7, [r0, #4]
    440e:	6882      	ldr	r2, [r0, #8]
    4410:	68c6      	ldr	r6, [r0, #12]
    4412:	6903      	ldr	r3, [r0, #16]
    4414:	16ac      	asrs	r4, r5, #26
    4416:	19e4      	adds	r4, r4, r7
    4418:	16a0      	asrs	r0, r4, #26
    441a:	1880      	adds	r0, r0, r2
    441c:	01a4      	lsls	r4, r4, #6
    441e:	09a4      	lsrs	r4, r4, #6
    4420:	1682      	asrs	r2, r0, #26
    4422:	1992      	adds	r2, r2, r6
    4424:	0180      	lsls	r0, r0, #6
    4426:	0980      	lsrs	r0, r0, #6
    4428:	1696      	asrs	r6, r2, #26
    442a:	18f6      	adds	r6, r6, r3
    442c:	0192      	lsls	r2, r2, #6
    442e:	0992      	lsrs	r2, r2, #6
    4430:	0277      	lsls	r7, r6, #9
    4432:	0a7f      	lsrs	r7, r7, #9
    4434:	15f6      	asrs	r6, r6, #23
    4436:	01ad      	lsls	r5, r5, #6
    4438:	09ad      	lsrs	r5, r5, #6
    443a:	1973      	adds	r3, r6, r5
    443c:	169d      	asrs	r5, r3, #26
    443e:	192c      	adds	r4, r5, r4
    4440:	16a5      	asrs	r5, r4, #26
    4442:	1828      	adds	r0, r5, r0
    4444:	1685      	asrs	r5, r0, #26
    4446:	18aa      	adds	r2, r5, r2
    4448:	1696      	asrs	r6, r2, #26
    444a:	19f6      	adds	r6, r6, r7
    444c:	15f7      	asrs	r7, r6, #23
    444e:	019d      	lsls	r5, r3, #6
    4450:	09ad      	lsrs	r5, r5, #6
    4452:	197d      	adds	r5, r7, r5
    4454:	600d      	str	r5, [r1, #0]
    4456:	01a4      	lsls	r4, r4, #6
    4458:	09a4      	lsrs	r4, r4, #6
    445a:	604c      	str	r4, [r1, #4]
    445c:	0180      	lsls	r0, r0, #6
    445e:	0980      	lsrs	r0, r0, #6
    4460:	6088      	str	r0, [r1, #8]
    4462:	0192      	lsls	r2, r2, #6
    4464:	0992      	lsrs	r2, r2, #6
    4466:	60ca      	str	r2, [r1, #12]
    4468:	0273      	lsls	r3, r6, #9
    446a:	0a5b      	lsrs	r3, r3, #9
    446c:	610b      	str	r3, [r1, #16]
    446e:	bdf0      	pop	{r4, r5, r6, r7, pc}

00004470 <vmod1271>:
    4470:	b5f0      	push	{r4, r5, r6, r7, lr}
    4472:	6803      	ldr	r3, [r0, #0]
    4474:	6847      	ldr	r7, [r0, #4]
    4476:	6882      	ldr	r2, [r0, #8]
    4478:	68c6      	ldr	r6, [r0, #12]
    447a:	6905      	ldr	r5, [r0, #16]
    447c:	169c      	asrs	r4, r3, #26
    447e:	19e4      	adds	r4, r4, r7
    4480:	16a7      	asrs	r7, r4, #26
    4482:	18bf      	adds	r7, r7, r2
    4484:	01a4      	lsls	r4, r4, #6
    4486:	09a4      	lsrs	r4, r4, #6
    4488:	16ba      	asrs	r2, r7, #26
    448a:	1992      	adds	r2, r2, r6
    448c:	01bf      	lsls	r7, r7, #6
    448e:	09bf      	lsrs	r7, r7, #6
    4490:	1690      	asrs	r0, r2, #26
    4492:	1940      	adds	r0, r0, r5
    4494:	0192      	lsls	r2, r2, #6
    4496:	0992      	lsrs	r2, r2, #6
    4498:	0246      	lsls	r6, r0, #9
    449a:	0a76      	lsrs	r6, r6, #9
    449c:	019b      	lsls	r3, r3, #6
    449e:	099b      	lsrs	r3, r3, #6
    44a0:	3301      	adds	r3, #1
    44a2:	15c0      	asrs	r0, r0, #23
    44a4:	181b      	adds	r3, r3, r0
    44a6:	1698      	asrs	r0, r3, #26
    44a8:	1904      	adds	r4, r0, r4
    44aa:	16a0      	asrs	r0, r4, #26
    44ac:	19c7      	adds	r7, r0, r7
    44ae:	01a4      	lsls	r4, r4, #6
    44b0:	09a0      	lsrs	r0, r4, #6
    44b2:	16bc      	asrs	r4, r7, #26
    44b4:	18a2      	adds	r2, r4, r2
    44b6:	01bf      	lsls	r7, r7, #6
    44b8:	09bf      	lsrs	r7, r7, #6
    44ba:	1695      	asrs	r5, r2, #26
    44bc:	19ad      	adds	r5, r5, r6
    44be:	0192      	lsls	r2, r2, #6
    44c0:	0996      	lsrs	r6, r2, #6
    44c2:	026c      	lsls	r4, r5, #9
    44c4:	0a64      	lsrs	r4, r4, #9
    44c6:	019b      	lsls	r3, r3, #6
    44c8:	099b      	lsrs	r3, r3, #6
    44ca:	15ed      	asrs	r5, r5, #23
    44cc:	3d01      	subs	r5, #1
    44ce:	2201      	movs	r2, #1
    44d0:	4015      	ands	r5, r2
    44d2:	1b5b      	subs	r3, r3, r5
    44d4:	169d      	asrs	r5, r3, #26
    44d6:	182d      	adds	r5, r5, r0
    44d8:	16a8      	asrs	r0, r5, #26
    44da:	19c0      	adds	r0, r0, r7
    44dc:	1682      	asrs	r2, r0, #26
    44de:	1992      	adds	r2, r2, r6
    44e0:	019b      	lsls	r3, r3, #6
    44e2:	099b      	lsrs	r3, r3, #6
    44e4:	600b      	str	r3, [r1, #0]
    44e6:	01ad      	lsls	r5, r5, #6
    44e8:	09ad      	lsrs	r5, r5, #6
    44ea:	604d      	str	r5, [r1, #4]
    44ec:	0180      	lsls	r0, r0, #6
    44ee:	0980      	lsrs	r0, r0, #6
    44f0:	6088      	str	r0, [r1, #8]
    44f2:	0193      	lsls	r3, r2, #6
    44f4:	099b      	lsrs	r3, r3, #6
    44f6:	60cb      	str	r3, [r1, #12]
    44f8:	1692      	asrs	r2, r2, #26
    44fa:	1914      	adds	r4, r2, r4
    44fc:	610c      	str	r4, [r1, #16]
    44fe:	bdf0      	pop	{r4, r5, r6, r7, pc}

00004500 <vexp1251>:
    4500:	b5f0      	push	{r4, r5, r6, r7, lr}
    4502:	b09b      	sub	sp, #108	; 0x6c
    4504:	0005      	movs	r5, r0
    4506:	000e      	movs	r6, r1
    4508:	a910      	add	r1, sp, #64	; 0x40
    450a:	4c48      	ldr	r4, [pc, #288]	; (462c <vexp1251+0x12c>)
    450c:	47a0      	blx	r4
    450e:	aa10      	add	r2, sp, #64	; 0x40
    4510:	0011      	movs	r1, r2
    4512:	0028      	movs	r0, r5
    4514:	4f46      	ldr	r7, [pc, #280]	; (4630 <vexp1251+0x130>)
    4516:	47b8      	blx	r7
    4518:	a90b      	add	r1, sp, #44	; 0x2c
    451a:	a810      	add	r0, sp, #64	; 0x40
    451c:	47a0      	blx	r4
    451e:	a90b      	add	r1, sp, #44	; 0x2c
    4520:	0008      	movs	r0, r1
    4522:	47a0      	blx	r4
    4524:	aa0b      	add	r2, sp, #44	; 0x2c
    4526:	0011      	movs	r1, r2
    4528:	a810      	add	r0, sp, #64	; 0x40
    452a:	47b8      	blx	r7
    452c:	a906      	add	r1, sp, #24
    452e:	a80b      	add	r0, sp, #44	; 0x2c
    4530:	47a0      	blx	r4
    4532:	a906      	add	r1, sp, #24
    4534:	0008      	movs	r0, r1
    4536:	47a0      	blx	r4
    4538:	a906      	add	r1, sp, #24
    453a:	0008      	movs	r0, r1
    453c:	47a0      	blx	r4
    453e:	a906      	add	r1, sp, #24
    4540:	0008      	movs	r0, r1
    4542:	47a0      	blx	r4
    4544:	aa06      	add	r2, sp, #24
    4546:	0011      	movs	r1, r2
    4548:	a80b      	add	r0, sp, #44	; 0x2c
    454a:	47b8      	blx	r7
    454c:	a901      	add	r1, sp, #4
    454e:	a806      	add	r0, sp, #24
    4550:	47a0      	blx	r4
    4552:	2407      	movs	r4, #7
    4554:	4f35      	ldr	r7, [pc, #212]	; (462c <vexp1251+0x12c>)
    4556:	a901      	add	r1, sp, #4
    4558:	0008      	movs	r0, r1
    455a:	47b8      	blx	r7
    455c:	3c01      	subs	r4, #1
    455e:	2c00      	cmp	r4, #0
    4560:	d1f9      	bne.n	4556 <vexp1251+0x56>
    4562:	aa01      	add	r2, sp, #4
    4564:	0011      	movs	r1, r2
    4566:	a806      	add	r0, sp, #24
    4568:	4b31      	ldr	r3, [pc, #196]	; (4630 <vexp1251+0x130>)
    456a:	4798      	blx	r3
    456c:	a910      	add	r1, sp, #64	; 0x40
    456e:	a801      	add	r0, sp, #4
    4570:	4b2e      	ldr	r3, [pc, #184]	; (462c <vexp1251+0x12c>)
    4572:	4798      	blx	r3
    4574:	340f      	adds	r4, #15
    4576:	4f2d      	ldr	r7, [pc, #180]	; (462c <vexp1251+0x12c>)
    4578:	a910      	add	r1, sp, #64	; 0x40
    457a:	0008      	movs	r0, r1
    457c:	47b8      	blx	r7
    457e:	3c01      	subs	r4, #1
    4580:	2c00      	cmp	r4, #0
    4582:	d1f9      	bne.n	4578 <vexp1251+0x78>
    4584:	aa10      	add	r2, sp, #64	; 0x40
    4586:	0011      	movs	r1, r2
    4588:	a801      	add	r0, sp, #4
    458a:	4b29      	ldr	r3, [pc, #164]	; (4630 <vexp1251+0x130>)
    458c:	4798      	blx	r3
    458e:	a915      	add	r1, sp, #84	; 0x54
    4590:	a810      	add	r0, sp, #64	; 0x40
    4592:	4b26      	ldr	r3, [pc, #152]	; (462c <vexp1251+0x12c>)
    4594:	4798      	blx	r3
    4596:	341f      	adds	r4, #31
    4598:	4f24      	ldr	r7, [pc, #144]	; (462c <vexp1251+0x12c>)
    459a:	a915      	add	r1, sp, #84	; 0x54
    459c:	0008      	movs	r0, r1
    459e:	47b8      	blx	r7
    45a0:	3c01      	subs	r4, #1
    45a2:	2c00      	cmp	r4, #0
    45a4:	d1f9      	bne.n	459a <vexp1251+0x9a>
    45a6:	aa15      	add	r2, sp, #84	; 0x54
    45a8:	0011      	movs	r1, r2
    45aa:	a810      	add	r0, sp, #64	; 0x40
    45ac:	4b20      	ldr	r3, [pc, #128]	; (4630 <vexp1251+0x130>)
    45ae:	4798      	blx	r3
    45b0:	3420      	adds	r4, #32
    45b2:	4f1e      	ldr	r7, [pc, #120]	; (462c <vexp1251+0x12c>)
    45b4:	a915      	add	r1, sp, #84	; 0x54
    45b6:	0008      	movs	r0, r1
    45b8:	47b8      	blx	r7
    45ba:	3c01      	subs	r4, #1
    45bc:	2c00      	cmp	r4, #0
    45be:	d1f9      	bne.n	45b4 <vexp1251+0xb4>
    45c0:	aa15      	add	r2, sp, #84	; 0x54
    45c2:	a910      	add	r1, sp, #64	; 0x40
    45c4:	0010      	movs	r0, r2
    45c6:	4b1a      	ldr	r3, [pc, #104]	; (4630 <vexp1251+0x130>)
    45c8:	4798      	blx	r3
    45ca:	3410      	adds	r4, #16
    45cc:	4f17      	ldr	r7, [pc, #92]	; (462c <vexp1251+0x12c>)
    45ce:	a915      	add	r1, sp, #84	; 0x54
    45d0:	0008      	movs	r0, r1
    45d2:	47b8      	blx	r7
    45d4:	3c01      	subs	r4, #1
    45d6:	2c00      	cmp	r4, #0
    45d8:	d1f9      	bne.n	45ce <vexp1251+0xce>
    45da:	aa15      	add	r2, sp, #84	; 0x54
    45dc:	0011      	movs	r1, r2
    45de:	a801      	add	r0, sp, #4
    45e0:	4b13      	ldr	r3, [pc, #76]	; (4630 <vexp1251+0x130>)
    45e2:	4798      	blx	r3
    45e4:	3408      	adds	r4, #8
    45e6:	4f11      	ldr	r7, [pc, #68]	; (462c <vexp1251+0x12c>)
    45e8:	a915      	add	r1, sp, #84	; 0x54
    45ea:	0008      	movs	r0, r1
    45ec:	47b8      	blx	r7
    45ee:	3c01      	subs	r4, #1
    45f0:	2c00      	cmp	r4, #0
    45f2:	d1f9      	bne.n	45e8 <vexp1251+0xe8>
    45f4:	aa15      	add	r2, sp, #84	; 0x54
    45f6:	0011      	movs	r1, r2
    45f8:	a806      	add	r0, sp, #24
    45fa:	4b0d      	ldr	r3, [pc, #52]	; (4630 <vexp1251+0x130>)
    45fc:	4798      	blx	r3
    45fe:	3404      	adds	r4, #4
    4600:	4f0a      	ldr	r7, [pc, #40]	; (462c <vexp1251+0x12c>)
    4602:	a915      	add	r1, sp, #84	; 0x54
    4604:	0008      	movs	r0, r1
    4606:	47b8      	blx	r7
    4608:	3c01      	subs	r4, #1
    460a:	2c00      	cmp	r4, #0
    460c:	d1f9      	bne.n	4602 <vexp1251+0x102>
    460e:	aa15      	add	r2, sp, #84	; 0x54
    4610:	0011      	movs	r1, r2
    4612:	a80b      	add	r0, sp, #44	; 0x2c
    4614:	4c06      	ldr	r4, [pc, #24]	; (4630 <vexp1251+0x130>)
    4616:	47a0      	blx	r4
    4618:	a915      	add	r1, sp, #84	; 0x54
    461a:	0008      	movs	r0, r1
    461c:	4b03      	ldr	r3, [pc, #12]	; (462c <vexp1251+0x12c>)
    461e:	4798      	blx	r3
    4620:	0032      	movs	r2, r6
    4622:	a915      	add	r1, sp, #84	; 0x54
    4624:	0028      	movs	r0, r5
    4626:	47a0      	blx	r4
    4628:	b01b      	add	sp, #108	; 0x6c
    462a:	bdf0      	pop	{r4, r5, r6, r7, pc}
    462c:	0000422d 	.word	0x0000422d
    4630:	00003f99 	.word	0x00003f99

00004634 <vinv1271>:
    4634:	b570      	push	{r4, r5, r6, lr}
    4636:	b09e      	sub	sp, #120	; 0x78
    4638:	0005      	movs	r5, r0
    463a:	a905      	add	r1, sp, #20
    463c:	4c4d      	ldr	r4, [pc, #308]	; (4774 <vinv1271+0x140>)
    463e:	47a0      	blx	r4
    4640:	aa05      	add	r2, sp, #20
    4642:	0011      	movs	r1, r2
    4644:	0028      	movs	r0, r5
    4646:	4e4c      	ldr	r6, [pc, #304]	; (4778 <vinv1271+0x144>)
    4648:	47b0      	blx	r6
    464a:	a90a      	add	r1, sp, #40	; 0x28
    464c:	a805      	add	r0, sp, #20
    464e:	47a0      	blx	r4
    4650:	a90a      	add	r1, sp, #40	; 0x28
    4652:	0008      	movs	r0, r1
    4654:	47a0      	blx	r4
    4656:	aa0a      	add	r2, sp, #40	; 0x28
    4658:	0011      	movs	r1, r2
    465a:	a805      	add	r0, sp, #20
    465c:	47b0      	blx	r6
    465e:	a90f      	add	r1, sp, #60	; 0x3c
    4660:	a80a      	add	r0, sp, #40	; 0x28
    4662:	47a0      	blx	r4
    4664:	a90f      	add	r1, sp, #60	; 0x3c
    4666:	0008      	movs	r0, r1
    4668:	47a0      	blx	r4
    466a:	a90f      	add	r1, sp, #60	; 0x3c
    466c:	0008      	movs	r0, r1
    466e:	47a0      	blx	r4
    4670:	a90f      	add	r1, sp, #60	; 0x3c
    4672:	0008      	movs	r0, r1
    4674:	47a0      	blx	r4
    4676:	aa0f      	add	r2, sp, #60	; 0x3c
    4678:	0011      	movs	r1, r2
    467a:	a80a      	add	r0, sp, #40	; 0x28
    467c:	47b0      	blx	r6
    467e:	a914      	add	r1, sp, #80	; 0x50
    4680:	a80f      	add	r0, sp, #60	; 0x3c
    4682:	47a0      	blx	r4
    4684:	2407      	movs	r4, #7
    4686:	4e3b      	ldr	r6, [pc, #236]	; (4774 <vinv1271+0x140>)
    4688:	a914      	add	r1, sp, #80	; 0x50
    468a:	0008      	movs	r0, r1
    468c:	47b0      	blx	r6
    468e:	3c01      	subs	r4, #1
    4690:	2c00      	cmp	r4, #0
    4692:	d1f9      	bne.n	4688 <vinv1271+0x54>
    4694:	aa14      	add	r2, sp, #80	; 0x50
    4696:	0011      	movs	r1, r2
    4698:	a80f      	add	r0, sp, #60	; 0x3c
    469a:	4b37      	ldr	r3, [pc, #220]	; (4778 <vinv1271+0x144>)
    469c:	4798      	blx	r3
    469e:	a905      	add	r1, sp, #20
    46a0:	a814      	add	r0, sp, #80	; 0x50
    46a2:	4b34      	ldr	r3, [pc, #208]	; (4774 <vinv1271+0x140>)
    46a4:	4798      	blx	r3
    46a6:	340f      	adds	r4, #15
    46a8:	4e32      	ldr	r6, [pc, #200]	; (4774 <vinv1271+0x140>)
    46aa:	a905      	add	r1, sp, #20
    46ac:	0008      	movs	r0, r1
    46ae:	47b0      	blx	r6
    46b0:	3c01      	subs	r4, #1
    46b2:	2c00      	cmp	r4, #0
    46b4:	d1f9      	bne.n	46aa <vinv1271+0x76>
    46b6:	aa05      	add	r2, sp, #20
    46b8:	0011      	movs	r1, r2
    46ba:	a814      	add	r0, sp, #80	; 0x50
    46bc:	4b2e      	ldr	r3, [pc, #184]	; (4778 <vinv1271+0x144>)
    46be:	4798      	blx	r3
    46c0:	4669      	mov	r1, sp
    46c2:	a805      	add	r0, sp, #20
    46c4:	4b2b      	ldr	r3, [pc, #172]	; (4774 <vinv1271+0x140>)
    46c6:	4798      	blx	r3
    46c8:	341f      	adds	r4, #31
    46ca:	4e2a      	ldr	r6, [pc, #168]	; (4774 <vinv1271+0x140>)
    46cc:	4669      	mov	r1, sp
    46ce:	4668      	mov	r0, sp
    46d0:	47b0      	blx	r6
    46d2:	3c01      	subs	r4, #1
    46d4:	2c00      	cmp	r4, #0
    46d6:	d1f9      	bne.n	46cc <vinv1271+0x98>
    46d8:	466a      	mov	r2, sp
    46da:	4669      	mov	r1, sp
    46dc:	a805      	add	r0, sp, #20
    46de:	4b26      	ldr	r3, [pc, #152]	; (4778 <vinv1271+0x144>)
    46e0:	4798      	blx	r3
    46e2:	3420      	adds	r4, #32
    46e4:	4e23      	ldr	r6, [pc, #140]	; (4774 <vinv1271+0x140>)
    46e6:	4669      	mov	r1, sp
    46e8:	4668      	mov	r0, sp
    46ea:	47b0      	blx	r6
    46ec:	3c01      	subs	r4, #1
    46ee:	2c00      	cmp	r4, #0
    46f0:	d1f9      	bne.n	46e6 <vinv1271+0xb2>
    46f2:	466a      	mov	r2, sp
    46f4:	a905      	add	r1, sp, #20
    46f6:	4668      	mov	r0, sp
    46f8:	4b1f      	ldr	r3, [pc, #124]	; (4778 <vinv1271+0x144>)
    46fa:	4798      	blx	r3
    46fc:	3410      	adds	r4, #16
    46fe:	4e1d      	ldr	r6, [pc, #116]	; (4774 <vinv1271+0x140>)
    4700:	4669      	mov	r1, sp
    4702:	4668      	mov	r0, sp
    4704:	47b0      	blx	r6
    4706:	3c01      	subs	r4, #1
    4708:	2c00      	cmp	r4, #0
    470a:	d1f9      	bne.n	4700 <vinv1271+0xcc>
    470c:	466a      	mov	r2, sp
    470e:	4669      	mov	r1, sp
    4710:	a814      	add	r0, sp, #80	; 0x50
    4712:	4b19      	ldr	r3, [pc, #100]	; (4778 <vinv1271+0x144>)
    4714:	4798      	blx	r3
    4716:	3408      	adds	r4, #8
    4718:	4e16      	ldr	r6, [pc, #88]	; (4774 <vinv1271+0x140>)
    471a:	4669      	mov	r1, sp
    471c:	4668      	mov	r0, sp
    471e:	47b0      	blx	r6
    4720:	3c01      	subs	r4, #1
    4722:	2c00      	cmp	r4, #0
    4724:	d1f9      	bne.n	471a <vinv1271+0xe6>
    4726:	466a      	mov	r2, sp
    4728:	4669      	mov	r1, sp
    472a:	a80f      	add	r0, sp, #60	; 0x3c
    472c:	4b12      	ldr	r3, [pc, #72]	; (4778 <vinv1271+0x144>)
    472e:	4798      	blx	r3
    4730:	3404      	adds	r4, #4
    4732:	4e10      	ldr	r6, [pc, #64]	; (4774 <vinv1271+0x140>)
    4734:	4669      	mov	r1, sp
    4736:	4668      	mov	r0, sp
    4738:	47b0      	blx	r6
    473a:	3c01      	subs	r4, #1
    473c:	2c00      	cmp	r4, #0
    473e:	d1f9      	bne.n	4734 <vinv1271+0x100>
    4740:	466a      	mov	r2, sp
    4742:	4669      	mov	r1, sp
    4744:	a80a      	add	r0, sp, #40	; 0x28
    4746:	4c0c      	ldr	r4, [pc, #48]	; (4778 <vinv1271+0x144>)
    4748:	47a0      	blx	r4
    474a:	4669      	mov	r1, sp
    474c:	4668      	mov	r0, sp
    474e:	4e09      	ldr	r6, [pc, #36]	; (4774 <vinv1271+0x140>)
    4750:	47b0      	blx	r6
    4752:	aa19      	add	r2, sp, #100	; 0x64
    4754:	4669      	mov	r1, sp
    4756:	0028      	movs	r0, r5
    4758:	47a0      	blx	r4
    475a:	a919      	add	r1, sp, #100	; 0x64
    475c:	0008      	movs	r0, r1
    475e:	47b0      	blx	r6
    4760:	a919      	add	r1, sp, #100	; 0x64
    4762:	0008      	movs	r0, r1
    4764:	47b0      	blx	r6
    4766:	002a      	movs	r2, r5
    4768:	a919      	add	r1, sp, #100	; 0x64
    476a:	0028      	movs	r0, r5
    476c:	47a0      	blx	r4
    476e:	b01e      	add	sp, #120	; 0x78
    4770:	bd70      	pop	{r4, r5, r6, pc}
    4772:	46c0      	nop			; (mov r8, r8)
    4774:	0000422d 	.word	0x0000422d
    4778:	00003f99 	.word	0x00003f99

0000477c <from_std_to_ext>:
    477c:	b5f0      	push	{r4, r5, r6, r7, lr}
    477e:	6803      	ldr	r3, [r0, #0]
    4780:	019b      	lsls	r3, r3, #6
    4782:	099b      	lsrs	r3, r3, #6
    4784:	600b      	str	r3, [r1, #0]
    4786:	6843      	ldr	r3, [r0, #4]
    4788:	019b      	lsls	r3, r3, #6
    478a:	4a1c      	ldr	r2, [pc, #112]	; (47fc <from_std_to_ext+0x80>)
    478c:	4013      	ands	r3, r2
    478e:	6804      	ldr	r4, [r0, #0]
    4790:	0ea4      	lsrs	r4, r4, #26
    4792:	4323      	orrs	r3, r4
    4794:	604b      	str	r3, [r1, #4]
    4796:	6883      	ldr	r3, [r0, #8]
    4798:	031b      	lsls	r3, r3, #12
    479a:	4f19      	ldr	r7, [pc, #100]	; (4800 <from_std_to_ext+0x84>)
    479c:	403b      	ands	r3, r7
    479e:	6844      	ldr	r4, [r0, #4]
    47a0:	0d24      	lsrs	r4, r4, #20
    47a2:	4323      	orrs	r3, r4
    47a4:	608b      	str	r3, [r1, #8]
    47a6:	68c3      	ldr	r3, [r0, #12]
    47a8:	049d      	lsls	r5, r3, #18
    47aa:	26ff      	movs	r6, #255	; 0xff
    47ac:	04b6      	lsls	r6, r6, #18
    47ae:	4035      	ands	r5, r6
    47b0:	6883      	ldr	r3, [r0, #8]
    47b2:	0b9b      	lsrs	r3, r3, #14
    47b4:	431d      	orrs	r5, r3
    47b6:	60cd      	str	r5, [r1, #12]
    47b8:	68c3      	ldr	r3, [r0, #12]
    47ba:	005b      	lsls	r3, r3, #1
    47bc:	0a5b      	lsrs	r3, r3, #9
    47be:	610b      	str	r3, [r1, #16]
    47c0:	6903      	ldr	r3, [r0, #16]
    47c2:	019b      	lsls	r3, r3, #6
    47c4:	099b      	lsrs	r3, r3, #6
    47c6:	614b      	str	r3, [r1, #20]
    47c8:	6943      	ldr	r3, [r0, #20]
    47ca:	019c      	lsls	r4, r3, #6
    47cc:	4014      	ands	r4, r2
    47ce:	6903      	ldr	r3, [r0, #16]
    47d0:	0e9b      	lsrs	r3, r3, #26
    47d2:	431c      	orrs	r4, r3
    47d4:	618c      	str	r4, [r1, #24]
    47d6:	6983      	ldr	r3, [r0, #24]
    47d8:	031a      	lsls	r2, r3, #12
    47da:	403a      	ands	r2, r7
    47dc:	6943      	ldr	r3, [r0, #20]
    47de:	0d1b      	lsrs	r3, r3, #20
    47e0:	431a      	orrs	r2, r3
    47e2:	61ca      	str	r2, [r1, #28]
    47e4:	69c3      	ldr	r3, [r0, #28]
    47e6:	049b      	lsls	r3, r3, #18
    47e8:	4033      	ands	r3, r6
    47ea:	6982      	ldr	r2, [r0, #24]
    47ec:	0b92      	lsrs	r2, r2, #14
    47ee:	4313      	orrs	r3, r2
    47f0:	620b      	str	r3, [r1, #32]
    47f2:	69c3      	ldr	r3, [r0, #28]
    47f4:	005b      	lsls	r3, r3, #1
    47f6:	0a5b      	lsrs	r3, r3, #9
    47f8:	624b      	str	r3, [r1, #36]	; 0x24
    47fa:	bdf0      	pop	{r4, r5, r6, r7, pc}
    47fc:	03ffffc0 	.word	0x03ffffc0
    4800:	03fff000 	.word	0x03fff000

00004804 <from_ext_to_std>:
    4804:	6843      	ldr	r3, [r0, #4]
    4806:	069b      	lsls	r3, r3, #26
    4808:	6802      	ldr	r2, [r0, #0]
    480a:	4313      	orrs	r3, r2
    480c:	600b      	str	r3, [r1, #0]
    480e:	6883      	ldr	r3, [r0, #8]
    4810:	051b      	lsls	r3, r3, #20
    4812:	6842      	ldr	r2, [r0, #4]
    4814:	0992      	lsrs	r2, r2, #6
    4816:	4313      	orrs	r3, r2
    4818:	604b      	str	r3, [r1, #4]
    481a:	68c3      	ldr	r3, [r0, #12]
    481c:	039b      	lsls	r3, r3, #14
    481e:	6882      	ldr	r2, [r0, #8]
    4820:	0b12      	lsrs	r2, r2, #12
    4822:	4313      	orrs	r3, r2
    4824:	608b      	str	r3, [r1, #8]
    4826:	6903      	ldr	r3, [r0, #16]
    4828:	021b      	lsls	r3, r3, #8
    482a:	68c2      	ldr	r2, [r0, #12]
    482c:	0c92      	lsrs	r2, r2, #18
    482e:	4313      	orrs	r3, r2
    4830:	60cb      	str	r3, [r1, #12]
    4832:	6983      	ldr	r3, [r0, #24]
    4834:	069b      	lsls	r3, r3, #26
    4836:	6942      	ldr	r2, [r0, #20]
    4838:	4313      	orrs	r3, r2
    483a:	610b      	str	r3, [r1, #16]
    483c:	69c3      	ldr	r3, [r0, #28]
    483e:	051b      	lsls	r3, r3, #20
    4840:	6982      	ldr	r2, [r0, #24]
    4842:	0992      	lsrs	r2, r2, #6
    4844:	4313      	orrs	r3, r2
    4846:	614b      	str	r3, [r1, #20]
    4848:	6a03      	ldr	r3, [r0, #32]
    484a:	039b      	lsls	r3, r3, #14
    484c:	69c2      	ldr	r2, [r0, #28]
    484e:	0b12      	lsrs	r2, r2, #12
    4850:	4313      	orrs	r3, r2
    4852:	618b      	str	r3, [r1, #24]
    4854:	6a43      	ldr	r3, [r0, #36]	; 0x24
    4856:	021b      	lsls	r3, r3, #8
    4858:	6a02      	ldr	r2, [r0, #32]
    485a:	0c92      	lsrs	r2, r2, #18
    485c:	4313      	orrs	r3, r2
    485e:	61cb      	str	r3, [r1, #28]
    4860:	4770      	bx	lr
	...

00004864 <mp_mul>:
    4864:	b5f0      	push	{r4, r5, r6, r7, lr}
    4866:	46de      	mov	lr, fp
    4868:	4657      	mov	r7, sl
    486a:	464e      	mov	r6, r9
    486c:	4645      	mov	r5, r8
    486e:	b5e0      	push	{r5, r6, r7, lr}
    4870:	b087      	sub	sp, #28
    4872:	9103      	str	r1, [sp, #12]
    4874:	4699      	mov	r9, r3
    4876:	0059      	lsls	r1, r3, #1
    4878:	d006      	beq.n	4888 <mp_mul+0x24>
    487a:	0013      	movs	r3, r2
    487c:	0089      	lsls	r1, r1, #2
    487e:	1851      	adds	r1, r2, r1
    4880:	2400      	movs	r4, #0
    4882:	c310      	stmia	r3!, {r4}
    4884:	428b      	cmp	r3, r1
    4886:	d1fc      	bne.n	4882 <mp_mul+0x1e>
    4888:	464b      	mov	r3, r9
    488a:	2b00      	cmp	r3, #0
    488c:	d035      	beq.n	48fa <mp_mul+0x96>
    488e:	9201      	str	r2, [sp, #4]
    4890:	4680      	mov	r8, r0
    4892:	009b      	lsls	r3, r3, #2
    4894:	9302      	str	r3, [sp, #8]
    4896:	2300      	movs	r3, #0
    4898:	469b      	mov	fp, r3
    489a:	4b1b      	ldr	r3, [pc, #108]	; (4908 <mp_mul+0xa4>)
    489c:	469a      	mov	sl, r3
    489e:	9f03      	ldr	r7, [sp, #12]
    48a0:	9e01      	ldr	r6, [sp, #4]
    48a2:	2400      	movs	r4, #0
    48a4:	2500      	movs	r5, #0
    48a6:	cf02      	ldmia	r7!, {r1}
    48a8:	aa04      	add	r2, sp, #16
    48aa:	4643      	mov	r3, r8
    48ac:	6818      	ldr	r0, [r3, #0]
    48ae:	47d0      	blx	sl
    48b0:	9a04      	ldr	r2, [sp, #16]
    48b2:	1913      	adds	r3, r2, r4
    48b4:	0011      	movs	r1, r2
    48b6:	4059      	eors	r1, r3
    48b8:	4054      	eors	r4, r2
    48ba:	430c      	orrs	r4, r1
    48bc:	405c      	eors	r4, r3
    48be:	0fe4      	lsrs	r4, r4, #31
    48c0:	9a05      	ldr	r2, [sp, #20]
    48c2:	9200      	str	r2, [sp, #0]
    48c4:	18a1      	adds	r1, r4, r2
    48c6:	6830      	ldr	r0, [r6, #0]
    48c8:	181a      	adds	r2, r3, r0
    48ca:	4043      	eors	r3, r0
    48cc:	001c      	movs	r4, r3
    48ce:	4050      	eors	r0, r2
    48d0:	4304      	orrs	r4, r0
    48d2:	4054      	eors	r4, r2
    48d4:	0fe4      	lsrs	r4, r4, #31
    48d6:	1864      	adds	r4, r4, r1
    48d8:	c604      	stmia	r6!, {r2}
    48da:	3501      	adds	r5, #1
    48dc:	45a9      	cmp	r9, r5
    48de:	d1e2      	bne.n	48a6 <mp_mul+0x42>
    48e0:	9b01      	ldr	r3, [sp, #4]
    48e2:	9a02      	ldr	r2, [sp, #8]
    48e4:	509c      	str	r4, [r3, r2]
    48e6:	2201      	movs	r2, #1
    48e8:	4694      	mov	ip, r2
    48ea:	44e3      	add	fp, ip
    48ec:	3304      	adds	r3, #4
    48ee:	9301      	str	r3, [sp, #4]
    48f0:	2304      	movs	r3, #4
    48f2:	469c      	mov	ip, r3
    48f4:	44e0      	add	r8, ip
    48f6:	455d      	cmp	r5, fp
    48f8:	d1d1      	bne.n	489e <mp_mul+0x3a>
    48fa:	b007      	add	sp, #28
    48fc:	bc3c      	pop	{r2, r3, r4, r5}
    48fe:	4690      	mov	r8, r2
    4900:	4699      	mov	r9, r3
    4902:	46a2      	mov	sl, r4
    4904:	46ab      	mov	fp, r5
    4906:	bdf0      	pop	{r4, r5, r6, r7, pc}
    4908:	00003eb1 	.word	0x00003eb1

0000490c <subtract>:
    490c:	b5f0      	push	{r4, r5, r6, r7, lr}
    490e:	46d6      	mov	lr, sl
    4910:	464f      	mov	r7, r9
    4912:	4646      	mov	r6, r8
    4914:	b5c0      	push	{r6, r7, lr}
    4916:	4684      	mov	ip, r0
    4918:	4691      	mov	r9, r2
    491a:	2b00      	cmp	r3, #0
    491c:	d022      	beq.n	4964 <subtract+0x58>
    491e:	009b      	lsls	r3, r3, #2
    4920:	4698      	mov	r8, r3
    4922:	2600      	movs	r6, #0
    4924:	2200      	movs	r2, #0
    4926:	2301      	movs	r3, #1
    4928:	469a      	mov	sl, r3
    492a:	4663      	mov	r3, ip
    492c:	599b      	ldr	r3, [r3, r6]
    492e:	598f      	ldr	r7, [r1, r6]
    4930:	1bdd      	subs	r5, r3, r7
    4932:	426c      	negs	r4, r5
    4934:	432c      	orrs	r4, r5
    4936:	0fe4      	lsrs	r4, r4, #31
    4938:	4650      	mov	r0, sl
    493a:	4044      	eors	r4, r0
    493c:	4014      	ands	r4, r2
    493e:	0018      	movs	r0, r3
    4940:	4078      	eors	r0, r7
    4942:	406f      	eors	r7, r5
    4944:	4338      	orrs	r0, r7
    4946:	4058      	eors	r0, r3
    4948:	0fc0      	lsrs	r0, r0, #31
    494a:	4320      	orrs	r0, r4
    494c:	1aad      	subs	r5, r5, r2
    494e:	464b      	mov	r3, r9
    4950:	519d      	str	r5, [r3, r6]
    4952:	3604      	adds	r6, #4
    4954:	0002      	movs	r2, r0
    4956:	4546      	cmp	r6, r8
    4958:	d1e7      	bne.n	492a <subtract+0x1e>
    495a:	bc1c      	pop	{r2, r3, r4}
    495c:	4690      	mov	r8, r2
    495e:	4699      	mov	r9, r3
    4960:	46a2      	mov	sl, r4
    4962:	bdf0      	pop	{r4, r5, r6, r7, pc}
    4964:	2000      	movs	r0, #0
    4966:	e7f8      	b.n	495a <subtract+0x4e>

00004968 <Montgomery_multiply_mod_order>:
    4968:	b5f0      	push	{r4, r5, r6, r7, lr}
    496a:	b0b1      	sub	sp, #196	; 0xc4
    496c:	0015      	movs	r5, r2
    496e:	2308      	movs	r3, #8
    4970:	aa20      	add	r2, sp, #128	; 0x80
    4972:	4c2c      	ldr	r4, [pc, #176]	; (4a24 <Montgomery_multiply_mod_order+0xbc>)
    4974:	47a0      	blx	r4
    4976:	2308      	movs	r3, #8
    4978:	aa10      	add	r2, sp, #64	; 0x40
    497a:	492b      	ldr	r1, [pc, #172]	; (4a28 <Montgomery_multiply_mod_order+0xc0>)
    497c:	a820      	add	r0, sp, #128	; 0x80
    497e:	47a0      	blx	r4
    4980:	2308      	movs	r3, #8
    4982:	466a      	mov	r2, sp
    4984:	4929      	ldr	r1, [pc, #164]	; (4a2c <Montgomery_multiply_mod_order+0xc4>)
    4986:	a810      	add	r0, sp, #64	; 0x40
    4988:	47a0      	blx	r4
    498a:	2600      	movs	r6, #0
    498c:	2400      	movs	r4, #0
    498e:	a920      	add	r1, sp, #128	; 0x80
    4990:	5873      	ldr	r3, [r6, r1]
    4992:	191a      	adds	r2, r3, r4
    4994:	4668      	mov	r0, sp
    4996:	5830      	ldr	r0, [r6, r0]
    4998:	4684      	mov	ip, r0
    499a:	1817      	adds	r7, r2, r0
    499c:	4668      	mov	r0, sp
    499e:	5037      	str	r7, [r6, r0]
    49a0:	0010      	movs	r0, r2
    49a2:	4060      	eors	r0, r4
    49a4:	405c      	eors	r4, r3
    49a6:	4320      	orrs	r0, r4
    49a8:	4050      	eors	r0, r2
    49aa:	0013      	movs	r3, r2
    49ac:	407b      	eors	r3, r7
    49ae:	4664      	mov	r4, ip
    49b0:	4054      	eors	r4, r2
    49b2:	431c      	orrs	r4, r3
    49b4:	407c      	eors	r4, r7
    49b6:	4304      	orrs	r4, r0
    49b8:	0fe4      	lsrs	r4, r4, #31
    49ba:	3604      	adds	r6, #4
    49bc:	2e40      	cmp	r6, #64	; 0x40
    49be:	d1e7      	bne.n	4990 <Montgomery_multiply_mod_order+0x28>
    49c0:	2300      	movs	r3, #0
    49c2:	001a      	movs	r2, r3
    49c4:	446a      	add	r2, sp
    49c6:	6a12      	ldr	r2, [r2, #32]
    49c8:	50ea      	str	r2, [r5, r3]
    49ca:	3304      	adds	r3, #4
    49cc:	2b20      	cmp	r3, #32
    49ce:	d1f8      	bne.n	49c2 <Montgomery_multiply_mod_order+0x5a>
    49d0:	3b18      	subs	r3, #24
    49d2:	002a      	movs	r2, r5
    49d4:	4915      	ldr	r1, [pc, #84]	; (4a2c <Montgomery_multiply_mod_order+0xc4>)
    49d6:	0028      	movs	r0, r5
    49d8:	4e15      	ldr	r6, [pc, #84]	; (4a30 <Montgomery_multiply_mod_order+0xc8>)
    49da:	47b0      	blx	r6
    49dc:	1a24      	subs	r4, r4, r0
    49de:	2300      	movs	r3, #0
    49e0:	4912      	ldr	r1, [pc, #72]	; (4a2c <Montgomery_multiply_mod_order+0xc4>)
    49e2:	585a      	ldr	r2, [r3, r1]
    49e4:	4022      	ands	r2, r4
    49e6:	4668      	mov	r0, sp
    49e8:	501a      	str	r2, [r3, r0]
    49ea:	3304      	adds	r3, #4
    49ec:	2b20      	cmp	r3, #32
    49ee:	d1f8      	bne.n	49e2 <Montgomery_multiply_mod_order+0x7a>
    49f0:	2600      	movs	r6, #0
    49f2:	2300      	movs	r3, #0
    49f4:	59aa      	ldr	r2, [r5, r6]
    49f6:	18d1      	adds	r1, r2, r3
    49f8:	4668      	mov	r0, sp
    49fa:	5834      	ldr	r4, [r6, r0]
    49fc:	190f      	adds	r7, r1, r4
    49fe:	51af      	str	r7, [r5, r6]
    4a00:	0008      	movs	r0, r1
    4a02:	4058      	eors	r0, r3
    4a04:	4053      	eors	r3, r2
    4a06:	4318      	orrs	r0, r3
    4a08:	4048      	eors	r0, r1
    4a0a:	000a      	movs	r2, r1
    4a0c:	407a      	eors	r2, r7
    4a0e:	000b      	movs	r3, r1
    4a10:	4063      	eors	r3, r4
    4a12:	4313      	orrs	r3, r2
    4a14:	407b      	eors	r3, r7
    4a16:	4303      	orrs	r3, r0
    4a18:	0fdb      	lsrs	r3, r3, #31
    4a1a:	3604      	adds	r6, #4
    4a1c:	2e20      	cmp	r6, #32
    4a1e:	d1e9      	bne.n	49f4 <Montgomery_multiply_mod_order+0x8c>
    4a20:	b031      	add	sp, #196	; 0xc4
    4a22:	bdf0      	pop	{r4, r5, r6, r7, pc}
    4a24:	00004865 	.word	0x00004865
    4a28:	0000abd0 	.word	0x0000abd0
    4a2c:	0000ac18 	.word	0x0000ac18
    4a30:	0000490d 	.word	0x0000490d

00004a34 <modulo_order>:
    4a34:	b530      	push	{r4, r5, lr}
    4a36:	b091      	sub	sp, #68	; 0x44
    4a38:	0004      	movs	r4, r0
    4a3a:	000d      	movs	r5, r1
    4a3c:	2220      	movs	r2, #32
    4a3e:	2100      	movs	r1, #0
    4a40:	4668      	mov	r0, sp
    4a42:	4b07      	ldr	r3, [pc, #28]	; (4a60 <modulo_order+0x2c>)
    4a44:	4798      	blx	r3
    4a46:	2301      	movs	r3, #1
    4a48:	9300      	str	r3, [sp, #0]
    4a4a:	aa08      	add	r2, sp, #32
    4a4c:	4905      	ldr	r1, [pc, #20]	; (4a64 <modulo_order+0x30>)
    4a4e:	0020      	movs	r0, r4
    4a50:	4c05      	ldr	r4, [pc, #20]	; (4a68 <modulo_order+0x34>)
    4a52:	47a0      	blx	r4
    4a54:	002a      	movs	r2, r5
    4a56:	4669      	mov	r1, sp
    4a58:	a808      	add	r0, sp, #32
    4a5a:	47a0      	blx	r4
    4a5c:	b011      	add	sp, #68	; 0x44
    4a5e:	bd30      	pop	{r4, r5, pc}
    4a60:	00006f89 	.word	0x00006f89
    4a64:	0000abb0 	.word	0x0000abb0
    4a68:	00004969 	.word	0x00004969

00004a6c <conversion_to_odd>:
    4a6c:	b5f0      	push	{r4, r5, r6, r7, lr}
    4a6e:	46d6      	mov	lr, sl
    4a70:	464f      	mov	r7, r9
    4a72:	4646      	mov	r6, r8
    4a74:	b5c0      	push	{r6, r7, lr}
    4a76:	4689      	mov	r9, r1
    4a78:	2601      	movs	r6, #1
    4a7a:	6803      	ldr	r3, [r0, #0]
    4a7c:	401e      	ands	r6, r3
    4a7e:	1e73      	subs	r3, r6, #1
    4a80:	469c      	mov	ip, r3
    4a82:	2500      	movs	r5, #0
    4a84:	2300      	movs	r3, #0
    4a86:	4a11      	ldr	r2, [pc, #68]	; (4acc <conversion_to_odd+0x60>)
    4a88:	4692      	mov	sl, r2
    4a8a:	4652      	mov	r2, sl
    4a8c:	58aa      	ldr	r2, [r5, r2]
    4a8e:	4661      	mov	r1, ip
    4a90:	400a      	ands	r2, r1
    4a92:	18d4      	adds	r4, r2, r3
    4a94:	5946      	ldr	r6, [r0, r5]
    4a96:	19a1      	adds	r1, r4, r6
    4a98:	464f      	mov	r7, r9
    4a9a:	5179      	str	r1, [r7, r5]
    4a9c:	0027      	movs	r7, r4
    4a9e:	405f      	eors	r7, r3
    4aa0:	405a      	eors	r2, r3
    4aa2:	433a      	orrs	r2, r7
    4aa4:	4062      	eors	r2, r4
    4aa6:	4690      	mov	r8, r2
    4aa8:	0022      	movs	r2, r4
    4aaa:	404a      	eors	r2, r1
    4aac:	0023      	movs	r3, r4
    4aae:	4073      	eors	r3, r6
    4ab0:	4313      	orrs	r3, r2
    4ab2:	404b      	eors	r3, r1
    4ab4:	4642      	mov	r2, r8
    4ab6:	4313      	orrs	r3, r2
    4ab8:	0fdb      	lsrs	r3, r3, #31
    4aba:	3504      	adds	r5, #4
    4abc:	2d20      	cmp	r5, #32
    4abe:	d1e4      	bne.n	4a8a <conversion_to_odd+0x1e>
    4ac0:	bc1c      	pop	{r2, r3, r4}
    4ac2:	4690      	mov	r8, r2
    4ac4:	4699      	mov	r9, r3
    4ac6:	46a2      	mov	sl, r4
    4ac8:	bdf0      	pop	{r4, r5, r6, r7, pc}
    4aca:	46c0      	nop			; (mov r8, r8)
    4acc:	0000ac18 	.word	0x0000ac18

00004ad0 <vdiv1271>:
    4ad0:	b5f0      	push	{r4, r5, r6, r7, lr}
    4ad2:	6803      	ldr	r3, [r0, #0]
    4ad4:	07dc      	lsls	r4, r3, #31
    4ad6:	17e4      	asrs	r4, r4, #31
    4ad8:	09a6      	lsrs	r6, r4, #6
    4ada:	6842      	ldr	r2, [r0, #4]
    4adc:	18b1      	adds	r1, r6, r2
    4ade:	6882      	ldr	r2, [r0, #8]
    4ae0:	18b2      	adds	r2, r6, r2
    4ae2:	68c5      	ldr	r5, [r0, #12]
    4ae4:	1975      	adds	r5, r6, r5
    4ae6:	0a64      	lsrs	r4, r4, #9
    4ae8:	6907      	ldr	r7, [r0, #16]
    4aea:	46bc      	mov	ip, r7
    4aec:	4464      	add	r4, ip
    4aee:	199b      	adds	r3, r3, r6
    4af0:	105b      	asrs	r3, r3, #1
    4af2:	064f      	lsls	r7, r1, #25
    4af4:	2680      	movs	r6, #128	; 0x80
    4af6:	04b6      	lsls	r6, r6, #18
    4af8:	4037      	ands	r7, r6
    4afa:	19db      	adds	r3, r3, r7
    4afc:	6003      	str	r3, [r0, #0]
    4afe:	0653      	lsls	r3, r2, #25
    4b00:	4033      	ands	r3, r6
    4b02:	1049      	asrs	r1, r1, #1
    4b04:	1859      	adds	r1, r3, r1
    4b06:	6041      	str	r1, [r0, #4]
    4b08:	0669      	lsls	r1, r5, #25
    4b0a:	4031      	ands	r1, r6
    4b0c:	1052      	asrs	r2, r2, #1
    4b0e:	188a      	adds	r2, r1, r2
    4b10:	6082      	str	r2, [r0, #8]
    4b12:	0663      	lsls	r3, r4, #25
    4b14:	4033      	ands	r3, r6
    4b16:	106d      	asrs	r5, r5, #1
    4b18:	195d      	adds	r5, r3, r5
    4b1a:	60c5      	str	r5, [r0, #12]
    4b1c:	1064      	asrs	r4, r4, #1
    4b1e:	6104      	str	r4, [r0, #16]
    4b20:	bdf0      	pop	{r4, r5, r6, r7, pc}

00004b22 <v2copy1271>:
    4b22:	6803      	ldr	r3, [r0, #0]
    4b24:	600b      	str	r3, [r1, #0]
    4b26:	6843      	ldr	r3, [r0, #4]
    4b28:	604b      	str	r3, [r1, #4]
    4b2a:	6883      	ldr	r3, [r0, #8]
    4b2c:	608b      	str	r3, [r1, #8]
    4b2e:	68c3      	ldr	r3, [r0, #12]
    4b30:	60cb      	str	r3, [r1, #12]
    4b32:	6903      	ldr	r3, [r0, #16]
    4b34:	610b      	str	r3, [r1, #16]
    4b36:	6943      	ldr	r3, [r0, #20]
    4b38:	614b      	str	r3, [r1, #20]
    4b3a:	6983      	ldr	r3, [r0, #24]
    4b3c:	618b      	str	r3, [r1, #24]
    4b3e:	69c3      	ldr	r3, [r0, #28]
    4b40:	61cb      	str	r3, [r1, #28]
    4b42:	6a03      	ldr	r3, [r0, #32]
    4b44:	620b      	str	r3, [r1, #32]
    4b46:	6a43      	ldr	r3, [r0, #36]	; 0x24
    4b48:	624b      	str	r3, [r1, #36]	; 0x24
    4b4a:	4770      	bx	lr

00004b4c <table_lookup_1x8>:
    4b4c:	b5f0      	push	{r4, r5, r6, r7, lr}
    4b4e:	46d6      	mov	lr, sl
    4b50:	464f      	mov	r7, r9
    4b52:	4646      	mov	r6, r8
    4b54:	b5c0      	push	{r6, r7, lr}
    4b56:	b0d2      	sub	sp, #328	; 0x148
    4b58:	0004      	movs	r4, r0
    4b5a:	468a      	mov	sl, r1
    4b5c:	4690      	mov	r8, r2
    4b5e:	001e      	movs	r6, r3
    4b60:	a92a      	add	r1, sp, #168	; 0xa8
    4b62:	4dcc      	ldr	r5, [pc, #816]	; (4e94 <table_lookup_1x8+0x348>)
    4b64:	47a8      	blx	r5
    4b66:	0020      	movs	r0, r4
    4b68:	3028      	adds	r0, #40	; 0x28
    4b6a:	a934      	add	r1, sp, #208	; 0xd0
    4b6c:	47a8      	blx	r5
    4b6e:	0020      	movs	r0, r4
    4b70:	3050      	adds	r0, #80	; 0x50
    4b72:	a93e      	add	r1, sp, #248	; 0xf8
    4b74:	47a8      	blx	r5
    4b76:	0020      	movs	r0, r4
    4b78:	3078      	adds	r0, #120	; 0x78
    4b7a:	a948      	add	r1, sp, #288	; 0x120
    4b7c:	47a8      	blx	r5
    4b7e:	0025      	movs	r5, r4
    4b80:	35a0      	adds	r5, #160	; 0xa0
    4b82:	23a0      	movs	r3, #160	; 0xa0
    4b84:	00db      	lsls	r3, r3, #3
    4b86:	4699      	mov	r9, r3
    4b88:	44a1      	add	r9, r4
    4b8a:	4fc2      	ldr	r7, [pc, #776]	; (4e94 <table_lookup_1x8+0x348>)
    4b8c:	2301      	movs	r3, #1
    4b8e:	425b      	negs	r3, r3
    4b90:	469c      	mov	ip, r3
    4b92:	44e0      	add	r8, ip
    4b94:	4643      	mov	r3, r8
    4b96:	0fdc      	lsrs	r4, r3, #31
    4b98:	4464      	add	r4, ip
    4b9a:	a902      	add	r1, sp, #8
    4b9c:	0028      	movs	r0, r5
    4b9e:	47b8      	blx	r7
    4ba0:	0028      	movs	r0, r5
    4ba2:	3028      	adds	r0, #40	; 0x28
    4ba4:	a90c      	add	r1, sp, #48	; 0x30
    4ba6:	47b8      	blx	r7
    4ba8:	0028      	movs	r0, r5
    4baa:	3050      	adds	r0, #80	; 0x50
    4bac:	a916      	add	r1, sp, #88	; 0x58
    4bae:	47b8      	blx	r7
    4bb0:	0028      	movs	r0, r5
    4bb2:	3078      	adds	r0, #120	; 0x78
    4bb4:	a920      	add	r1, sp, #128	; 0x80
    4bb6:	47b8      	blx	r7
    4bb8:	9a2a      	ldr	r2, [sp, #168]	; 0xa8
    4bba:	9b02      	ldr	r3, [sp, #8]
    4bbc:	4053      	eors	r3, r2
    4bbe:	4023      	ands	r3, r4
    4bc0:	4053      	eors	r3, r2
    4bc2:	932a      	str	r3, [sp, #168]	; 0xa8
    4bc4:	9a2b      	ldr	r2, [sp, #172]	; 0xac
    4bc6:	9b03      	ldr	r3, [sp, #12]
    4bc8:	4053      	eors	r3, r2
    4bca:	4023      	ands	r3, r4
    4bcc:	4053      	eors	r3, r2
    4bce:	932b      	str	r3, [sp, #172]	; 0xac
    4bd0:	9a2c      	ldr	r2, [sp, #176]	; 0xb0
    4bd2:	9b04      	ldr	r3, [sp, #16]
    4bd4:	4053      	eors	r3, r2
    4bd6:	4023      	ands	r3, r4
    4bd8:	4053      	eors	r3, r2
    4bda:	932c      	str	r3, [sp, #176]	; 0xb0
    4bdc:	9a2d      	ldr	r2, [sp, #180]	; 0xb4
    4bde:	9b05      	ldr	r3, [sp, #20]
    4be0:	4053      	eors	r3, r2
    4be2:	4023      	ands	r3, r4
    4be4:	4053      	eors	r3, r2
    4be6:	932d      	str	r3, [sp, #180]	; 0xb4
    4be8:	9a2e      	ldr	r2, [sp, #184]	; 0xb8
    4bea:	9b06      	ldr	r3, [sp, #24]
    4bec:	4053      	eors	r3, r2
    4bee:	4023      	ands	r3, r4
    4bf0:	4053      	eors	r3, r2
    4bf2:	932e      	str	r3, [sp, #184]	; 0xb8
    4bf4:	9a2f      	ldr	r2, [sp, #188]	; 0xbc
    4bf6:	9b07      	ldr	r3, [sp, #28]
    4bf8:	4053      	eors	r3, r2
    4bfa:	4023      	ands	r3, r4
    4bfc:	4053      	eors	r3, r2
    4bfe:	932f      	str	r3, [sp, #188]	; 0xbc
    4c00:	9a30      	ldr	r2, [sp, #192]	; 0xc0
    4c02:	9b08      	ldr	r3, [sp, #32]
    4c04:	4053      	eors	r3, r2
    4c06:	4023      	ands	r3, r4
    4c08:	4053      	eors	r3, r2
    4c0a:	9330      	str	r3, [sp, #192]	; 0xc0
    4c0c:	9a31      	ldr	r2, [sp, #196]	; 0xc4
    4c0e:	9b09      	ldr	r3, [sp, #36]	; 0x24
    4c10:	4053      	eors	r3, r2
    4c12:	4023      	ands	r3, r4
    4c14:	4053      	eors	r3, r2
    4c16:	9331      	str	r3, [sp, #196]	; 0xc4
    4c18:	9a32      	ldr	r2, [sp, #200]	; 0xc8
    4c1a:	9b0a      	ldr	r3, [sp, #40]	; 0x28
    4c1c:	4053      	eors	r3, r2
    4c1e:	4023      	ands	r3, r4
    4c20:	4053      	eors	r3, r2
    4c22:	9332      	str	r3, [sp, #200]	; 0xc8
    4c24:	9a33      	ldr	r2, [sp, #204]	; 0xcc
    4c26:	9b0b      	ldr	r3, [sp, #44]	; 0x2c
    4c28:	4053      	eors	r3, r2
    4c2a:	4023      	ands	r3, r4
    4c2c:	4053      	eors	r3, r2
    4c2e:	9333      	str	r3, [sp, #204]	; 0xcc
    4c30:	9a34      	ldr	r2, [sp, #208]	; 0xd0
    4c32:	9b0c      	ldr	r3, [sp, #48]	; 0x30
    4c34:	4053      	eors	r3, r2
    4c36:	4023      	ands	r3, r4
    4c38:	4053      	eors	r3, r2
    4c3a:	9334      	str	r3, [sp, #208]	; 0xd0
    4c3c:	9a35      	ldr	r2, [sp, #212]	; 0xd4
    4c3e:	9b0d      	ldr	r3, [sp, #52]	; 0x34
    4c40:	4053      	eors	r3, r2
    4c42:	4023      	ands	r3, r4
    4c44:	4053      	eors	r3, r2
    4c46:	9335      	str	r3, [sp, #212]	; 0xd4
    4c48:	9a36      	ldr	r2, [sp, #216]	; 0xd8
    4c4a:	9b0e      	ldr	r3, [sp, #56]	; 0x38
    4c4c:	4053      	eors	r3, r2
    4c4e:	4023      	ands	r3, r4
    4c50:	4053      	eors	r3, r2
    4c52:	9336      	str	r3, [sp, #216]	; 0xd8
    4c54:	9a37      	ldr	r2, [sp, #220]	; 0xdc
    4c56:	9b0f      	ldr	r3, [sp, #60]	; 0x3c
    4c58:	4053      	eors	r3, r2
    4c5a:	4023      	ands	r3, r4
    4c5c:	4053      	eors	r3, r2
    4c5e:	9337      	str	r3, [sp, #220]	; 0xdc
    4c60:	9a38      	ldr	r2, [sp, #224]	; 0xe0
    4c62:	9b10      	ldr	r3, [sp, #64]	; 0x40
    4c64:	4053      	eors	r3, r2
    4c66:	4023      	ands	r3, r4
    4c68:	4053      	eors	r3, r2
    4c6a:	9338      	str	r3, [sp, #224]	; 0xe0
    4c6c:	9a39      	ldr	r2, [sp, #228]	; 0xe4
    4c6e:	9b11      	ldr	r3, [sp, #68]	; 0x44
    4c70:	4053      	eors	r3, r2
    4c72:	4023      	ands	r3, r4
    4c74:	4053      	eors	r3, r2
    4c76:	9339      	str	r3, [sp, #228]	; 0xe4
    4c78:	9a3a      	ldr	r2, [sp, #232]	; 0xe8
    4c7a:	9b12      	ldr	r3, [sp, #72]	; 0x48
    4c7c:	4053      	eors	r3, r2
    4c7e:	4023      	ands	r3, r4
    4c80:	4053      	eors	r3, r2
    4c82:	933a      	str	r3, [sp, #232]	; 0xe8
    4c84:	9a3b      	ldr	r2, [sp, #236]	; 0xec
    4c86:	9b13      	ldr	r3, [sp, #76]	; 0x4c
    4c88:	4053      	eors	r3, r2
    4c8a:	4023      	ands	r3, r4
    4c8c:	4053      	eors	r3, r2
    4c8e:	933b      	str	r3, [sp, #236]	; 0xec
    4c90:	9a3c      	ldr	r2, [sp, #240]	; 0xf0
    4c92:	9b14      	ldr	r3, [sp, #80]	; 0x50
    4c94:	4053      	eors	r3, r2
    4c96:	4023      	ands	r3, r4
    4c98:	4053      	eors	r3, r2
    4c9a:	933c      	str	r3, [sp, #240]	; 0xf0
    4c9c:	9a3d      	ldr	r2, [sp, #244]	; 0xf4
    4c9e:	9b15      	ldr	r3, [sp, #84]	; 0x54
    4ca0:	4053      	eors	r3, r2
    4ca2:	4023      	ands	r3, r4
    4ca4:	4053      	eors	r3, r2
    4ca6:	933d      	str	r3, [sp, #244]	; 0xf4
    4ca8:	9a3e      	ldr	r2, [sp, #248]	; 0xf8
    4caa:	9b16      	ldr	r3, [sp, #88]	; 0x58
    4cac:	4053      	eors	r3, r2
    4cae:	4023      	ands	r3, r4
    4cb0:	4053      	eors	r3, r2
    4cb2:	933e      	str	r3, [sp, #248]	; 0xf8
    4cb4:	9a3f      	ldr	r2, [sp, #252]	; 0xfc
    4cb6:	9b17      	ldr	r3, [sp, #92]	; 0x5c
    4cb8:	4053      	eors	r3, r2
    4cba:	4023      	ands	r3, r4
    4cbc:	4053      	eors	r3, r2
    4cbe:	933f      	str	r3, [sp, #252]	; 0xfc
    4cc0:	9a40      	ldr	r2, [sp, #256]	; 0x100
    4cc2:	9b18      	ldr	r3, [sp, #96]	; 0x60
    4cc4:	4053      	eors	r3, r2
    4cc6:	4023      	ands	r3, r4
    4cc8:	4053      	eors	r3, r2
    4cca:	9340      	str	r3, [sp, #256]	; 0x100
    4ccc:	9a41      	ldr	r2, [sp, #260]	; 0x104
    4cce:	9b19      	ldr	r3, [sp, #100]	; 0x64
    4cd0:	4053      	eors	r3, r2
    4cd2:	4023      	ands	r3, r4
    4cd4:	4053      	eors	r3, r2
    4cd6:	9341      	str	r3, [sp, #260]	; 0x104
    4cd8:	9a42      	ldr	r2, [sp, #264]	; 0x108
    4cda:	9b1a      	ldr	r3, [sp, #104]	; 0x68
    4cdc:	4053      	eors	r3, r2
    4cde:	4023      	ands	r3, r4
    4ce0:	4053      	eors	r3, r2
    4ce2:	9342      	str	r3, [sp, #264]	; 0x108
    4ce4:	9a43      	ldr	r2, [sp, #268]	; 0x10c
    4ce6:	9b1b      	ldr	r3, [sp, #108]	; 0x6c
    4ce8:	4053      	eors	r3, r2
    4cea:	4023      	ands	r3, r4
    4cec:	4053      	eors	r3, r2
    4cee:	9343      	str	r3, [sp, #268]	; 0x10c
    4cf0:	9a44      	ldr	r2, [sp, #272]	; 0x110
    4cf2:	9b1c      	ldr	r3, [sp, #112]	; 0x70
    4cf4:	4053      	eors	r3, r2
    4cf6:	4023      	ands	r3, r4
    4cf8:	4053      	eors	r3, r2
    4cfa:	9344      	str	r3, [sp, #272]	; 0x110
    4cfc:	9a45      	ldr	r2, [sp, #276]	; 0x114
    4cfe:	9b1d      	ldr	r3, [sp, #116]	; 0x74
    4d00:	4053      	eors	r3, r2
    4d02:	4023      	ands	r3, r4
    4d04:	4053      	eors	r3, r2
    4d06:	9345      	str	r3, [sp, #276]	; 0x114
    4d08:	9a46      	ldr	r2, [sp, #280]	; 0x118
    4d0a:	9b1e      	ldr	r3, [sp, #120]	; 0x78
    4d0c:	4053      	eors	r3, r2
    4d0e:	4023      	ands	r3, r4
    4d10:	4053      	eors	r3, r2
    4d12:	9346      	str	r3, [sp, #280]	; 0x118
    4d14:	9a47      	ldr	r2, [sp, #284]	; 0x11c
    4d16:	9b1f      	ldr	r3, [sp, #124]	; 0x7c
    4d18:	4053      	eors	r3, r2
    4d1a:	4023      	ands	r3, r4
    4d1c:	4053      	eors	r3, r2
    4d1e:	9347      	str	r3, [sp, #284]	; 0x11c
    4d20:	9a48      	ldr	r2, [sp, #288]	; 0x120
    4d22:	9b20      	ldr	r3, [sp, #128]	; 0x80
    4d24:	4053      	eors	r3, r2
    4d26:	4023      	ands	r3, r4
    4d28:	4053      	eors	r3, r2
    4d2a:	9348      	str	r3, [sp, #288]	; 0x120
    4d2c:	9a49      	ldr	r2, [sp, #292]	; 0x124
    4d2e:	9b21      	ldr	r3, [sp, #132]	; 0x84
    4d30:	4053      	eors	r3, r2
    4d32:	4023      	ands	r3, r4
    4d34:	4053      	eors	r3, r2
    4d36:	9349      	str	r3, [sp, #292]	; 0x124
    4d38:	2280      	movs	r2, #128	; 0x80
    4d3a:	ab02      	add	r3, sp, #8
    4d3c:	21a0      	movs	r1, #160	; 0xa0
    4d3e:	185b      	adds	r3, r3, r1
    4d40:	5899      	ldr	r1, [r3, r2]
    4d42:	ab02      	add	r3, sp, #8
    4d44:	589b      	ldr	r3, [r3, r2]
    4d46:	404b      	eors	r3, r1
    4d48:	4023      	ands	r3, r4
    4d4a:	404b      	eors	r3, r1
    4d4c:	a902      	add	r1, sp, #8
    4d4e:	20a0      	movs	r0, #160	; 0xa0
    4d50:	1809      	adds	r1, r1, r0
    4d52:	508b      	str	r3, [r1, r2]
    4d54:	3204      	adds	r2, #4
    4d56:	ab02      	add	r3, sp, #8
    4d58:	21a0      	movs	r1, #160	; 0xa0
    4d5a:	185b      	adds	r3, r3, r1
    4d5c:	5899      	ldr	r1, [r3, r2]
    4d5e:	ab02      	add	r3, sp, #8
    4d60:	589b      	ldr	r3, [r3, r2]
    4d62:	404b      	eors	r3, r1
    4d64:	4023      	ands	r3, r4
    4d66:	404b      	eors	r3, r1
    4d68:	a902      	add	r1, sp, #8
    4d6a:	1809      	adds	r1, r1, r0
    4d6c:	508b      	str	r3, [r1, r2]
    4d6e:	3204      	adds	r2, #4
    4d70:	ab02      	add	r3, sp, #8
    4d72:	21a0      	movs	r1, #160	; 0xa0
    4d74:	185b      	adds	r3, r3, r1
    4d76:	5899      	ldr	r1, [r3, r2]
    4d78:	ab02      	add	r3, sp, #8
    4d7a:	589b      	ldr	r3, [r3, r2]
    4d7c:	404b      	eors	r3, r1
    4d7e:	4023      	ands	r3, r4
    4d80:	404b      	eors	r3, r1
    4d82:	a902      	add	r1, sp, #8
    4d84:	1809      	adds	r1, r1, r0
    4d86:	508b      	str	r3, [r1, r2]
    4d88:	3204      	adds	r2, #4
    4d8a:	ab02      	add	r3, sp, #8
    4d8c:	21a0      	movs	r1, #160	; 0xa0
    4d8e:	185b      	adds	r3, r3, r1
    4d90:	5899      	ldr	r1, [r3, r2]
    4d92:	ab02      	add	r3, sp, #8
    4d94:	589b      	ldr	r3, [r3, r2]
    4d96:	404b      	eors	r3, r1
    4d98:	4023      	ands	r3, r4
    4d9a:	404b      	eors	r3, r1
    4d9c:	a902      	add	r1, sp, #8
    4d9e:	1809      	adds	r1, r1, r0
    4da0:	508b      	str	r3, [r1, r2]
    4da2:	3204      	adds	r2, #4
    4da4:	ab02      	add	r3, sp, #8
    4da6:	21a0      	movs	r1, #160	; 0xa0
    4da8:	185b      	adds	r3, r3, r1
    4daa:	5899      	ldr	r1, [r3, r2]
    4dac:	ab02      	add	r3, sp, #8
    4dae:	589b      	ldr	r3, [r3, r2]
    4db0:	404b      	eors	r3, r1
    4db2:	4023      	ands	r3, r4
    4db4:	404b      	eors	r3, r1
    4db6:	a902      	add	r1, sp, #8
    4db8:	1809      	adds	r1, r1, r0
    4dba:	508b      	str	r3, [r1, r2]
    4dbc:	3204      	adds	r2, #4
    4dbe:	ab02      	add	r3, sp, #8
    4dc0:	21a0      	movs	r1, #160	; 0xa0
    4dc2:	185b      	adds	r3, r3, r1
    4dc4:	5899      	ldr	r1, [r3, r2]
    4dc6:	ab02      	add	r3, sp, #8
    4dc8:	589b      	ldr	r3, [r3, r2]
    4dca:	404b      	eors	r3, r1
    4dcc:	4023      	ands	r3, r4
    4dce:	404b      	eors	r3, r1
    4dd0:	a902      	add	r1, sp, #8
    4dd2:	1809      	adds	r1, r1, r0
    4dd4:	508b      	str	r3, [r1, r2]
    4dd6:	3204      	adds	r2, #4
    4dd8:	ab02      	add	r3, sp, #8
    4dda:	21a0      	movs	r1, #160	; 0xa0
    4ddc:	185b      	adds	r3, r3, r1
    4dde:	5899      	ldr	r1, [r3, r2]
    4de0:	ab02      	add	r3, sp, #8
    4de2:	589b      	ldr	r3, [r3, r2]
    4de4:	404b      	eors	r3, r1
    4de6:	4023      	ands	r3, r4
    4de8:	404b      	eors	r3, r1
    4dea:	a902      	add	r1, sp, #8
    4dec:	1809      	adds	r1, r1, r0
    4dee:	508b      	str	r3, [r1, r2]
    4df0:	239c      	movs	r3, #156	; 0x9c
    4df2:	aa02      	add	r2, sp, #8
    4df4:	21a0      	movs	r1, #160	; 0xa0
    4df6:	1852      	adds	r2, r2, r1
    4df8:	58d1      	ldr	r1, [r2, r3]
    4dfa:	aa02      	add	r2, sp, #8
    4dfc:	58d2      	ldr	r2, [r2, r3]
    4dfe:	9201      	str	r2, [sp, #4]
    4e00:	404a      	eors	r2, r1
    4e02:	4014      	ands	r4, r2
    4e04:	404c      	eors	r4, r1
    4e06:	aa02      	add	r2, sp, #8
    4e08:	21a0      	movs	r1, #160	; 0xa0
    4e0a:	1852      	adds	r2, r2, r1
    4e0c:	50d4      	str	r4, [r2, r3]
    4e0e:	35a0      	adds	r5, #160	; 0xa0
    4e10:	454d      	cmp	r5, r9
    4e12:	d000      	beq.n	4e16 <table_lookup_1x8+0x2ca>
    4e14:	e6ba      	b.n	4b8c <table_lookup_1x8+0x40>
    4e16:	a920      	add	r1, sp, #128	; 0x80
    4e18:	a848      	add	r0, sp, #288	; 0x120
    4e1a:	4c1e      	ldr	r4, [pc, #120]	; (4e94 <table_lookup_1x8+0x348>)
    4e1c:	47a0      	blx	r4
    4e1e:	a90c      	add	r1, sp, #48	; 0x30
    4e20:	a82a      	add	r0, sp, #168	; 0xa8
    4e22:	47a0      	blx	r4
    4e24:	a902      	add	r1, sp, #8
    4e26:	a834      	add	r0, sp, #208	; 0xd0
    4e28:	47a0      	blx	r4
    4e2a:	a820      	add	r0, sp, #128	; 0x80
    4e2c:	4c1a      	ldr	r4, [pc, #104]	; (4e98 <table_lookup_1x8+0x34c>)
    4e2e:	47a0      	blx	r4
    4e30:	a825      	add	r0, sp, #148	; 0x94
    4e32:	47a0      	blx	r4
    4e34:	ab2a      	add	r3, sp, #168	; 0xa8
    4e36:	a902      	add	r1, sp, #8
    4e38:	a834      	add	r0, sp, #208	; 0xd0
    4e3a:	680c      	ldr	r4, [r1, #0]
    4e3c:	681a      	ldr	r2, [r3, #0]
    4e3e:	4062      	eors	r2, r4
    4e40:	4032      	ands	r2, r6
    4e42:	4062      	eors	r2, r4
    4e44:	601a      	str	r2, [r3, #0]
    4e46:	6a8c      	ldr	r4, [r1, #40]	; 0x28
    4e48:	6a9a      	ldr	r2, [r3, #40]	; 0x28
    4e4a:	4062      	eors	r2, r4
    4e4c:	4032      	ands	r2, r6
    4e4e:	4062      	eors	r2, r4
    4e50:	629a      	str	r2, [r3, #40]	; 0x28
    4e52:	6f8c      	ldr	r4, [r1, #120]	; 0x78
    4e54:	6f9a      	ldr	r2, [r3, #120]	; 0x78
    4e56:	4062      	eors	r2, r4
    4e58:	4032      	ands	r2, r6
    4e5a:	4062      	eors	r2, r4
    4e5c:	679a      	str	r2, [r3, #120]	; 0x78
    4e5e:	3304      	adds	r3, #4
    4e60:	3104      	adds	r1, #4
    4e62:	4283      	cmp	r3, r0
    4e64:	d1e9      	bne.n	4e3a <table_lookup_1x8+0x2ee>
    4e66:	4651      	mov	r1, sl
    4e68:	a82a      	add	r0, sp, #168	; 0xa8
    4e6a:	4c0a      	ldr	r4, [pc, #40]	; (4e94 <table_lookup_1x8+0x348>)
    4e6c:	47a0      	blx	r4
    4e6e:	4651      	mov	r1, sl
    4e70:	3128      	adds	r1, #40	; 0x28
    4e72:	a834      	add	r0, sp, #208	; 0xd0
    4e74:	47a0      	blx	r4
    4e76:	4651      	mov	r1, sl
    4e78:	3150      	adds	r1, #80	; 0x50
    4e7a:	a83e      	add	r0, sp, #248	; 0xf8
    4e7c:	47a0      	blx	r4
    4e7e:	4651      	mov	r1, sl
    4e80:	3178      	adds	r1, #120	; 0x78
    4e82:	a848      	add	r0, sp, #288	; 0x120
    4e84:	47a0      	blx	r4
    4e86:	b052      	add	sp, #328	; 0x148
    4e88:	bc1c      	pop	{r2, r3, r4}
    4e8a:	4690      	mov	r8, r2
    4e8c:	4699      	mov	r9, r3
    4e8e:	46a2      	mov	sl, r4
    4e90:	bdf0      	pop	{r4, r5, r6, r7, pc}
    4e92:	46c0      	nop			; (mov r8, r8)
    4e94:	00004b23 	.word	0x00004b23
    4e98:	00003f6d 	.word	0x00003f6d

00004e9c <table_lookup_fixed_base>:
    4e9c:	b5f0      	push	{r4, r5, r6, r7, lr}
    4e9e:	46de      	mov	lr, fp
    4ea0:	4657      	mov	r7, sl
    4ea2:	464e      	mov	r6, r9
    4ea4:	4645      	mov	r5, r8
    4ea6:	b5e0      	push	{r5, r6, r7, lr}
    4ea8:	b0bf      	sub	sp, #252	; 0xfc
    4eaa:	0004      	movs	r4, r0
    4eac:	9101      	str	r1, [sp, #4]
    4eae:	4692      	mov	sl, r2
    4eb0:	469b      	mov	fp, r3
    4eb2:	a920      	add	r1, sp, #128	; 0x80
    4eb4:	4d42      	ldr	r5, [pc, #264]	; (4fc0 <table_lookup_fixed_base+0x124>)
    4eb6:	47a8      	blx	r5
    4eb8:	0020      	movs	r0, r4
    4eba:	3028      	adds	r0, #40	; 0x28
    4ebc:	a92a      	add	r1, sp, #168	; 0xa8
    4ebe:	47a8      	blx	r5
    4ec0:	0020      	movs	r0, r4
    4ec2:	3050      	adds	r0, #80	; 0x50
    4ec4:	a934      	add	r1, sp, #208	; 0xd0
    4ec6:	47a8      	blx	r5
    4ec8:	0027      	movs	r7, r4
    4eca:	3778      	adds	r7, #120	; 0x78
    4ecc:	0023      	movs	r3, r4
    4ece:	22f0      	movs	r2, #240	; 0xf0
    4ed0:	00d2      	lsls	r2, r2, #3
    4ed2:	4694      	mov	ip, r2
    4ed4:	4463      	add	r3, ip
    4ed6:	4a3a      	ldr	r2, [pc, #232]	; (4fc0 <table_lookup_fixed_base+0x124>)
    4ed8:	4691      	mov	r9, r2
    4eda:	4698      	mov	r8, r3
    4edc:	4654      	mov	r4, sl
    4ede:	e003      	b.n	4ee8 <table_lookup_fixed_base+0x4c>
    4ee0:	4664      	mov	r4, ip
    4ee2:	3778      	adds	r7, #120	; 0x78
    4ee4:	4547      	cmp	r7, r8
    4ee6:	d02e      	beq.n	4f46 <table_lookup_fixed_base+0xaa>
    4ee8:	3c01      	subs	r4, #1
    4eea:	0fe5      	lsrs	r5, r4, #31
    4eec:	3d01      	subs	r5, #1
    4eee:	a902      	add	r1, sp, #8
    4ef0:	0038      	movs	r0, r7
    4ef2:	47c8      	blx	r9
    4ef4:	0038      	movs	r0, r7
    4ef6:	3028      	adds	r0, #40	; 0x28
    4ef8:	a90c      	add	r1, sp, #48	; 0x30
    4efa:	47c8      	blx	r9
    4efc:	0038      	movs	r0, r7
    4efe:	3050      	adds	r0, #80	; 0x50
    4f00:	a916      	add	r1, sp, #88	; 0x58
    4f02:	47c8      	blx	r9
    4f04:	ae20      	add	r6, sp, #128	; 0x80
    4f06:	ab02      	add	r3, sp, #8
    4f08:	469a      	mov	sl, r3
    4f0a:	a82a      	add	r0, sp, #168	; 0xa8
    4f0c:	0019      	movs	r1, r3
    4f0e:	0032      	movs	r2, r6
    4f10:	46a4      	mov	ip, r4
    4f12:	6813      	ldr	r3, [r2, #0]
    4f14:	680c      	ldr	r4, [r1, #0]
    4f16:	4063      	eors	r3, r4
    4f18:	402b      	ands	r3, r5
    4f1a:	6814      	ldr	r4, [r2, #0]
    4f1c:	4063      	eors	r3, r4
    4f1e:	6013      	str	r3, [r2, #0]
    4f20:	6a93      	ldr	r3, [r2, #40]	; 0x28
    4f22:	6a8c      	ldr	r4, [r1, #40]	; 0x28
    4f24:	4063      	eors	r3, r4
    4f26:	402b      	ands	r3, r5
    4f28:	6a94      	ldr	r4, [r2, #40]	; 0x28
    4f2a:	4063      	eors	r3, r4
    4f2c:	6293      	str	r3, [r2, #40]	; 0x28
    4f2e:	6d13      	ldr	r3, [r2, #80]	; 0x50
    4f30:	6d0c      	ldr	r4, [r1, #80]	; 0x50
    4f32:	4063      	eors	r3, r4
    4f34:	402b      	ands	r3, r5
    4f36:	6d14      	ldr	r4, [r2, #80]	; 0x50
    4f38:	4063      	eors	r3, r4
    4f3a:	6513      	str	r3, [r2, #80]	; 0x50
    4f3c:	3204      	adds	r2, #4
    4f3e:	3104      	adds	r1, #4
    4f40:	4282      	cmp	r2, r0
    4f42:	d1e6      	bne.n	4f12 <table_lookup_fixed_base+0x76>
    4f44:	e7cc      	b.n	4ee0 <table_lookup_fixed_base+0x44>
    4f46:	0014      	movs	r4, r2
    4f48:	a916      	add	r1, sp, #88	; 0x58
    4f4a:	a834      	add	r0, sp, #208	; 0xd0
    4f4c:	4d1c      	ldr	r5, [pc, #112]	; (4fc0 <table_lookup_fixed_base+0x124>)
    4f4e:	47a8      	blx	r5
    4f50:	a90c      	add	r1, sp, #48	; 0x30
    4f52:	a820      	add	r0, sp, #128	; 0x80
    4f54:	47a8      	blx	r5
    4f56:	a902      	add	r1, sp, #8
    4f58:	a82a      	add	r0, sp, #168	; 0xa8
    4f5a:	47a8      	blx	r5
    4f5c:	a816      	add	r0, sp, #88	; 0x58
    4f5e:	4d19      	ldr	r5, [pc, #100]	; (4fc4 <table_lookup_fixed_base+0x128>)
    4f60:	47a8      	blx	r5
    4f62:	a81b      	add	r0, sp, #108	; 0x6c
    4f64:	47a8      	blx	r5
    4f66:	4652      	mov	r2, sl
    4f68:	4659      	mov	r1, fp
    4f6a:	6830      	ldr	r0, [r6, #0]
    4f6c:	6813      	ldr	r3, [r2, #0]
    4f6e:	4043      	eors	r3, r0
    4f70:	400b      	ands	r3, r1
    4f72:	4043      	eors	r3, r0
    4f74:	6033      	str	r3, [r6, #0]
    4f76:	6ab0      	ldr	r0, [r6, #40]	; 0x28
    4f78:	6a93      	ldr	r3, [r2, #40]	; 0x28
    4f7a:	4043      	eors	r3, r0
    4f7c:	400b      	ands	r3, r1
    4f7e:	4043      	eors	r3, r0
    4f80:	62b3      	str	r3, [r6, #40]	; 0x28
    4f82:	6d30      	ldr	r0, [r6, #80]	; 0x50
    4f84:	6d13      	ldr	r3, [r2, #80]	; 0x50
    4f86:	4043      	eors	r3, r0
    4f88:	400b      	ands	r3, r1
    4f8a:	4043      	eors	r3, r0
    4f8c:	6533      	str	r3, [r6, #80]	; 0x50
    4f8e:	3604      	adds	r6, #4
    4f90:	3204      	adds	r2, #4
    4f92:	42a6      	cmp	r6, r4
    4f94:	d1e9      	bne.n	4f6a <table_lookup_fixed_base+0xce>
    4f96:	9d01      	ldr	r5, [sp, #4]
    4f98:	0029      	movs	r1, r5
    4f9a:	a820      	add	r0, sp, #128	; 0x80
    4f9c:	4c08      	ldr	r4, [pc, #32]	; (4fc0 <table_lookup_fixed_base+0x124>)
    4f9e:	47a0      	blx	r4
    4fa0:	0029      	movs	r1, r5
    4fa2:	3128      	adds	r1, #40	; 0x28
    4fa4:	a82a      	add	r0, sp, #168	; 0xa8
    4fa6:	47a0      	blx	r4
    4fa8:	0029      	movs	r1, r5
    4faa:	3150      	adds	r1, #80	; 0x50
    4fac:	a834      	add	r0, sp, #208	; 0xd0
    4fae:	47a0      	blx	r4
    4fb0:	b03f      	add	sp, #252	; 0xfc
    4fb2:	bc3c      	pop	{r2, r3, r4, r5}
    4fb4:	4690      	mov	r8, r2
    4fb6:	4699      	mov	r9, r3
    4fb8:	46a2      	mov	sl, r4
    4fba:	46ab      	mov	fp, r5
    4fbc:	bdf0      	pop	{r4, r5, r6, r7, pc}
    4fbe:	46c0      	nop			; (mov r8, r8)
    4fc0:	00004b23 	.word	0x00004b23
    4fc4:	00003f6d 	.word	0x00003f6d

00004fc8 <v2zero1271>:
    4fc8:	2300      	movs	r3, #0
    4fca:	6003      	str	r3, [r0, #0]
    4fcc:	6043      	str	r3, [r0, #4]
    4fce:	6083      	str	r3, [r0, #8]
    4fd0:	60c3      	str	r3, [r0, #12]
    4fd2:	6103      	str	r3, [r0, #16]
    4fd4:	6143      	str	r3, [r0, #20]
    4fd6:	6183      	str	r3, [r0, #24]
    4fd8:	61c3      	str	r3, [r0, #28]
    4fda:	6203      	str	r3, [r0, #32]
    4fdc:	6243      	str	r3, [r0, #36]	; 0x24
    4fde:	4770      	bx	lr

00004fe0 <v2add1271>:
    4fe0:	b5f8      	push	{r3, r4, r5, r6, r7, lr}
    4fe2:	0004      	movs	r4, r0
    4fe4:	000d      	movs	r5, r1
    4fe6:	0016      	movs	r6, r2
    4fe8:	4f04      	ldr	r7, [pc, #16]	; (4ffc <v2add1271+0x1c>)
    4fea:	47b8      	blx	r7
    4fec:	0032      	movs	r2, r6
    4fee:	3214      	adds	r2, #20
    4ff0:	0029      	movs	r1, r5
    4ff2:	3114      	adds	r1, #20
    4ff4:	0020      	movs	r0, r4
    4ff6:	3014      	adds	r0, #20
    4ff8:	47b8      	blx	r7
    4ffa:	bdf8      	pop	{r3, r4, r5, r6, r7, pc}
    4ffc:	00003f03 	.word	0x00003f03

00005000 <v2sub1271>:
    5000:	b5f8      	push	{r3, r4, r5, r6, r7, lr}
    5002:	0004      	movs	r4, r0
    5004:	000d      	movs	r5, r1
    5006:	0016      	movs	r6, r2
    5008:	4f04      	ldr	r7, [pc, #16]	; (501c <v2sub1271+0x1c>)
    500a:	47b8      	blx	r7
    500c:	0032      	movs	r2, r6
    500e:	3214      	adds	r2, #20
    5010:	0029      	movs	r1, r5
    5012:	3114      	adds	r1, #20
    5014:	0020      	movs	r0, r4
    5016:	3014      	adds	r0, #20
    5018:	47b8      	blx	r7
    501a:	bdf8      	pop	{r3, r4, r5, r6, r7, pc}
    501c:	00003f3f 	.word	0x00003f3f

00005020 <v2dblsub1271>:
    5020:	b510      	push	{r4, lr}
    5022:	6803      	ldr	r3, [r0, #0]
    5024:	005b      	lsls	r3, r3, #1
    5026:	680c      	ldr	r4, [r1, #0]
    5028:	1b1b      	subs	r3, r3, r4
    502a:	6013      	str	r3, [r2, #0]
    502c:	6843      	ldr	r3, [r0, #4]
    502e:	005b      	lsls	r3, r3, #1
    5030:	684c      	ldr	r4, [r1, #4]
    5032:	1b1b      	subs	r3, r3, r4
    5034:	6053      	str	r3, [r2, #4]
    5036:	6883      	ldr	r3, [r0, #8]
    5038:	005b      	lsls	r3, r3, #1
    503a:	688c      	ldr	r4, [r1, #8]
    503c:	1b1b      	subs	r3, r3, r4
    503e:	6093      	str	r3, [r2, #8]
    5040:	68c3      	ldr	r3, [r0, #12]
    5042:	005b      	lsls	r3, r3, #1
    5044:	68cc      	ldr	r4, [r1, #12]
    5046:	1b1b      	subs	r3, r3, r4
    5048:	60d3      	str	r3, [r2, #12]
    504a:	6903      	ldr	r3, [r0, #16]
    504c:	005b      	lsls	r3, r3, #1
    504e:	690c      	ldr	r4, [r1, #16]
    5050:	1b1b      	subs	r3, r3, r4
    5052:	6113      	str	r3, [r2, #16]
    5054:	6943      	ldr	r3, [r0, #20]
    5056:	005b      	lsls	r3, r3, #1
    5058:	694c      	ldr	r4, [r1, #20]
    505a:	1b1b      	subs	r3, r3, r4
    505c:	6153      	str	r3, [r2, #20]
    505e:	6983      	ldr	r3, [r0, #24]
    5060:	005b      	lsls	r3, r3, #1
    5062:	698c      	ldr	r4, [r1, #24]
    5064:	1b1b      	subs	r3, r3, r4
    5066:	6193      	str	r3, [r2, #24]
    5068:	69c3      	ldr	r3, [r0, #28]
    506a:	005b      	lsls	r3, r3, #1
    506c:	69cc      	ldr	r4, [r1, #28]
    506e:	1b1b      	subs	r3, r3, r4
    5070:	61d3      	str	r3, [r2, #28]
    5072:	6a03      	ldr	r3, [r0, #32]
    5074:	005b      	lsls	r3, r3, #1
    5076:	6a0c      	ldr	r4, [r1, #32]
    5078:	1b1b      	subs	r3, r3, r4
    507a:	6213      	str	r3, [r2, #32]
    507c:	6a43      	ldr	r3, [r0, #36]	; 0x24
    507e:	005b      	lsls	r3, r3, #1
    5080:	6a49      	ldr	r1, [r1, #36]	; 0x24
    5082:	1a5b      	subs	r3, r3, r1
    5084:	6253      	str	r3, [r2, #36]	; 0x24
    5086:	bd10      	pop	{r4, pc}

00005088 <v2neg1271>:
    5088:	4b10      	ldr	r3, [pc, #64]	; (50cc <v2neg1271+0x44>)
    508a:	6802      	ldr	r2, [r0, #0]
    508c:	1a9a      	subs	r2, r3, r2
    508e:	6002      	str	r2, [r0, #0]
    5090:	6842      	ldr	r2, [r0, #4]
    5092:	1a9a      	subs	r2, r3, r2
    5094:	6042      	str	r2, [r0, #4]
    5096:	6882      	ldr	r2, [r0, #8]
    5098:	1a9a      	subs	r2, r3, r2
    509a:	6082      	str	r2, [r0, #8]
    509c:	68c2      	ldr	r2, [r0, #12]
    509e:	1a9a      	subs	r2, r3, r2
    50a0:	60c2      	str	r2, [r0, #12]
    50a2:	4a0b      	ldr	r2, [pc, #44]	; (50d0 <v2neg1271+0x48>)
    50a4:	6901      	ldr	r1, [r0, #16]
    50a6:	1a51      	subs	r1, r2, r1
    50a8:	6101      	str	r1, [r0, #16]
    50aa:	6941      	ldr	r1, [r0, #20]
    50ac:	1a59      	subs	r1, r3, r1
    50ae:	6141      	str	r1, [r0, #20]
    50b0:	6981      	ldr	r1, [r0, #24]
    50b2:	1a59      	subs	r1, r3, r1
    50b4:	6181      	str	r1, [r0, #24]
    50b6:	69c1      	ldr	r1, [r0, #28]
    50b8:	1a59      	subs	r1, r3, r1
    50ba:	61c1      	str	r1, [r0, #28]
    50bc:	6a01      	ldr	r1, [r0, #32]
    50be:	1a5b      	subs	r3, r3, r1
    50c0:	6203      	str	r3, [r0, #32]
    50c2:	6a43      	ldr	r3, [r0, #36]	; 0x24
    50c4:	1ad2      	subs	r2, r2, r3
    50c6:	6242      	str	r2, [r0, #36]	; 0x24
    50c8:	4770      	bx	lr
    50ca:	46c0      	nop			; (mov r8, r8)
    50cc:	03ffffff 	.word	0x03ffffff
    50d0:	007fffff 	.word	0x007fffff

000050d4 <v2div1271>:
    50d4:	b5f0      	push	{r4, r5, r6, r7, lr}
    50d6:	46c6      	mov	lr, r8
    50d8:	b500      	push	{lr}
    50da:	6804      	ldr	r4, [r0, #0]
    50dc:	2301      	movs	r3, #1
    50de:	4698      	mov	r8, r3
    50e0:	001a      	movs	r2, r3
    50e2:	4022      	ands	r2, r4
    50e4:	4252      	negs	r2, r2
    50e6:	0991      	lsrs	r1, r2, #6
    50e8:	6843      	ldr	r3, [r0, #4]
    50ea:	18ce      	adds	r6, r1, r3
    50ec:	6883      	ldr	r3, [r0, #8]
    50ee:	18cd      	adds	r5, r1, r3
    50f0:	68c3      	ldr	r3, [r0, #12]
    50f2:	18cf      	adds	r7, r1, r3
    50f4:	0a52      	lsrs	r2, r2, #9
    50f6:	6903      	ldr	r3, [r0, #16]
    50f8:	469c      	mov	ip, r3
    50fa:	4462      	add	r2, ip
    50fc:	1864      	adds	r4, r4, r1
    50fe:	1064      	asrs	r4, r4, #1
    5100:	0673      	lsls	r3, r6, #25
    5102:	2180      	movs	r1, #128	; 0x80
    5104:	0489      	lsls	r1, r1, #18
    5106:	400b      	ands	r3, r1
    5108:	469c      	mov	ip, r3
    510a:	4464      	add	r4, ip
    510c:	6004      	str	r4, [r0, #0]
    510e:	066c      	lsls	r4, r5, #25
    5110:	400c      	ands	r4, r1
    5112:	1076      	asrs	r6, r6, #1
    5114:	19a6      	adds	r6, r4, r6
    5116:	6046      	str	r6, [r0, #4]
    5118:	067c      	lsls	r4, r7, #25
    511a:	400c      	ands	r4, r1
    511c:	106d      	asrs	r5, r5, #1
    511e:	1965      	adds	r5, r4, r5
    5120:	6085      	str	r5, [r0, #8]
    5122:	0654      	lsls	r4, r2, #25
    5124:	400c      	ands	r4, r1
    5126:	107f      	asrs	r7, r7, #1
    5128:	19e7      	adds	r7, r4, r7
    512a:	60c7      	str	r7, [r0, #12]
    512c:	1052      	asrs	r2, r2, #1
    512e:	6102      	str	r2, [r0, #16]
    5130:	6942      	ldr	r2, [r0, #20]
    5132:	4643      	mov	r3, r8
    5134:	4013      	ands	r3, r2
    5136:	425b      	negs	r3, r3
    5138:	099f      	lsrs	r7, r3, #6
    513a:	6984      	ldr	r4, [r0, #24]
    513c:	193e      	adds	r6, r7, r4
    513e:	69c4      	ldr	r4, [r0, #28]
    5140:	193d      	adds	r5, r7, r4
    5142:	6a04      	ldr	r4, [r0, #32]
    5144:	193c      	adds	r4, r7, r4
    5146:	0a5b      	lsrs	r3, r3, #9
    5148:	4698      	mov	r8, r3
    514a:	6a43      	ldr	r3, [r0, #36]	; 0x24
    514c:	469c      	mov	ip, r3
    514e:	4643      	mov	r3, r8
    5150:	4463      	add	r3, ip
    5152:	19d2      	adds	r2, r2, r7
    5154:	1052      	asrs	r2, r2, #1
    5156:	0677      	lsls	r7, r6, #25
    5158:	400f      	ands	r7, r1
    515a:	19d2      	adds	r2, r2, r7
    515c:	6142      	str	r2, [r0, #20]
    515e:	066a      	lsls	r2, r5, #25
    5160:	400a      	ands	r2, r1
    5162:	1076      	asrs	r6, r6, #1
    5164:	1996      	adds	r6, r2, r6
    5166:	6186      	str	r6, [r0, #24]
    5168:	0662      	lsls	r2, r4, #25
    516a:	400a      	ands	r2, r1
    516c:	106d      	asrs	r5, r5, #1
    516e:	1955      	adds	r5, r2, r5
    5170:	61c5      	str	r5, [r0, #28]
    5172:	065a      	lsls	r2, r3, #25
    5174:	4011      	ands	r1, r2
    5176:	1064      	asrs	r4, r4, #1
    5178:	190c      	adds	r4, r1, r4
    517a:	6204      	str	r4, [r0, #32]
    517c:	105b      	asrs	r3, r3, #1
    517e:	6243      	str	r3, [r0, #36]	; 0x24
    5180:	bc04      	pop	{r2}
    5182:	4690      	mov	r8, r2
    5184:	bdf0      	pop	{r4, r5, r6, r7, pc}
	...

00005188 <v2mod1271_incomplete>:
    5188:	b570      	push	{r4, r5, r6, lr}
    518a:	0004      	movs	r4, r0
    518c:	000d      	movs	r5, r1
    518e:	4e04      	ldr	r6, [pc, #16]	; (51a0 <v2mod1271_incomplete+0x18>)
    5190:	47b0      	blx	r6
    5192:	0029      	movs	r1, r5
    5194:	3114      	adds	r1, #20
    5196:	0020      	movs	r0, r4
    5198:	3014      	adds	r0, #20
    519a:	47b0      	blx	r6
    519c:	bd70      	pop	{r4, r5, r6, pc}
    519e:	46c0      	nop			; (mov r8, r8)
    51a0:	00004409 	.word	0x00004409

000051a4 <v2mod1271>:
    51a4:	b570      	push	{r4, r5, r6, lr}
    51a6:	0004      	movs	r4, r0
    51a8:	000d      	movs	r5, r1
    51aa:	4e04      	ldr	r6, [pc, #16]	; (51bc <v2mod1271+0x18>)
    51ac:	47b0      	blx	r6
    51ae:	0029      	movs	r1, r5
    51b0:	3114      	adds	r1, #20
    51b2:	0020      	movs	r0, r4
    51b4:	3014      	adds	r0, #20
    51b6:	47b0      	blx	r6
    51b8:	bd70      	pop	{r4, r5, r6, pc}
    51ba:	46c0      	nop			; (mov r8, r8)
    51bc:	00004471 	.word	0x00004471

000051c0 <v2mul1271>:
    51c0:	b5f0      	push	{r4, r5, r6, r7, lr}
    51c2:	b097      	sub	sp, #92	; 0x5c
    51c4:	0006      	movs	r6, r0
    51c6:	000d      	movs	r5, r1
    51c8:	9201      	str	r2, [sp, #4]
    51ca:	ab11      	add	r3, sp, #68	; 0x44
    51cc:	001a      	movs	r2, r3
    51ce:	4c16      	ldr	r4, [pc, #88]	; (5228 <v2mul1271+0x68>)
    51d0:	47a0      	blx	r4
    51d2:	2314      	movs	r3, #20
    51d4:	469c      	mov	ip, r3
    51d6:	44b4      	add	ip, r6
    51d8:	4663      	mov	r3, ip
    51da:	002f      	movs	r7, r5
    51dc:	3714      	adds	r7, #20
    51de:	a90c      	add	r1, sp, #48	; 0x30
    51e0:	000a      	movs	r2, r1
    51e2:	0039      	movs	r1, r7
    51e4:	9300      	str	r3, [sp, #0]
    51e6:	4660      	mov	r0, ip
    51e8:	47a0      	blx	r4
    51ea:	a807      	add	r0, sp, #28
    51ec:	0002      	movs	r2, r0
    51ee:	9900      	ldr	r1, [sp, #0]
    51f0:	0030      	movs	r0, r6
    51f2:	4e0e      	ldr	r6, [pc, #56]	; (522c <v2mul1271+0x6c>)
    51f4:	47b0      	blx	r6
    51f6:	aa02      	add	r2, sp, #8
    51f8:	0039      	movs	r1, r7
    51fa:	0028      	movs	r0, r5
    51fc:	47b0      	blx	r6
    51fe:	9e01      	ldr	r6, [sp, #4]
    5200:	0032      	movs	r2, r6
    5202:	a90c      	add	r1, sp, #48	; 0x30
    5204:	a811      	add	r0, sp, #68	; 0x44
    5206:	4d0a      	ldr	r5, [pc, #40]	; (5230 <v2mul1271+0x70>)
    5208:	47a8      	blx	r5
    520a:	aa07      	add	r2, sp, #28
    520c:	a902      	add	r1, sp, #8
    520e:	0010      	movs	r0, r2
    5210:	47a0      	blx	r4
    5212:	aa07      	add	r2, sp, #28
    5214:	a911      	add	r1, sp, #68	; 0x44
    5216:	0010      	movs	r0, r2
    5218:	47a8      	blx	r5
    521a:	0032      	movs	r2, r6
    521c:	3214      	adds	r2, #20
    521e:	a90c      	add	r1, sp, #48	; 0x30
    5220:	a807      	add	r0, sp, #28
    5222:	47a8      	blx	r5
    5224:	b017      	add	sp, #92	; 0x5c
    5226:	bdf0      	pop	{r4, r5, r6, r7, pc}
    5228:	00003f99 	.word	0x00003f99
    522c:	00003f03 	.word	0x00003f03
    5230:	00003f3f 	.word	0x00003f3f

00005234 <v2sqr1271>:
    5234:	b5f0      	push	{r4, r5, r6, r7, lr}
    5236:	b091      	sub	sp, #68	; 0x44
    5238:	0005      	movs	r5, r0
    523a:	000c      	movs	r4, r1
    523c:	0006      	movs	r6, r0
    523e:	3614      	adds	r6, #20
    5240:	aa0b      	add	r2, sp, #44	; 0x2c
    5242:	0031      	movs	r1, r6
    5244:	4f0b      	ldr	r7, [pc, #44]	; (5274 <v2sqr1271+0x40>)
    5246:	47b8      	blx	r7
    5248:	aa06      	add	r2, sp, #24
    524a:	0031      	movs	r1, r6
    524c:	0028      	movs	r0, r5
    524e:	4b0a      	ldr	r3, [pc, #40]	; (5278 <v2sqr1271+0x44>)
    5250:	4798      	blx	r3
    5252:	aa01      	add	r2, sp, #4
    5254:	0031      	movs	r1, r6
    5256:	0028      	movs	r0, r5
    5258:	4d08      	ldr	r5, [pc, #32]	; (527c <v2sqr1271+0x48>)
    525a:	47a8      	blx	r5
    525c:	0022      	movs	r2, r4
    525e:	a906      	add	r1, sp, #24
    5260:	a80b      	add	r0, sp, #44	; 0x2c
    5262:	47a8      	blx	r5
    5264:	0022      	movs	r2, r4
    5266:	3214      	adds	r2, #20
    5268:	a901      	add	r1, sp, #4
    526a:	0008      	movs	r0, r1
    526c:	47b8      	blx	r7
    526e:	b011      	add	sp, #68	; 0x44
    5270:	bdf0      	pop	{r4, r5, r6, r7, pc}
    5272:	46c0      	nop			; (mov r8, r8)
    5274:	00003f03 	.word	0x00003f03
    5278:	00003f3f 	.word	0x00003f3f
    527c:	00003f99 	.word	0x00003f99

00005280 <v2inv1271>:
    5280:	b570      	push	{r4, r5, r6, lr}
    5282:	b08a      	sub	sp, #40	; 0x28
    5284:	0005      	movs	r5, r0
    5286:	a905      	add	r1, sp, #20
    5288:	4e0e      	ldr	r6, [pc, #56]	; (52c4 <v2inv1271+0x44>)
    528a:	47b0      	blx	r6
    528c:	002c      	movs	r4, r5
    528e:	3414      	adds	r4, #20
    5290:	4669      	mov	r1, sp
    5292:	0020      	movs	r0, r4
    5294:	47b0      	blx	r6
    5296:	aa05      	add	r2, sp, #20
    5298:	4669      	mov	r1, sp
    529a:	0010      	movs	r0, r2
    529c:	4b0a      	ldr	r3, [pc, #40]	; (52c8 <v2inv1271+0x48>)
    529e:	4798      	blx	r3
    52a0:	a805      	add	r0, sp, #20
    52a2:	4b0a      	ldr	r3, [pc, #40]	; (52cc <v2inv1271+0x4c>)
    52a4:	4798      	blx	r3
    52a6:	0020      	movs	r0, r4
    52a8:	4b09      	ldr	r3, [pc, #36]	; (52d0 <v2inv1271+0x50>)
    52aa:	4798      	blx	r3
    52ac:	002a      	movs	r2, r5
    52ae:	a905      	add	r1, sp, #20
    52b0:	0028      	movs	r0, r5
    52b2:	4d08      	ldr	r5, [pc, #32]	; (52d4 <v2inv1271+0x54>)
    52b4:	47a8      	blx	r5
    52b6:	0022      	movs	r2, r4
    52b8:	a905      	add	r1, sp, #20
    52ba:	0020      	movs	r0, r4
    52bc:	47a8      	blx	r5
    52be:	b00a      	add	sp, #40	; 0x28
    52c0:	bd70      	pop	{r4, r5, r6, pc}
    52c2:	46c0      	nop			; (mov r8, r8)
    52c4:	0000422d 	.word	0x0000422d
    52c8:	00003f03 	.word	0x00003f03
    52cc:	00004635 	.word	0x00004635
    52d0:	00003f6d 	.word	0x00003f6d
    52d4:	00003f99 	.word	0x00003f99

000052d8 <clear_words>:
    52d8:	2900      	cmp	r1, #0
    52da:	d006      	beq.n	52ea <clear_words+0x12>
    52dc:	0003      	movs	r3, r0
    52de:	0089      	lsls	r1, r1, #2
    52e0:	1840      	adds	r0, r0, r1
    52e2:	2200      	movs	r2, #0
    52e4:	c304      	stmia	r3!, {r2}
    52e6:	4283      	cmp	r3, r0
    52e8:	d1fc      	bne.n	52e4 <clear_words+0xc>
    52ea:	4770      	bx	lr

000052ec <eccnorm>:
    52ec:	b5f0      	push	{r4, r5, r6, r7, lr}
    52ee:	b083      	sub	sp, #12
    52f0:	0004      	movs	r4, r0
    52f2:	000d      	movs	r5, r1
    52f4:	0007      	movs	r7, r0
    52f6:	3750      	adds	r7, #80	; 0x50
    52f8:	0038      	movs	r0, r7
    52fa:	4b0d      	ldr	r3, [pc, #52]	; (5330 <eccnorm+0x44>)
    52fc:	4798      	blx	r3
    52fe:	002a      	movs	r2, r5
    5300:	0039      	movs	r1, r7
    5302:	0020      	movs	r0, r4
    5304:	4e0b      	ldr	r6, [pc, #44]	; (5334 <eccnorm+0x48>)
    5306:	47b0      	blx	r6
    5308:	2328      	movs	r3, #40	; 0x28
    530a:	469c      	mov	ip, r3
    530c:	44ac      	add	ip, r5
    530e:	4663      	mov	r3, ip
    5310:	0020      	movs	r0, r4
    5312:	3028      	adds	r0, #40	; 0x28
    5314:	9301      	str	r3, [sp, #4]
    5316:	4662      	mov	r2, ip
    5318:	0039      	movs	r1, r7
    531a:	47b0      	blx	r6
    531c:	0029      	movs	r1, r5
    531e:	0028      	movs	r0, r5
    5320:	4c05      	ldr	r4, [pc, #20]	; (5338 <eccnorm+0x4c>)
    5322:	47a0      	blx	r4
    5324:	9801      	ldr	r0, [sp, #4]
    5326:	0001      	movs	r1, r0
    5328:	47a0      	blx	r4
    532a:	b003      	add	sp, #12
    532c:	bdf0      	pop	{r4, r5, r6, r7, pc}
    532e:	46c0      	nop			; (mov r8, r8)
    5330:	00005281 	.word	0x00005281
    5334:	000051c1 	.word	0x000051c1
    5338:	000051a5 	.word	0x000051a5

0000533c <R1_to_R2>:
    533c:	b5f0      	push	{r4, r5, r6, r7, lr}
    533e:	b085      	sub	sp, #20
    5340:	0005      	movs	r5, r0
    5342:	000c      	movs	r4, r1
    5344:	3078      	adds	r0, #120	; 0x78
    5346:	2378      	movs	r3, #120	; 0x78
    5348:	469c      	mov	ip, r3
    534a:	448c      	add	ip, r1
    534c:	4663      	mov	r3, ip
    534e:	9301      	str	r3, [sp, #4]
    5350:	4662      	mov	r2, ip
    5352:	0001      	movs	r1, r0
    5354:	4e20      	ldr	r6, [pc, #128]	; (53d8 <R1_to_R2+0x9c>)
    5356:	47b0      	blx	r6
    5358:	002a      	movs	r2, r5
    535a:	328c      	adds	r2, #140	; 0x8c
    535c:	0010      	movs	r0, r2
    535e:	0022      	movs	r2, r4
    5360:	328c      	adds	r2, #140	; 0x8c
    5362:	0001      	movs	r1, r0
    5364:	47b0      	blx	r6
    5366:	002f      	movs	r7, r5
    5368:	3728      	adds	r7, #40	; 0x28
    536a:	0022      	movs	r2, r4
    536c:	0039      	movs	r1, r7
    536e:	0028      	movs	r0, r5
    5370:	47b0      	blx	r6
    5372:	2214      	movs	r2, #20
    5374:	4694      	mov	ip, r2
    5376:	44ac      	add	ip, r5
    5378:	4663      	mov	r3, ip
    537a:	223c      	movs	r2, #60	; 0x3c
    537c:	4694      	mov	ip, r2
    537e:	44ac      	add	ip, r5
    5380:	4661      	mov	r1, ip
    5382:	0022      	movs	r2, r4
    5384:	3214      	adds	r2, #20
    5386:	9103      	str	r1, [sp, #12]
    5388:	9302      	str	r3, [sp, #8]
    538a:	0018      	movs	r0, r3
    538c:	47b0      	blx	r6
    538e:	0022      	movs	r2, r4
    5390:	3228      	adds	r2, #40	; 0x28
    5392:	0029      	movs	r1, r5
    5394:	0038      	movs	r0, r7
    5396:	4f11      	ldr	r7, [pc, #68]	; (53dc <R1_to_R2+0xa0>)
    5398:	47b8      	blx	r7
    539a:	0022      	movs	r2, r4
    539c:	323c      	adds	r2, #60	; 0x3c
    539e:	9902      	ldr	r1, [sp, #8]
    53a0:	9803      	ldr	r0, [sp, #12]
    53a2:	47b8      	blx	r7
    53a4:	0029      	movs	r1, r5
    53a6:	31a0      	adds	r1, #160	; 0xa0
    53a8:	9801      	ldr	r0, [sp, #4]
    53aa:	0002      	movs	r2, r0
    53ac:	4f0c      	ldr	r7, [pc, #48]	; (53e0 <R1_to_R2+0xa4>)
    53ae:	47b8      	blx	r7
    53b0:	002a      	movs	r2, r5
    53b2:	3250      	adds	r2, #80	; 0x50
    53b4:	0010      	movs	r0, r2
    53b6:	0022      	movs	r2, r4
    53b8:	3250      	adds	r2, #80	; 0x50
    53ba:	0001      	movs	r1, r0
    53bc:	47b0      	blx	r6
    53be:	3564      	adds	r5, #100	; 0x64
    53c0:	0028      	movs	r0, r5
    53c2:	0022      	movs	r2, r4
    53c4:	3264      	adds	r2, #100	; 0x64
    53c6:	0029      	movs	r1, r5
    53c8:	47b0      	blx	r6
    53ca:	9801      	ldr	r0, [sp, #4]
    53cc:	0002      	movs	r2, r0
    53ce:	4905      	ldr	r1, [pc, #20]	; (53e4 <R1_to_R2+0xa8>)
    53d0:	47b8      	blx	r7
    53d2:	b005      	add	sp, #20
    53d4:	bdf0      	pop	{r4, r5, r6, r7, pc}
    53d6:	46c0      	nop			; (mov r8, r8)
    53d8:	00003f03 	.word	0x00003f03
    53dc:	00003f3f 	.word	0x00003f3f
    53e0:	000051c1 	.word	0x000051c1
    53e4:	0000abf0 	.word	0x0000abf0

000053e8 <R1_to_R3>:
    53e8:	b5f0      	push	{r4, r5, r6, r7, lr}
    53ea:	b083      	sub	sp, #12
    53ec:	0004      	movs	r4, r0
    53ee:	000d      	movs	r5, r1
    53f0:	0007      	movs	r7, r0
    53f2:	3728      	adds	r7, #40	; 0x28
    53f4:	000a      	movs	r2, r1
    53f6:	0039      	movs	r1, r7
    53f8:	4e15      	ldr	r6, [pc, #84]	; (5450 <R1_to_R3+0x68>)
    53fa:	47b0      	blx	r6
    53fc:	2314      	movs	r3, #20
    53fe:	469c      	mov	ip, r3
    5400:	44a4      	add	ip, r4
    5402:	4663      	mov	r3, ip
    5404:	223c      	movs	r2, #60	; 0x3c
    5406:	4694      	mov	ip, r2
    5408:	44a4      	add	ip, r4
    540a:	4661      	mov	r1, ip
    540c:	002a      	movs	r2, r5
    540e:	3214      	adds	r2, #20
    5410:	9101      	str	r1, [sp, #4]
    5412:	9300      	str	r3, [sp, #0]
    5414:	0018      	movs	r0, r3
    5416:	47b0      	blx	r6
    5418:	002a      	movs	r2, r5
    541a:	3228      	adds	r2, #40	; 0x28
    541c:	0021      	movs	r1, r4
    541e:	0038      	movs	r0, r7
    5420:	4f0c      	ldr	r7, [pc, #48]	; (5454 <R1_to_R3+0x6c>)
    5422:	47b8      	blx	r7
    5424:	002a      	movs	r2, r5
    5426:	323c      	adds	r2, #60	; 0x3c
    5428:	9900      	ldr	r1, [sp, #0]
    542a:	9801      	ldr	r0, [sp, #4]
    542c:	47b8      	blx	r7
    542e:	002a      	movs	r2, r5
    5430:	3278      	adds	r2, #120	; 0x78
    5432:	0021      	movs	r1, r4
    5434:	31a0      	adds	r1, #160	; 0xa0
    5436:	0020      	movs	r0, r4
    5438:	3078      	adds	r0, #120	; 0x78
    543a:	4b07      	ldr	r3, [pc, #28]	; (5458 <R1_to_R3+0x70>)
    543c:	4798      	blx	r3
    543e:	0029      	movs	r1, r5
    5440:	3150      	adds	r1, #80	; 0x50
    5442:	0020      	movs	r0, r4
    5444:	3050      	adds	r0, #80	; 0x50
    5446:	4b05      	ldr	r3, [pc, #20]	; (545c <R1_to_R3+0x74>)
    5448:	4798      	blx	r3
    544a:	b003      	add	sp, #12
    544c:	bdf0      	pop	{r4, r5, r6, r7, pc}
    544e:	46c0      	nop			; (mov r8, r8)
    5450:	00003f03 	.word	0x00003f03
    5454:	00003f3f 	.word	0x00003f3f
    5458:	000051c1 	.word	0x000051c1
    545c:	00004b23 	.word	0x00004b23

00005460 <R2_to_R4>:
    5460:	b5f0      	push	{r4, r5, r6, r7, lr}
    5462:	b083      	sub	sp, #12
    5464:	0006      	movs	r6, r0
    5466:	000d      	movs	r5, r1
    5468:	0007      	movs	r7, r0
    546a:	3728      	adds	r7, #40	; 0x28
    546c:	000a      	movs	r2, r1
    546e:	0039      	movs	r1, r7
    5470:	4c15      	ldr	r4, [pc, #84]	; (54c8 <R2_to_R4+0x68>)
    5472:	47a0      	blx	r4
    5474:	2314      	movs	r3, #20
    5476:	469c      	mov	ip, r3
    5478:	44b4      	add	ip, r6
    547a:	4663      	mov	r3, ip
    547c:	223c      	movs	r2, #60	; 0x3c
    547e:	4694      	mov	ip, r2
    5480:	44b4      	add	ip, r6
    5482:	4661      	mov	r1, ip
    5484:	002a      	movs	r2, r5
    5486:	3214      	adds	r2, #20
    5488:	9101      	str	r1, [sp, #4]
    548a:	9300      	str	r3, [sp, #0]
    548c:	0018      	movs	r0, r3
    548e:	47a0      	blx	r4
    5490:	002c      	movs	r4, r5
    5492:	3428      	adds	r4, #40	; 0x28
    5494:	0022      	movs	r2, r4
    5496:	0039      	movs	r1, r7
    5498:	0030      	movs	r0, r6
    549a:	4f0c      	ldr	r7, [pc, #48]	; (54cc <R2_to_R4+0x6c>)
    549c:	47b8      	blx	r7
    549e:	002a      	movs	r2, r5
    54a0:	323c      	adds	r2, #60	; 0x3c
    54a2:	9901      	ldr	r1, [sp, #4]
    54a4:	9800      	ldr	r0, [sp, #0]
    54a6:	47b8      	blx	r7
    54a8:	0029      	movs	r1, r5
    54aa:	3150      	adds	r1, #80	; 0x50
    54ac:	0030      	movs	r0, r6
    54ae:	3050      	adds	r0, #80	; 0x50
    54b0:	4b07      	ldr	r3, [pc, #28]	; (54d0 <R2_to_R4+0x70>)
    54b2:	4798      	blx	r3
    54b4:	0029      	movs	r1, r5
    54b6:	0028      	movs	r0, r5
    54b8:	4d06      	ldr	r5, [pc, #24]	; (54d4 <R2_to_R4+0x74>)
    54ba:	47a8      	blx	r5
    54bc:	0021      	movs	r1, r4
    54be:	0020      	movs	r0, r4
    54c0:	47a8      	blx	r5
    54c2:	b003      	add	sp, #12
    54c4:	bdf0      	pop	{r4, r5, r6, r7, pc}
    54c6:	46c0      	nop			; (mov r8, r8)
    54c8:	00003f3f 	.word	0x00003f3f
    54cc:	00003f03 	.word	0x00003f03
    54d0:	00004b23 	.word	0x00004b23
    54d4:	00005189 	.word	0x00005189

000054d8 <eccdouble>:
    54d8:	b5f0      	push	{r4, r5, r6, r7, lr}
    54da:	b099      	sub	sp, #100	; 0x64
    54dc:	0007      	movs	r7, r0
    54de:	a90e      	add	r1, sp, #56	; 0x38
    54e0:	4e2f      	ldr	r6, [pc, #188]	; (55a0 <eccdouble+0xc8>)
    54e2:	47b0      	blx	r6
    54e4:	2328      	movs	r3, #40	; 0x28
    54e6:	469c      	mov	ip, r3
    54e8:	44bc      	add	ip, r7
    54ea:	4663      	mov	r3, ip
    54ec:	4664      	mov	r4, ip
    54ee:	a904      	add	r1, sp, #16
    54f0:	0018      	movs	r0, r3
    54f2:	47b0      	blx	r6
    54f4:	003a      	movs	r2, r7
    54f6:	9400      	str	r4, [sp, #0]
    54f8:	0021      	movs	r1, r4
    54fa:	0038      	movs	r0, r7
    54fc:	4c29      	ldr	r4, [pc, #164]	; (55a4 <eccdouble+0xcc>)
    54fe:	47a0      	blx	r4
    5500:	0038      	movs	r0, r7
    5502:	3014      	adds	r0, #20
    5504:	0039      	movs	r1, r7
    5506:	313c      	adds	r1, #60	; 0x3c
    5508:	0002      	movs	r2, r0
    550a:	47a0      	blx	r4
    550c:	23a0      	movs	r3, #160	; 0xa0
    550e:	469c      	mov	ip, r3
    5510:	44bc      	add	ip, r7
    5512:	4663      	mov	r3, ip
    5514:	9301      	str	r3, [sp, #4]
    5516:	4662      	mov	r2, ip
    5518:	a904      	add	r1, sp, #16
    551a:	a80e      	add	r0, sp, #56	; 0x38
    551c:	47a0      	blx	r4
    551e:	21b4      	movs	r1, #180	; 0xb4
    5520:	468c      	mov	ip, r1
    5522:	44bc      	add	ip, r7
    5524:	4661      	mov	r1, ip
    5526:	9103      	str	r1, [sp, #12]
    5528:	4662      	mov	r2, ip
    552a:	a809      	add	r0, sp, #36	; 0x24
    552c:	0001      	movs	r1, r0
    552e:	a813      	add	r0, sp, #76	; 0x4c
    5530:	47a0      	blx	r4
    5532:	aa0e      	add	r2, sp, #56	; 0x38
    5534:	0011      	movs	r1, r2
    5536:	a804      	add	r0, sp, #16
    5538:	4d1b      	ldr	r5, [pc, #108]	; (55a8 <eccdouble+0xd0>)
    553a:	47a8      	blx	r5
    553c:	aa13      	add	r2, sp, #76	; 0x4c
    553e:	0011      	movs	r1, r2
    5540:	a809      	add	r0, sp, #36	; 0x24
    5542:	47a8      	blx	r5
    5544:	2050      	movs	r0, #80	; 0x50
    5546:	4684      	mov	ip, r0
    5548:	44bc      	add	ip, r7
    554a:	4660      	mov	r0, ip
    554c:	a904      	add	r1, sp, #16
    554e:	9002      	str	r0, [sp, #8]
    5550:	47b0      	blx	r6
    5552:	003c      	movs	r4, r7
    5554:	3478      	adds	r4, #120	; 0x78
    5556:	0021      	movs	r1, r4
    5558:	0038      	movs	r0, r7
    555a:	47b0      	blx	r6
    555c:	aa04      	add	r2, sp, #16
    555e:	ae0e      	add	r6, sp, #56	; 0x38
    5560:	0031      	movs	r1, r6
    5562:	0010      	movs	r0, r2
    5564:	4b11      	ldr	r3, [pc, #68]	; (55ac <eccdouble+0xd4>)
    5566:	4798      	blx	r3
    5568:	0022      	movs	r2, r4
    556a:	9e01      	ldr	r6, [sp, #4]
    556c:	0031      	movs	r1, r6
    556e:	0020      	movs	r0, r4
    5570:	47a8      	blx	r5
    5572:	003b      	movs	r3, r7
    5574:	338c      	adds	r3, #140	; 0x8c
    5576:	0018      	movs	r0, r3
    5578:	001a      	movs	r2, r3
    557a:	9903      	ldr	r1, [sp, #12]
    557c:	47a8      	blx	r5
    557e:	9a00      	ldr	r2, [sp, #0]
    5580:	0031      	movs	r1, r6
    5582:	ab0e      	add	r3, sp, #56	; 0x38
    5584:	0018      	movs	r0, r3
    5586:	4d0a      	ldr	r5, [pc, #40]	; (55b0 <eccdouble+0xd8>)
    5588:	47a8      	blx	r5
    558a:	003a      	movs	r2, r7
    558c:	0021      	movs	r1, r4
    558e:	a804      	add	r0, sp, #16
    5590:	47a8      	blx	r5
    5592:	9a02      	ldr	r2, [sp, #8]
    5594:	a904      	add	r1, sp, #16
    5596:	a80e      	add	r0, sp, #56	; 0x38
    5598:	47a8      	blx	r5
    559a:	b019      	add	sp, #100	; 0x64
    559c:	bdf0      	pop	{r4, r5, r6, r7, pc}
    559e:	46c0      	nop			; (mov r8, r8)
    55a0:	00005235 	.word	0x00005235
    55a4:	00003f03 	.word	0x00003f03
    55a8:	00003f3f 	.word	0x00003f3f
    55ac:	00005021 	.word	0x00005021
    55b0:	000051c1 	.word	0x000051c1

000055b4 <eccadd_core>:
    55b4:	b5f0      	push	{r4, r5, r6, r7, lr}
    55b6:	b09b      	sub	sp, #108	; 0x6c
    55b8:	0006      	movs	r6, r0
    55ba:	000f      	movs	r7, r1
    55bc:	0015      	movs	r5, r2
    55be:	2350      	movs	r3, #80	; 0x50
    55c0:	469c      	mov	ip, r3
    55c2:	4494      	add	ip, r2
    55c4:	4663      	mov	r3, ip
    55c6:	3178      	adds	r1, #120	; 0x78
    55c8:	3078      	adds	r0, #120	; 0x78
    55ca:	9301      	str	r3, [sp, #4]
    55cc:	4662      	mov	r2, ip
    55ce:	4c2f      	ldr	r4, [pc, #188]	; (568c <eccadd_core+0xd8>)
    55d0:	47a0      	blx	r4
    55d2:	0039      	movs	r1, r7
    55d4:	3150      	adds	r1, #80	; 0x50
    55d6:	0030      	movs	r0, r6
    55d8:	3050      	adds	r0, #80	; 0x50
    55da:	aa10      	add	r2, sp, #64	; 0x40
    55dc:	47a0      	blx	r4
    55de:	002a      	movs	r2, r5
    55e0:	0039      	movs	r1, r7
    55e2:	0030      	movs	r0, r6
    55e4:	47a0      	blx	r4
    55e6:	2228      	movs	r2, #40	; 0x28
    55e8:	4694      	mov	ip, r2
    55ea:	44ac      	add	ip, r5
    55ec:	4662      	mov	r2, ip
    55ee:	0039      	movs	r1, r7
    55f0:	3128      	adds	r1, #40	; 0x28
    55f2:	0030      	movs	r0, r6
    55f4:	3028      	adds	r0, #40	; 0x28
    55f6:	9202      	str	r2, [sp, #8]
    55f8:	47a0      	blx	r4
    55fa:	aa06      	add	r2, sp, #24
    55fc:	9f01      	ldr	r7, [sp, #4]
    55fe:	0039      	movs	r1, r7
    5600:	a810      	add	r0, sp, #64	; 0x40
    5602:	4e23      	ldr	r6, [pc, #140]	; (5690 <eccadd_core+0xdc>)
    5604:	47b0      	blx	r6
    5606:	2364      	movs	r3, #100	; 0x64
    5608:	469c      	mov	ip, r3
    560a:	44ac      	add	ip, r5
    560c:	4663      	mov	r3, ip
    560e:	aa0b      	add	r2, sp, #44	; 0x2c
    5610:	9303      	str	r3, [sp, #12]
    5612:	4661      	mov	r1, ip
    5614:	a815      	add	r0, sp, #84	; 0x54
    5616:	47b0      	blx	r6
    5618:	a810      	add	r0, sp, #64	; 0x40
    561a:	0002      	movs	r2, r0
    561c:	9701      	str	r7, [sp, #4]
    561e:	0039      	movs	r1, r7
    5620:	4f1c      	ldr	r7, [pc, #112]	; (5694 <eccadd_core+0xe0>)
    5622:	47b8      	blx	r7
    5624:	a815      	add	r0, sp, #84	; 0x54
    5626:	0002      	movs	r2, r0
    5628:	9903      	ldr	r1, [sp, #12]
    562a:	47b8      	blx	r7
    562c:	23a0      	movs	r3, #160	; 0xa0
    562e:	469c      	mov	ip, r3
    5630:	44ac      	add	ip, r5
    5632:	4663      	mov	r3, ip
    5634:	9303      	str	r3, [sp, #12]
    5636:	4662      	mov	r2, ip
    5638:	9902      	ldr	r1, [sp, #8]
    563a:	0028      	movs	r0, r5
    563c:	47b0      	blx	r6
    563e:	2114      	movs	r1, #20
    5640:	468c      	mov	ip, r1
    5642:	44ac      	add	ip, r5
    5644:	4660      	mov	r0, ip
    5646:	213c      	movs	r1, #60	; 0x3c
    5648:	468c      	mov	ip, r1
    564a:	44ac      	add	ip, r5
    564c:	4661      	mov	r1, ip
    564e:	002a      	movs	r2, r5
    5650:	32b4      	adds	r2, #180	; 0xb4
    5652:	9105      	str	r1, [sp, #20]
    5654:	9004      	str	r0, [sp, #16]
    5656:	47b0      	blx	r6
    5658:	002e      	movs	r6, r5
    565a:	3678      	adds	r6, #120	; 0x78
    565c:	0032      	movs	r2, r6
    565e:	9902      	ldr	r1, [sp, #8]
    5660:	0028      	movs	r0, r5
    5662:	47b8      	blx	r7
    5664:	002a      	movs	r2, r5
    5666:	328c      	adds	r2, #140	; 0x8c
    5668:	9905      	ldr	r1, [sp, #20]
    566a:	9804      	ldr	r0, [sp, #16]
    566c:	47b8      	blx	r7
    566e:	002a      	movs	r2, r5
    5670:	a906      	add	r1, sp, #24
    5672:	9803      	ldr	r0, [sp, #12]
    5674:	47a0      	blx	r4
    5676:	9a01      	ldr	r2, [sp, #4]
    5678:	a906      	add	r1, sp, #24
    567a:	a810      	add	r0, sp, #64	; 0x40
    567c:	47a0      	blx	r4
    567e:	9a02      	ldr	r2, [sp, #8]
    5680:	a910      	add	r1, sp, #64	; 0x40
    5682:	0030      	movs	r0, r6
    5684:	47a0      	blx	r4
    5686:	b01b      	add	sp, #108	; 0x6c
    5688:	bdf0      	pop	{r4, r5, r6, r7, pc}
    568a:	46c0      	nop			; (mov r8, r8)
    568c:	000051c1 	.word	0x000051c1
    5690:	00003f3f 	.word	0x00003f3f
    5694:	00003f03 	.word	0x00003f03

00005698 <eccadd>:
    5698:	b5f0      	push	{r4, r5, r6, r7, lr}
    569a:	46de      	mov	lr, fp
    569c:	b500      	push	{lr}
    569e:	b0ae      	sub	sp, #184	; 0xb8
    56a0:	0007      	movs	r7, r0
    56a2:	000d      	movs	r5, r1
    56a4:	2328      	movs	r3, #40	; 0x28
    56a6:	469c      	mov	ip, r3
    56a8:	448c      	add	ip, r1
    56aa:	4663      	mov	r3, ip
    56ac:	4666      	mov	r6, ip
    56ae:	aa10      	add	r2, sp, #64	; 0x40
    56b0:	0018      	movs	r0, r3
    56b2:	4c3a      	ldr	r4, [pc, #232]	; (579c <eccadd+0x104>)
    56b4:	47a0      	blx	r4
    56b6:	233c      	movs	r3, #60	; 0x3c
    56b8:	469c      	mov	ip, r3
    56ba:	44ac      	add	ip, r5
    56bc:	4663      	mov	r3, ip
    56be:	2214      	movs	r2, #20
    56c0:	4694      	mov	ip, r2
    56c2:	44ac      	add	ip, r5
    56c4:	4661      	mov	r1, ip
    56c6:	aa15      	add	r2, sp, #84	; 0x54
    56c8:	9102      	str	r1, [sp, #8]
    56ca:	9301      	str	r3, [sp, #4]
    56cc:	0018      	movs	r0, r3
    56ce:	47a0      	blx	r4
    56d0:	aa1a      	add	r2, sp, #104	; 0x68
    56d2:	0029      	movs	r1, r5
    56d4:	9603      	str	r6, [sp, #12]
    56d6:	0030      	movs	r0, r6
    56d8:	4e31      	ldr	r6, [pc, #196]	; (57a0 <eccadd+0x108>)
    56da:	46b3      	mov	fp, r6
    56dc:	47b0      	blx	r6
    56de:	aa1f      	add	r2, sp, #124	; 0x7c
    56e0:	9902      	ldr	r1, [sp, #8]
    56e2:	9801      	ldr	r0, [sp, #4]
    56e4:	47b0      	blx	r6
    56e6:	2078      	movs	r0, #120	; 0x78
    56e8:	4684      	mov	ip, r0
    56ea:	44ac      	add	ip, r5
    56ec:	4660      	mov	r0, ip
    56ee:	22a0      	movs	r2, #160	; 0xa0
    56f0:	4694      	mov	ip, r2
    56f2:	44ac      	add	ip, r5
    56f4:	4661      	mov	r1, ip
    56f6:	aa24      	add	r2, sp, #144	; 0x90
    56f8:	9105      	str	r1, [sp, #20]
    56fa:	9004      	str	r0, [sp, #16]
    56fc:	4e29      	ldr	r6, [pc, #164]	; (57a4 <eccadd+0x10c>)
    56fe:	47b0      	blx	r6
    5700:	2350      	movs	r3, #80	; 0x50
    5702:	469c      	mov	ip, r3
    5704:	44ac      	add	ip, r5
    5706:	4663      	mov	r3, ip
    5708:	0038      	movs	r0, r7
    570a:	3050      	adds	r0, #80	; 0x50
    570c:	aa06      	add	r2, sp, #24
    570e:	9300      	str	r3, [sp, #0]
    5710:	4661      	mov	r1, ip
    5712:	47b0      	blx	r6
    5714:	0038      	movs	r0, r7
    5716:	3078      	adds	r0, #120	; 0x78
    5718:	9a00      	ldr	r2, [sp, #0]
    571a:	a924      	add	r1, sp, #144	; 0x90
    571c:	47b0      	blx	r6
    571e:	002a      	movs	r2, r5
    5720:	a910      	add	r1, sp, #64	; 0x40
    5722:	0038      	movs	r0, r7
    5724:	47b0      	blx	r6
    5726:	3728      	adds	r7, #40	; 0x28
    5728:	0038      	movs	r0, r7
    572a:	9a03      	ldr	r2, [sp, #12]
    572c:	a91a      	add	r1, sp, #104	; 0x68
    572e:	47b0      	blx	r6
    5730:	aa24      	add	r2, sp, #144	; 0x90
    5732:	9900      	ldr	r1, [sp, #0]
    5734:	a806      	add	r0, sp, #24
    5736:	47d8      	blx	fp
    5738:	002f      	movs	r7, r5
    573a:	3764      	adds	r7, #100	; 0x64
    573c:	aa29      	add	r2, sp, #164	; 0xa4
    573e:	0039      	movs	r1, r7
    5740:	a80b      	add	r0, sp, #44	; 0x2c
    5742:	47d8      	blx	fp
    5744:	aa06      	add	r2, sp, #24
    5746:	9900      	ldr	r1, [sp, #0]
    5748:	0010      	movs	r0, r2
    574a:	47a0      	blx	r4
    574c:	aa0b      	add	r2, sp, #44	; 0x2c
    574e:	0039      	movs	r1, r7
    5750:	0010      	movs	r0, r2
    5752:	47a0      	blx	r4
    5754:	9a05      	ldr	r2, [sp, #20]
    5756:	9f03      	ldr	r7, [sp, #12]
    5758:	0039      	movs	r1, r7
    575a:	0028      	movs	r0, r5
    575c:	47d8      	blx	fp
    575e:	002a      	movs	r2, r5
    5760:	32b4      	adds	r2, #180	; 0xb4
    5762:	9901      	ldr	r1, [sp, #4]
    5764:	9802      	ldr	r0, [sp, #8]
    5766:	47d8      	blx	fp
    5768:	9a04      	ldr	r2, [sp, #16]
    576a:	0039      	movs	r1, r7
    576c:	0028      	movs	r0, r5
    576e:	47a0      	blx	r4
    5770:	002a      	movs	r2, r5
    5772:	328c      	adds	r2, #140	; 0x8c
    5774:	9901      	ldr	r1, [sp, #4]
    5776:	9802      	ldr	r0, [sp, #8]
    5778:	47a0      	blx	r4
    577a:	002a      	movs	r2, r5
    577c:	a924      	add	r1, sp, #144	; 0x90
    577e:	9805      	ldr	r0, [sp, #20]
    5780:	47b0      	blx	r6
    5782:	9a00      	ldr	r2, [sp, #0]
    5784:	a924      	add	r1, sp, #144	; 0x90
    5786:	a806      	add	r0, sp, #24
    5788:	47b0      	blx	r6
    578a:	003a      	movs	r2, r7
    578c:	a906      	add	r1, sp, #24
    578e:	9804      	ldr	r0, [sp, #16]
    5790:	47b0      	blx	r6
    5792:	b02e      	add	sp, #184	; 0xb8
    5794:	bc04      	pop	{r2}
    5796:	4693      	mov	fp, r2
    5798:	bdf0      	pop	{r4, r5, r6, r7, pc}
    579a:	46c0      	nop			; (mov r8, r8)
    579c:	00003f03 	.word	0x00003f03
    57a0:	00003f3f 	.word	0x00003f3f
    57a4:	000051c1 	.word	0x000051c1

000057a8 <point_setup>:
    57a8:	b5f8      	push	{r3, r4, r5, r6, r7, lr}
    57aa:	0005      	movs	r5, r0
    57ac:	000c      	movs	r4, r1
    57ae:	4f0c      	ldr	r7, [pc, #48]	; (57e0 <point_setup+0x38>)
    57b0:	47b8      	blx	r7
    57b2:	0026      	movs	r6, r4
    57b4:	3628      	adds	r6, #40	; 0x28
    57b6:	0028      	movs	r0, r5
    57b8:	3020      	adds	r0, #32
    57ba:	0031      	movs	r1, r6
    57bc:	47b8      	blx	r7
    57be:	0021      	movs	r1, r4
    57c0:	3178      	adds	r1, #120	; 0x78
    57c2:	0020      	movs	r0, r4
    57c4:	4d07      	ldr	r5, [pc, #28]	; (57e4 <point_setup+0x3c>)
    57c6:	47a8      	blx	r5
    57c8:	0021      	movs	r1, r4
    57ca:	31a0      	adds	r1, #160	; 0xa0
    57cc:	0030      	movs	r0, r6
    57ce:	47a8      	blx	r5
    57d0:	0020      	movs	r0, r4
    57d2:	3050      	adds	r0, #80	; 0x50
    57d4:	4b04      	ldr	r3, [pc, #16]	; (57e8 <point_setup+0x40>)
    57d6:	4798      	blx	r3
    57d8:	2301      	movs	r3, #1
    57da:	6523      	str	r3, [r4, #80]	; 0x50
    57dc:	bdf8      	pop	{r3, r4, r5, r6, r7, pc}
    57de:	46c0      	nop			; (mov r8, r8)
    57e0:	0000477d 	.word	0x0000477d
    57e4:	00004b23 	.word	0x00004b23
    57e8:	00004fc9 	.word	0x00004fc9

000057ec <ecc_point_validate>:
    57ec:	b530      	push	{r4, r5, lr}
    57ee:	b09f      	sub	sp, #124	; 0x7c
    57f0:	0005      	movs	r5, r0
    57f2:	3028      	adds	r0, #40	; 0x28
    57f4:	a914      	add	r1, sp, #80	; 0x50
    57f6:	4c21      	ldr	r4, [pc, #132]	; (587c <ecc_point_validate+0x90>)
    57f8:	47a0      	blx	r4
    57fa:	a90a      	add	r1, sp, #40	; 0x28
    57fc:	0028      	movs	r0, r5
    57fe:	47a0      	blx	r4
    5800:	466a      	mov	r2, sp
    5802:	a90a      	add	r1, sp, #40	; 0x28
    5804:	a814      	add	r0, sp, #80	; 0x50
    5806:	4c1e      	ldr	r4, [pc, #120]	; (5880 <ecc_point_validate+0x94>)
    5808:	47a0      	blx	r4
    580a:	aa05      	add	r2, sp, #20
    580c:	a90f      	add	r1, sp, #60	; 0x3c
    580e:	a819      	add	r0, sp, #100	; 0x64
    5810:	47a0      	blx	r4
    5812:	aa14      	add	r2, sp, #80	; 0x50
    5814:	a90a      	add	r1, sp, #40	; 0x28
    5816:	0010      	movs	r0, r2
    5818:	4d1a      	ldr	r5, [pc, #104]	; (5884 <ecc_point_validate+0x98>)
    581a:	47a8      	blx	r5
    581c:	aa0a      	add	r2, sp, #40	; 0x28
    581e:	a914      	add	r1, sp, #80	; 0x50
    5820:	4819      	ldr	r0, [pc, #100]	; (5888 <ecc_point_validate+0x9c>)
    5822:	47a8      	blx	r5
    5824:	a814      	add	r0, sp, #80	; 0x50
    5826:	4b19      	ldr	r3, [pc, #100]	; (588c <ecc_point_validate+0xa0>)
    5828:	4798      	blx	r3
    582a:	2301      	movs	r3, #1
    582c:	9314      	str	r3, [sp, #80]	; 0x50
    582e:	aa0a      	add	r2, sp, #40	; 0x28
    5830:	a914      	add	r1, sp, #80	; 0x50
    5832:	0010      	movs	r0, r2
    5834:	4d16      	ldr	r5, [pc, #88]	; (5890 <ecc_point_validate+0xa4>)
    5836:	47a8      	blx	r5
    5838:	aa0f      	add	r2, sp, #60	; 0x3c
    583a:	a919      	add	r1, sp, #100	; 0x64
    583c:	0010      	movs	r0, r2
    583e:	47a8      	blx	r5
    5840:	aa14      	add	r2, sp, #80	; 0x50
    5842:	a90a      	add	r1, sp, #40	; 0x28
    5844:	4668      	mov	r0, sp
    5846:	47a0      	blx	r4
    5848:	aa19      	add	r2, sp, #100	; 0x64
    584a:	a90f      	add	r1, sp, #60	; 0x3c
    584c:	a805      	add	r0, sp, #20
    584e:	47a0      	blx	r4
    5850:	a914      	add	r1, sp, #80	; 0x50
    5852:	0008      	movs	r0, r1
    5854:	4b0f      	ldr	r3, [pc, #60]	; (5894 <ecc_point_validate+0xa8>)
    5856:	4798      	blx	r3
    5858:	9b14      	ldr	r3, [sp, #80]	; 0x50
    585a:	2b00      	cmp	r3, #0
    585c:	d10a      	bne.n	5874 <ecc_point_validate+0x88>
    585e:	ab14      	add	r3, sp, #80	; 0x50
    5860:	aa1c      	add	r2, sp, #112	; 0x70
    5862:	6859      	ldr	r1, [r3, #4]
    5864:	2900      	cmp	r1, #0
    5866:	d107      	bne.n	5878 <ecc_point_validate+0x8c>
    5868:	3304      	adds	r3, #4
    586a:	4293      	cmp	r3, r2
    586c:	d1f9      	bne.n	5862 <ecc_point_validate+0x76>
    586e:	2001      	movs	r0, #1
    5870:	b01f      	add	sp, #124	; 0x7c
    5872:	bd30      	pop	{r4, r5, pc}
    5874:	2000      	movs	r0, #0
    5876:	e7fb      	b.n	5870 <ecc_point_validate+0x84>
    5878:	2000      	movs	r0, #0
    587a:	e7f9      	b.n	5870 <ecc_point_validate+0x84>
    587c:	00005235 	.word	0x00005235
    5880:	00003f3f 	.word	0x00003f3f
    5884:	000051c1 	.word	0x000051c1
    5888:	0000abf0 	.word	0x0000abf0
    588c:	00004fc9 	.word	0x00004fc9
    5890:	00003f03 	.word	0x00003f03
    5894:	000051a5 	.word	0x000051a5

00005898 <mLSB_set_recode>:
    5898:	b5f0      	push	{r4, r5, r6, r7, lr}
    589a:	46de      	mov	lr, fp
    589c:	4657      	mov	r7, sl
    589e:	464e      	mov	r6, r9
    58a0:	4645      	mov	r5, r8
    58a2:	b5e0      	push	{r5, r6, r7, lr}
    58a4:	b087      	sub	sp, #28
    58a6:	0005      	movs	r5, r0
    58a8:	468b      	mov	fp, r1
    58aa:	2200      	movs	r2, #0
    58ac:	23c4      	movs	r3, #196	; 0xc4
    58ae:	50ca      	str	r2, [r1, r3]
    58b0:	9004      	str	r0, [sp, #16]
    58b2:	0004      	movs	r4, r0
    58b4:	3418      	adds	r4, #24
    58b6:	0003      	movs	r3, r0
    58b8:	685a      	ldr	r2, [r3, #4]
    58ba:	07d0      	lsls	r0, r2, #31
    58bc:	6819      	ldr	r1, [r3, #0]
    58be:	0849      	lsrs	r1, r1, #1
    58c0:	4301      	orrs	r1, r0
    58c2:	0852      	lsrs	r2, r2, #1
    58c4:	6898      	ldr	r0, [r3, #8]
    58c6:	07c0      	lsls	r0, r0, #31
    58c8:	6019      	str	r1, [r3, #0]
    58ca:	4042      	eors	r2, r0
    58cc:	605a      	str	r2, [r3, #4]
    58ce:	3308      	adds	r3, #8
    58d0:	42a3      	cmp	r3, r4
    58d2:	d1f1      	bne.n	58b8 <mLSB_set_recode+0x20>
    58d4:	4699      	mov	r9, r3
    58d6:	69ea      	ldr	r2, [r5, #28]
    58d8:	07d1      	lsls	r1, r2, #31
    58da:	69ab      	ldr	r3, [r5, #24]
    58dc:	085b      	lsrs	r3, r3, #1
    58de:	430b      	orrs	r3, r1
    58e0:	61ab      	str	r3, [r5, #24]
    58e2:	0852      	lsrs	r2, r2, #1
    58e4:	61ea      	str	r2, [r5, #28]
    58e6:	4659      	mov	r1, fp
    58e8:	23c4      	movs	r3, #196	; 0xc4
    58ea:	445b      	add	r3, fp
    58ec:	4698      	mov	r8, r3
    58ee:	2301      	movs	r3, #1
    58f0:	469c      	mov	ip, r3
    58f2:	9600      	str	r6, [sp, #0]
    58f4:	9701      	str	r7, [sp, #4]
    58f6:	4648      	mov	r0, r9
    58f8:	e00a      	b.n	5910 <mLSB_set_recode+0x78>
    58fa:	69ef      	ldr	r7, [r5, #28]
    58fc:	07fb      	lsls	r3, r7, #31
    58fe:	69aa      	ldr	r2, [r5, #24]
    5900:	0852      	lsrs	r2, r2, #1
    5902:	431a      	orrs	r2, r3
    5904:	61aa      	str	r2, [r5, #24]
    5906:	087b      	lsrs	r3, r7, #1
    5908:	61eb      	str	r3, [r5, #28]
    590a:	3104      	adds	r1, #4
    590c:	4541      	cmp	r1, r8
    590e:	d014      	beq.n	593a <mLSB_set_recode+0xa2>
    5910:	682b      	ldr	r3, [r5, #0]
    5912:	4662      	mov	r2, ip
    5914:	4013      	ands	r3, r2
    5916:	3b01      	subs	r3, #1
    5918:	600b      	str	r3, [r1, #0]
    591a:	9c04      	ldr	r4, [sp, #16]
    591c:	6863      	ldr	r3, [r4, #4]
    591e:	07de      	lsls	r6, r3, #31
    5920:	6822      	ldr	r2, [r4, #0]
    5922:	0852      	lsrs	r2, r2, #1
    5924:	4332      	orrs	r2, r6
    5926:	085b      	lsrs	r3, r3, #1
    5928:	68a6      	ldr	r6, [r4, #8]
    592a:	07f6      	lsls	r6, r6, #31
    592c:	6022      	str	r2, [r4, #0]
    592e:	4073      	eors	r3, r6
    5930:	6063      	str	r3, [r4, #4]
    5932:	3408      	adds	r4, #8
    5934:	4284      	cmp	r4, r0
    5936:	d1f1      	bne.n	591c <mLSB_set_recode+0x84>
    5938:	e7df      	b.n	58fa <mLSB_set_recode+0x62>
    593a:	9e00      	ldr	r6, [sp, #0]
    593c:	9f01      	ldr	r7, [sp, #4]
    593e:	23c8      	movs	r3, #200	; 0xc8
    5940:	445b      	add	r3, fp
    5942:	4698      	mov	r8, r3
    5944:	2332      	movs	r3, #50	; 0x32
    5946:	2220      	movs	r2, #32
    5948:	4691      	mov	r9, r2
    594a:	44a9      	add	r9, r5
    594c:	46a2      	mov	sl, r4
    594e:	4644      	mov	r4, r8
    5950:	4698      	mov	r8, r3
    5952:	465b      	mov	r3, fp
    5954:	9305      	str	r3, [sp, #20]
    5956:	e007      	b.n	5968 <mLSB_set_recode+0xd0>
    5958:	4681      	mov	r9, r0
    595a:	2301      	movs	r3, #1
    595c:	469c      	mov	ip, r3
    595e:	44e0      	add	r8, ip
    5960:	3404      	adds	r4, #4
    5962:	4643      	mov	r3, r8
    5964:	2bfa      	cmp	r3, #250	; 0xfa
    5966:	d056      	beq.n	5a16 <mLSB_set_recode+0x17e>
    5968:	46a3      	mov	fp, r4
    596a:	2301      	movs	r3, #1
    596c:	682a      	ldr	r2, [r5, #0]
    596e:	4013      	ands	r3, r2
    5970:	6023      	str	r3, [r4, #0]
    5972:	9904      	ldr	r1, [sp, #16]
    5974:	9600      	str	r6, [sp, #0]
    5976:	9701      	str	r7, [sp, #4]
    5978:	4657      	mov	r7, sl
    597a:	684b      	ldr	r3, [r1, #4]
    597c:	07d8      	lsls	r0, r3, #31
    597e:	680a      	ldr	r2, [r1, #0]
    5980:	0852      	lsrs	r2, r2, #1
    5982:	4302      	orrs	r2, r0
    5984:	085b      	lsrs	r3, r3, #1
    5986:	6888      	ldr	r0, [r1, #8]
    5988:	07c0      	lsls	r0, r0, #31
    598a:	600a      	str	r2, [r1, #0]
    598c:	4043      	eors	r3, r0
    598e:	604b      	str	r3, [r1, #4]
    5990:	3108      	adds	r1, #8
    5992:	42b9      	cmp	r1, r7
    5994:	d1f1      	bne.n	597a <mLSB_set_recode+0xe2>
    5996:	46ba      	mov	sl, r7
    5998:	69ea      	ldr	r2, [r5, #28]
    599a:	07d1      	lsls	r1, r2, #31
    599c:	69ab      	ldr	r3, [r5, #24]
    599e:	085b      	lsrs	r3, r3, #1
    59a0:	430b      	orrs	r3, r1
    59a2:	61ab      	str	r3, [r5, #24]
    59a4:	0852      	lsrs	r2, r2, #1
    59a6:	61ea      	str	r2, [r5, #28]
    59a8:	2132      	movs	r1, #50	; 0x32
    59aa:	4640      	mov	r0, r8
    59ac:	4b1d      	ldr	r3, [pc, #116]	; (5a24 <mLSB_set_recode+0x18c>)
    59ae:	4798      	blx	r3
    59b0:	0089      	lsls	r1, r1, #2
    59b2:	9b05      	ldr	r3, [sp, #20]
    59b4:	58cb      	ldr	r3, [r1, r3]
    59b6:	425b      	negs	r3, r3
    59b8:	465a      	mov	r2, fp
    59ba:	6810      	ldr	r0, [r2, #0]
    59bc:	4018      	ands	r0, r3
    59be:	4684      	mov	ip, r0
    59c0:	9002      	str	r0, [sp, #8]
    59c2:	2300      	movs	r3, #0
    59c4:	9303      	str	r3, [sp, #12]
    59c6:	9a02      	ldr	r2, [sp, #8]
    59c8:	9b03      	ldr	r3, [sp, #12]
    59ca:	6828      	ldr	r0, [r5, #0]
    59cc:	6869      	ldr	r1, [r5, #4]
    59ce:	1812      	adds	r2, r2, r0
    59d0:	414b      	adcs	r3, r1
    59d2:	0029      	movs	r1, r5
    59d4:	c10c      	stmia	r1!, {r2, r3}
    59d6:	9200      	str	r2, [sp, #0]
    59d8:	9301      	str	r3, [sp, #4]
    59da:	4253      	negs	r3, r2
    59dc:	9a00      	ldr	r2, [sp, #0]
    59de:	4313      	orrs	r3, r2
    59e0:	0fdb      	lsrs	r3, r3, #31
    59e2:	2201      	movs	r2, #1
    59e4:	4053      	eors	r3, r2
    59e6:	4660      	mov	r0, ip
    59e8:	4018      	ands	r0, r3
    59ea:	0006      	movs	r6, r0
    59ec:	2700      	movs	r7, #0
    59ee:	4648      	mov	r0, r9
    59f0:	680a      	ldr	r2, [r1, #0]
    59f2:	684b      	ldr	r3, [r1, #4]
    59f4:	1992      	adds	r2, r2, r6
    59f6:	417b      	adcs	r3, r7
    59f8:	c10c      	stmia	r1!, {r2, r3}
    59fa:	9200      	str	r2, [sp, #0]
    59fc:	9301      	str	r3, [sp, #4]
    59fe:	4253      	negs	r3, r2
    5a00:	9a00      	ldr	r2, [sp, #0]
    5a02:	4313      	orrs	r3, r2
    5a04:	0fdb      	lsrs	r3, r3, #31
    5a06:	2201      	movs	r2, #1
    5a08:	4053      	eors	r3, r2
    5a0a:	4033      	ands	r3, r6
    5a0c:	001e      	movs	r6, r3
    5a0e:	2700      	movs	r7, #0
    5a10:	4281      	cmp	r1, r0
    5a12:	d1ed      	bne.n	59f0 <mLSB_set_recode+0x158>
    5a14:	e7a0      	b.n	5958 <mLSB_set_recode+0xc0>
    5a16:	b007      	add	sp, #28
    5a18:	bc3c      	pop	{r2, r3, r4, r5}
    5a1a:	4690      	mov	r8, r2
    5a1c:	4699      	mov	r9, r3
    5a1e:	46a2      	mov	sl, r4
    5a20:	46ab      	mov	fp, r5
    5a22:	bdf0      	pop	{r4, r5, r6, r7, pc}
    5a24:	00006c79 	.word	0x00006c79

00005a28 <ecc_mul_fixed>:
    5a28:	b5f0      	push	{r4, r5, r6, r7, lr}
    5a2a:	46de      	mov	lr, fp
    5a2c:	4657      	mov	r7, sl
    5a2e:	464e      	mov	r6, r9
    5a30:	4645      	mov	r5, r8
    5a32:	b5e0      	push	{r5, r6, r7, lr}
    5a34:	4cce      	ldr	r4, [pc, #824]	; (5d70 <ecc_mul_fixed+0x348>)
    5a36:	44a5      	add	sp, r4
    5a38:	0005      	movs	r5, r0
    5a3a:	9103      	str	r1, [sp, #12]
    5a3c:	ac85      	add	r4, sp, #532	; 0x214
    5a3e:	4acd      	ldr	r2, [pc, #820]	; (5d74 <ecc_mul_fixed+0x34c>)
    5a40:	2100      	movs	r1, #0
    5a42:	0020      	movs	r0, r4
    5a44:	4bcc      	ldr	r3, [pc, #816]	; (5d78 <ecc_mul_fixed+0x350>)
    5a46:	4798      	blx	r3
    5a48:	a97d      	add	r1, sp, #500	; 0x1f4
    5a4a:	0028      	movs	r0, r5
    5a4c:	4bcb      	ldr	r3, [pc, #812]	; (5d7c <ecc_mul_fixed+0x354>)
    5a4e:	4798      	blx	r3
    5a50:	a97d      	add	r1, sp, #500	; 0x1f4
    5a52:	0008      	movs	r0, r1
    5a54:	4bca      	ldr	r3, [pc, #808]	; (5d80 <ecc_mul_fixed+0x358>)
    5a56:	4798      	blx	r3
    5a58:	a985      	add	r1, sp, #532	; 0x214
    5a5a:	a87d      	add	r0, sp, #500	; 0x1f4
    5a5c:	4bc9      	ldr	r3, [pc, #804]	; (5d84 <ecc_mul_fixed+0x35c>)
    5a5e:	4798      	blx	r3
    5a60:	23f9      	movs	r3, #249	; 0xf9
    5a62:	009b      	lsls	r3, r3, #2
    5a64:	58e2      	ldr	r2, [r4, r3]
    5a66:	0052      	lsls	r2, r2, #1
    5a68:	3bc8      	subs	r3, #200	; 0xc8
    5a6a:	58e3      	ldr	r3, [r4, r3]
    5a6c:	18d2      	adds	r2, r2, r3
    5a6e:	0052      	lsls	r2, r2, #1
    5a70:	2395      	movs	r3, #149	; 0x95
    5a72:	009b      	lsls	r3, r3, #2
    5a74:	58e3      	ldr	r3, [r4, r3]
    5a76:	18d2      	adds	r2, r2, r3
    5a78:	0052      	lsls	r2, r2, #1
    5a7a:	23c4      	movs	r3, #196	; 0xc4
    5a7c:	58e3      	ldr	r3, [r4, r3]
    5a7e:	21c6      	movs	r1, #198	; 0xc6
    5a80:	0049      	lsls	r1, r1, #1
    5a82:	5861      	ldr	r1, [r4, r1]
    5a84:	1852      	adds	r2, r2, r1
    5a86:	4cc0      	ldr	r4, [pc, #768]	; (5d88 <ecc_mul_fixed+0x360>)
    5a88:	21f0      	movs	r1, #240	; 0xf0
    5a8a:	0149      	lsls	r1, r1, #5
    5a8c:	1860      	adds	r0, r4, r1
    5a8e:	a919      	add	r1, sp, #100	; 0x64
    5a90:	4dbe      	ldr	r5, [pc, #760]	; (5d8c <ecc_mul_fixed+0x364>)
    5a92:	47a8      	blx	r5
    5a94:	aa37      	add	r2, sp, #220	; 0xdc
    5a96:	a923      	add	r1, sp, #140	; 0x8c
    5a98:	a819      	add	r0, sp, #100	; 0x64
    5a9a:	4dbd      	ldr	r5, [pc, #756]	; (5d90 <ecc_mul_fixed+0x368>)
    5a9c:	47a8      	blx	r5
    5a9e:	aa3c      	add	r2, sp, #240	; 0xf0
    5aa0:	a928      	add	r1, sp, #160	; 0xa0
    5aa2:	a81e      	add	r0, sp, #120	; 0x78
    5aa4:	47a8      	blx	r5
    5aa6:	aa41      	add	r2, sp, #260	; 0x104
    5aa8:	a923      	add	r1, sp, #140	; 0x8c
    5aaa:	a819      	add	r0, sp, #100	; 0x64
    5aac:	4db9      	ldr	r5, [pc, #740]	; (5d94 <ecc_mul_fixed+0x36c>)
    5aae:	47a8      	blx	r5
    5ab0:	aa46      	add	r2, sp, #280	; 0x118
    5ab2:	a928      	add	r1, sp, #160	; 0xa0
    5ab4:	a81e      	add	r0, sp, #120	; 0x78
    5ab6:	47a8      	blx	r5
    5ab8:	a84b      	add	r0, sp, #300	; 0x12c
    5aba:	4bb7      	ldr	r3, [pc, #732]	; (5d98 <ecc_mul_fixed+0x370>)
    5abc:	4798      	blx	r3
    5abe:	2301      	movs	r3, #1
    5ac0:	934b      	str	r3, [sp, #300]	; 0x12c
    5ac2:	a837      	add	r0, sp, #220	; 0xdc
    5ac4:	4db5      	ldr	r5, [pc, #724]	; (5d9c <ecc_mul_fixed+0x374>)
    5ac6:	47a8      	blx	r5
    5ac8:	a841      	add	r0, sp, #260	; 0x104
    5aca:	47a8      	blx	r5
    5acc:	a955      	add	r1, sp, #340	; 0x154
    5ace:	a837      	add	r0, sp, #220	; 0xdc
    5ad0:	4db3      	ldr	r5, [pc, #716]	; (5da0 <ecc_mul_fixed+0x378>)
    5ad2:	47a8      	blx	r5
    5ad4:	a95f      	add	r1, sp, #380	; 0x17c
    5ad6:	a841      	add	r0, sp, #260	; 0x104
    5ad8:	47a8      	blx	r5
    5ada:	23b4      	movs	r3, #180	; 0xb4
    5adc:	015b      	lsls	r3, r3, #5
    5ade:	4698      	mov	r8, r3
    5ae0:	44a0      	add	r8, r4
    5ae2:	23a1      	movs	r3, #161	; 0xa1
    5ae4:	00db      	lsls	r3, r3, #3
    5ae6:	446b      	add	r3, sp
    5ae8:	469a      	mov	sl, r3
    5aea:	26bd      	movs	r6, #189	; 0xbd
    5aec:	4ba7      	ldr	r3, [pc, #668]	; (5d8c <ecc_mul_fixed+0x364>)
    5aee:	4699      	mov	r9, r3
    5af0:	4dac      	ldr	r5, [pc, #688]	; (5da4 <ecc_mul_fixed+0x37c>)
    5af2:	4ca8      	ldr	r4, [pc, #672]	; (5d94 <ecc_mul_fixed+0x36c>)
    5af4:	46d3      	mov	fp, sl
    5af6:	46dc      	mov	ip, fp
    5af8:	465b      	mov	r3, fp
    5afa:	33c8      	adds	r3, #200	; 0xc8
    5afc:	681a      	ldr	r2, [r3, #0]
    5afe:	0033      	movs	r3, r6
    5b00:	0030      	movs	r0, r6
    5b02:	3864      	subs	r0, #100	; 0x64
    5b04:	4286      	cmp	r6, r0
    5b06:	db08      	blt.n	5b1a <ecc_mul_fixed+0xf2>
    5b08:	4659      	mov	r1, fp
    5b0a:	0052      	lsls	r2, r2, #1
    5b0c:	680f      	ldr	r7, [r1, #0]
    5b0e:	46ba      	mov	sl, r7
    5b10:	4452      	add	r2, sl
    5b12:	3b32      	subs	r3, #50	; 0x32
    5b14:	39c8      	subs	r1, #200	; 0xc8
    5b16:	4298      	cmp	r0, r3
    5b18:	ddf7      	ble.n	5b0a <ecc_mul_fixed+0xe2>
    5b1a:	4ba3      	ldr	r3, [pc, #652]	; (5da8 <ecc_mul_fixed+0x380>)
    5b1c:	4463      	add	r3, ip
    5b1e:	681b      	ldr	r3, [r3, #0]
    5b20:	a919      	add	r1, sp, #100	; 0x64
    5b22:	4640      	mov	r0, r8
    5b24:	47c8      	blx	r9
    5b26:	aa55      	add	r2, sp, #340	; 0x154
    5b28:	a95f      	add	r1, sp, #380	; 0x17c
    5b2a:	0010      	movs	r0, r2
    5b2c:	47a8      	blx	r5
    5b2e:	aa05      	add	r2, sp, #20
    5b30:	a94b      	add	r1, sp, #300	; 0x12c
    5b32:	0008      	movs	r0, r1
    5b34:	47a0      	blx	r4
    5b36:	aa0a      	add	r2, sp, #40	; 0x28
    5b38:	a950      	add	r1, sp, #320	; 0x140
    5b3a:	0008      	movs	r0, r1
    5b3c:	47a0      	blx	r4
    5b3e:	aa55      	add	r2, sp, #340	; 0x154
    5b40:	a92d      	add	r1, sp, #180	; 0xb4
    5b42:	0010      	movs	r0, r2
    5b44:	47a8      	blx	r5
    5b46:	aa4b      	add	r2, sp, #300	; 0x12c
    5b48:	a941      	add	r1, sp, #260	; 0x104
    5b4a:	a837      	add	r0, sp, #220	; 0xdc
    5b4c:	47a0      	blx	r4
    5b4e:	aa50      	add	r2, sp, #320	; 0x140
    5b50:	a946      	add	r1, sp, #280	; 0x118
    5b52:	a83c      	add	r0, sp, #240	; 0xf0
    5b54:	47a0      	blx	r4
    5b56:	aa5f      	add	r2, sp, #380	; 0x17c
    5b58:	a937      	add	r1, sp, #220	; 0xdc
    5b5a:	a841      	add	r0, sp, #260	; 0x104
    5b5c:	4b8c      	ldr	r3, [pc, #560]	; (5d90 <ecc_mul_fixed+0x368>)
    5b5e:	469a      	mov	sl, r3
    5b60:	4798      	blx	r3
    5b62:	aa64      	add	r2, sp, #400	; 0x190
    5b64:	a93c      	add	r1, sp, #240	; 0xf0
    5b66:	a846      	add	r0, sp, #280	; 0x118
    5b68:	47d0      	blx	sl
    5b6a:	aa0f      	add	r2, sp, #60	; 0x3c
    5b6c:	a955      	add	r1, sp, #340	; 0x154
    5b6e:	a805      	add	r0, sp, #20
    5b70:	47d0      	blx	sl
    5b72:	aa14      	add	r2, sp, #80	; 0x50
    5b74:	a95a      	add	r1, sp, #360	; 0x168
    5b76:	a80a      	add	r0, sp, #40	; 0x28
    5b78:	47d0      	blx	sl
    5b7a:	aa05      	add	r2, sp, #20
    5b7c:	a955      	add	r1, sp, #340	; 0x154
    5b7e:	0010      	movs	r0, r2
    5b80:	47a0      	blx	r4
    5b82:	aa0a      	add	r2, sp, #40	; 0x28
    5b84:	a95a      	add	r1, sp, #360	; 0x168
    5b86:	0010      	movs	r0, r2
    5b88:	47a0      	blx	r4
    5b8a:	aa55      	add	r2, sp, #340	; 0x154
    5b8c:	a94b      	add	r1, sp, #300	; 0x12c
    5b8e:	a819      	add	r0, sp, #100	; 0x64
    5b90:	47a8      	blx	r5
    5b92:	aa37      	add	r2, sp, #220	; 0xdc
    5b94:	a95f      	add	r1, sp, #380	; 0x17c
    5b96:	a823      	add	r0, sp, #140	; 0x8c
    5b98:	47a8      	blx	r5
    5b9a:	aa5f      	add	r2, sp, #380	; 0x17c
    5b9c:	a937      	add	r1, sp, #220	; 0xdc
    5b9e:	a855      	add	r0, sp, #340	; 0x154
    5ba0:	47d0      	blx	sl
    5ba2:	aa64      	add	r2, sp, #400	; 0x190
    5ba4:	a93c      	add	r1, sp, #240	; 0xf0
    5ba6:	a85a      	add	r0, sp, #360	; 0x168
    5ba8:	47d0      	blx	sl
    5baa:	aa55      	add	r2, sp, #340	; 0x154
    5bac:	a937      	add	r1, sp, #220	; 0xdc
    5bae:	0010      	movs	r0, r2
    5bb0:	47a0      	blx	r4
    5bb2:	aa5a      	add	r2, sp, #360	; 0x168
    5bb4:	a93c      	add	r1, sp, #240	; 0xf0
    5bb6:	0010      	movs	r0, r2
    5bb8:	47a0      	blx	r4
    5bba:	aa4b      	add	r2, sp, #300	; 0x12c
    5bbc:	a90f      	add	r1, sp, #60	; 0x3c
    5bbe:	a805      	add	r0, sp, #20
    5bc0:	47a8      	blx	r5
    5bc2:	aa37      	add	r2, sp, #220	; 0xdc
    5bc4:	a90f      	add	r1, sp, #60	; 0x3c
    5bc6:	a85f      	add	r0, sp, #380	; 0x17c
    5bc8:	47a8      	blx	r5
    5bca:	aa41      	add	r2, sp, #260	; 0x104
    5bcc:	a905      	add	r1, sp, #20
    5bce:	a855      	add	r0, sp, #340	; 0x154
    5bd0:	47a8      	blx	r5
    5bd2:	3e0a      	subs	r6, #10
    5bd4:	4b75      	ldr	r3, [pc, #468]	; (5dac <ecc_mul_fixed+0x384>)
    5bd6:	469c      	mov	ip, r3
    5bd8:	44e0      	add	r8, ip
    5bda:	2328      	movs	r3, #40	; 0x28
    5bdc:	425b      	negs	r3, r3
    5bde:	469c      	mov	ip, r3
    5be0:	44e3      	add	fp, ip
    5be2:	2e95      	cmp	r6, #149	; 0x95
    5be4:	d187      	bne.n	5af6 <ecc_mul_fixed+0xce>
    5be6:	4b72      	ldr	r3, [pc, #456]	; (5db0 <ecc_mul_fixed+0x388>)
    5be8:	aa04      	add	r2, sp, #16
    5bea:	4694      	mov	ip, r2
    5bec:	4463      	add	r3, ip
    5bee:	9302      	str	r3, [sp, #8]
    5bf0:	23c6      	movs	r3, #198	; 0xc6
    5bf2:	9301      	str	r3, [sp, #4]
    5bf4:	4b65      	ldr	r3, [pc, #404]	; (5d8c <ecc_mul_fixed+0x364>)
    5bf6:	469b      	mov	fp, r3
    5bf8:	e008      	b.n	5c0c <ecc_mul_fixed+0x1e4>
    5bfa:	9b01      	ldr	r3, [sp, #4]
    5bfc:	3b01      	subs	r3, #1
    5bfe:	9301      	str	r3, [sp, #4]
    5c00:	9a02      	ldr	r2, [sp, #8]
    5c02:	3a04      	subs	r2, #4
    5c04:	9202      	str	r2, [sp, #8]
    5c06:	2bbd      	cmp	r3, #189	; 0xbd
    5c08:	d100      	bne.n	5c0c <ecc_mul_fixed+0x1e4>
    5c0a:	e08b      	b.n	5d24 <ecc_mul_fixed+0x2fc>
    5c0c:	a837      	add	r0, sp, #220	; 0xdc
    5c0e:	4b69      	ldr	r3, [pc, #420]	; (5db4 <ecc_mul_fixed+0x38c>)
    5c10:	4798      	blx	r3
    5c12:	4b5d      	ldr	r3, [pc, #372]	; (5d88 <ecc_mul_fixed+0x360>)
    5c14:	22f0      	movs	r2, #240	; 0xf0
    5c16:	0152      	lsls	r2, r2, #5
    5c18:	4694      	mov	ip, r2
    5c1a:	4463      	add	r3, ip
    5c1c:	4699      	mov	r9, r3
    5c1e:	9f01      	ldr	r7, [sp, #4]
    5c20:	003b      	movs	r3, r7
    5c22:	2232      	movs	r2, #50	; 0x32
    5c24:	4252      	negs	r2, r2
    5c26:	4694      	mov	ip, r2
    5c28:	4463      	add	r3, ip
    5c2a:	469a      	mov	sl, r3
    5c2c:	9b02      	ldr	r3, [sp, #8]
    5c2e:	4d5d      	ldr	r5, [pc, #372]	; (5da4 <ecc_mul_fixed+0x37c>)
    5c30:	4c58      	ldr	r4, [pc, #352]	; (5d94 <ecc_mul_fixed+0x36c>)
    5c32:	001e      	movs	r6, r3
    5c34:	46b4      	mov	ip, r6
    5c36:	0033      	movs	r3, r6
    5c38:	33c8      	adds	r3, #200	; 0xc8
    5c3a:	681a      	ldr	r2, [r3, #0]
    5c3c:	003b      	movs	r3, r7
    5c3e:	0038      	movs	r0, r7
    5c40:	3864      	subs	r0, #100	; 0x64
    5c42:	4287      	cmp	r7, r0
    5c44:	db0a      	blt.n	5c5c <ecc_mul_fixed+0x234>
    5c46:	0031      	movs	r1, r6
    5c48:	9600      	str	r6, [sp, #0]
    5c4a:	0052      	lsls	r2, r2, #1
    5c4c:	680e      	ldr	r6, [r1, #0]
    5c4e:	46b0      	mov	r8, r6
    5c50:	4442      	add	r2, r8
    5c52:	3b32      	subs	r3, #50	; 0x32
    5c54:	39c8      	subs	r1, #200	; 0xc8
    5c56:	4283      	cmp	r3, r0
    5c58:	daf7      	bge.n	5c4a <ecc_mul_fixed+0x222>
    5c5a:	9e00      	ldr	r6, [sp, #0]
    5c5c:	4b52      	ldr	r3, [pc, #328]	; (5da8 <ecc_mul_fixed+0x380>)
    5c5e:	4463      	add	r3, ip
    5c60:	681b      	ldr	r3, [r3, #0]
    5c62:	a919      	add	r1, sp, #100	; 0x64
    5c64:	4648      	mov	r0, r9
    5c66:	47d8      	blx	fp
    5c68:	aa55      	add	r2, sp, #340	; 0x154
    5c6a:	a95f      	add	r1, sp, #380	; 0x17c
    5c6c:	0010      	movs	r0, r2
    5c6e:	47a8      	blx	r5
    5c70:	aa05      	add	r2, sp, #20
    5c72:	a94b      	add	r1, sp, #300	; 0x12c
    5c74:	0008      	movs	r0, r1
    5c76:	47a0      	blx	r4
    5c78:	aa0a      	add	r2, sp, #40	; 0x28
    5c7a:	a950      	add	r1, sp, #320	; 0x140
    5c7c:	0008      	movs	r0, r1
    5c7e:	47a0      	blx	r4
    5c80:	aa55      	add	r2, sp, #340	; 0x154
    5c82:	a92d      	add	r1, sp, #180	; 0xb4
    5c84:	0010      	movs	r0, r2
    5c86:	47a8      	blx	r5
    5c88:	aa4b      	add	r2, sp, #300	; 0x12c
    5c8a:	a941      	add	r1, sp, #260	; 0x104
    5c8c:	a837      	add	r0, sp, #220	; 0xdc
    5c8e:	47a0      	blx	r4
    5c90:	aa50      	add	r2, sp, #320	; 0x140
    5c92:	a946      	add	r1, sp, #280	; 0x118
    5c94:	a83c      	add	r0, sp, #240	; 0xf0
    5c96:	47a0      	blx	r4
    5c98:	aa5f      	add	r2, sp, #380	; 0x17c
    5c9a:	a937      	add	r1, sp, #220	; 0xdc
    5c9c:	a841      	add	r0, sp, #260	; 0x104
    5c9e:	4b3c      	ldr	r3, [pc, #240]	; (5d90 <ecc_mul_fixed+0x368>)
    5ca0:	4698      	mov	r8, r3
    5ca2:	4798      	blx	r3
    5ca4:	aa64      	add	r2, sp, #400	; 0x190
    5ca6:	a93c      	add	r1, sp, #240	; 0xf0
    5ca8:	a846      	add	r0, sp, #280	; 0x118
    5caa:	47c0      	blx	r8
    5cac:	aa0f      	add	r2, sp, #60	; 0x3c
    5cae:	a955      	add	r1, sp, #340	; 0x154
    5cb0:	a805      	add	r0, sp, #20
    5cb2:	47c0      	blx	r8
    5cb4:	aa14      	add	r2, sp, #80	; 0x50
    5cb6:	a95a      	add	r1, sp, #360	; 0x168
    5cb8:	a80a      	add	r0, sp, #40	; 0x28
    5cba:	47c0      	blx	r8
    5cbc:	aa05      	add	r2, sp, #20
    5cbe:	a955      	add	r1, sp, #340	; 0x154
    5cc0:	0010      	movs	r0, r2
    5cc2:	47a0      	blx	r4
    5cc4:	aa0a      	add	r2, sp, #40	; 0x28
    5cc6:	a95a      	add	r1, sp, #360	; 0x168
    5cc8:	0010      	movs	r0, r2
    5cca:	47a0      	blx	r4
    5ccc:	aa55      	add	r2, sp, #340	; 0x154
    5cce:	a94b      	add	r1, sp, #300	; 0x12c
    5cd0:	a819      	add	r0, sp, #100	; 0x64
    5cd2:	47a8      	blx	r5
    5cd4:	aa37      	add	r2, sp, #220	; 0xdc
    5cd6:	a95f      	add	r1, sp, #380	; 0x17c
    5cd8:	a823      	add	r0, sp, #140	; 0x8c
    5cda:	47a8      	blx	r5
    5cdc:	aa5f      	add	r2, sp, #380	; 0x17c
    5cde:	a937      	add	r1, sp, #220	; 0xdc
    5ce0:	a855      	add	r0, sp, #340	; 0x154
    5ce2:	47c0      	blx	r8
    5ce4:	aa64      	add	r2, sp, #400	; 0x190
    5ce6:	a93c      	add	r1, sp, #240	; 0xf0
    5ce8:	a85a      	add	r0, sp, #360	; 0x168
    5cea:	47c0      	blx	r8
    5cec:	aa55      	add	r2, sp, #340	; 0x154
    5cee:	a937      	add	r1, sp, #220	; 0xdc
    5cf0:	0010      	movs	r0, r2
    5cf2:	47a0      	blx	r4
    5cf4:	aa5a      	add	r2, sp, #360	; 0x168
    5cf6:	a93c      	add	r1, sp, #240	; 0xf0
    5cf8:	0010      	movs	r0, r2
    5cfa:	47a0      	blx	r4
    5cfc:	aa4b      	add	r2, sp, #300	; 0x12c
    5cfe:	a90f      	add	r1, sp, #60	; 0x3c
    5d00:	a805      	add	r0, sp, #20
    5d02:	47a8      	blx	r5
    5d04:	aa37      	add	r2, sp, #220	; 0xdc
    5d06:	a90f      	add	r1, sp, #60	; 0x3c
    5d08:	a85f      	add	r0, sp, #380	; 0x17c
    5d0a:	47a8      	blx	r5
    5d0c:	aa41      	add	r2, sp, #260	; 0x104
    5d0e:	a905      	add	r1, sp, #20
    5d10:	a855      	add	r0, sp, #340	; 0x154
    5d12:	47a8      	blx	r5
    5d14:	3f0a      	subs	r7, #10
    5d16:	4b25      	ldr	r3, [pc, #148]	; (5dac <ecc_mul_fixed+0x384>)
    5d18:	469c      	mov	ip, r3
    5d1a:	44e1      	add	r9, ip
    5d1c:	3e28      	subs	r6, #40	; 0x28
    5d1e:	4557      	cmp	r7, sl
    5d20:	d188      	bne.n	5c34 <ecc_mul_fixed+0x20c>
    5d22:	e76a      	b.n	5bfa <ecc_mul_fixed+0x1d2>
    5d24:	a84b      	add	r0, sp, #300	; 0x12c
    5d26:	4b24      	ldr	r3, [pc, #144]	; (5db8 <ecc_mul_fixed+0x390>)
    5d28:	4798      	blx	r3
    5d2a:	aa69      	add	r2, sp, #420	; 0x1a4
    5d2c:	a94b      	add	r1, sp, #300	; 0x12c
    5d2e:	a837      	add	r0, sp, #220	; 0xdc
    5d30:	4c1c      	ldr	r4, [pc, #112]	; (5da4 <ecc_mul_fixed+0x37c>)
    5d32:	47a0      	blx	r4
    5d34:	aa73      	add	r2, sp, #460	; 0x1cc
    5d36:	a94b      	add	r1, sp, #300	; 0x12c
    5d38:	a841      	add	r0, sp, #260	; 0x104
    5d3a:	47a0      	blx	r4
    5d3c:	a969      	add	r1, sp, #420	; 0x1a4
    5d3e:	0008      	movs	r0, r1
    5d40:	4c1e      	ldr	r4, [pc, #120]	; (5dbc <ecc_mul_fixed+0x394>)
    5d42:	47a0      	blx	r4
    5d44:	a973      	add	r1, sp, #460	; 0x1cc
    5d46:	0008      	movs	r0, r1
    5d48:	47a0      	blx	r4
    5d4a:	9d03      	ldr	r5, [sp, #12]
    5d4c:	0029      	movs	r1, r5
    5d4e:	a869      	add	r0, sp, #420	; 0x1a4
    5d50:	4c1b      	ldr	r4, [pc, #108]	; (5dc0 <ecc_mul_fixed+0x398>)
    5d52:	47a0      	blx	r4
    5d54:	0029      	movs	r1, r5
    5d56:	3120      	adds	r1, #32
    5d58:	a873      	add	r0, sp, #460	; 0x1cc
    5d5a:	47a0      	blx	r4
    5d5c:	2001      	movs	r0, #1
    5d5e:	4b19      	ldr	r3, [pc, #100]	; (5dc4 <ecc_mul_fixed+0x39c>)
    5d60:	449d      	add	sp, r3
    5d62:	bc3c      	pop	{r2, r3, r4, r5}
    5d64:	4690      	mov	r8, r2
    5d66:	4699      	mov	r9, r3
    5d68:	46a2      	mov	sl, r4
    5d6a:	46ab      	mov	fp, r5
    5d6c:	bdf0      	pop	{r4, r5, r6, r7, pc}
    5d6e:	46c0      	nop			; (mov r8, r8)
    5d70:	fffff9ac 	.word	0xfffff9ac
    5d74:	0000043c 	.word	0x0000043c
    5d78:	00006f89 	.word	0x00006f89
    5d7c:	00004a35 	.word	0x00004a35
    5d80:	00004a6d 	.word	0x00004a6d
    5d84:	00005899 	.word	0x00005899
    5d88:	0000862c 	.word	0x0000862c
    5d8c:	00004e9d 	.word	0x00004e9d
    5d90:	00003f3f 	.word	0x00003f3f
    5d94:	00003f03 	.word	0x00003f03
    5d98:	00004fc9 	.word	0x00004fc9
    5d9c:	000050d5 	.word	0x000050d5
    5da0:	00004b23 	.word	0x00004b23
    5da4:	000051c1 	.word	0x000051c1
    5da8:	fffffda8 	.word	0xfffffda8
    5dac:	fffff880 	.word	0xfffff880
    5db0:	0000051c 	.word	0x0000051c
    5db4:	000054d9 	.word	0x000054d9
    5db8:	00005281 	.word	0x00005281
    5dbc:	000051a5 	.word	0x000051a5
    5dc0:	00004805 	.word	0x00004805
    5dc4:	00000654 	.word	0x00000654

00005dc8 <fixed_window_recode>:
    5dc8:	b5f0      	push	{r4, r5, r6, r7, lr}
    5dca:	46de      	mov	lr, fp
    5dcc:	4657      	mov	r7, sl
    5dce:	464e      	mov	r6, r9
    5dd0:	4645      	mov	r5, r8
    5dd2:	b5e0      	push	{r5, r6, r7, lr}
    5dd4:	b089      	sub	sp, #36	; 0x24
    5dd6:	4692      	mov	sl, r2
    5dd8:	2300      	movs	r3, #0
    5dda:	469c      	mov	ip, r3
    5ddc:	3320      	adds	r3, #32
    5dde:	4699      	mov	r9, r3
    5de0:	4481      	add	r9, r0
    5de2:	3b08      	subs	r3, #8
    5de4:	4698      	mov	r8, r3
    5de6:	4480      	add	r8, r0
    5de8:	4643      	mov	r3, r8
    5dea:	9300      	str	r3, [sp, #0]
    5dec:	9107      	str	r1, [sp, #28]
    5dee:	4683      	mov	fp, r0
    5df0:	e011      	b.n	5e16 <fixed_window_recode+0x4e>
    5df2:	9400      	str	r4, [sp, #0]
    5df4:	465b      	mov	r3, fp
    5df6:	69db      	ldr	r3, [r3, #28]
    5df8:	0719      	lsls	r1, r3, #28
    5dfa:	465a      	mov	r2, fp
    5dfc:	6992      	ldr	r2, [r2, #24]
    5dfe:	0912      	lsrs	r2, r2, #4
    5e00:	430a      	orrs	r2, r1
    5e02:	4659      	mov	r1, fp
    5e04:	618a      	str	r2, [r1, #24]
    5e06:	091b      	lsrs	r3, r3, #4
    5e08:	61cb      	str	r3, [r1, #28]
    5e0a:	2304      	movs	r3, #4
    5e0c:	4698      	mov	r8, r3
    5e0e:	44c4      	add	ip, r8
    5e10:	4663      	mov	r3, ip
    5e12:	2bf8      	cmp	r3, #248	; 0xf8
    5e14:	d069      	beq.n	5eea <fixed_window_recode+0x122>
    5e16:	465a      	mov	r2, fp
    5e18:	231f      	movs	r3, #31
    5e1a:	6812      	ldr	r2, [r2, #0]
    5e1c:	4013      	ands	r3, r2
    5e1e:	9304      	str	r3, [sp, #16]
    5e20:	2300      	movs	r3, #0
    5e22:	9305      	str	r3, [sp, #20]
    5e24:	9a04      	ldr	r2, [sp, #16]
    5e26:	9b05      	ldr	r3, [sp, #20]
    5e28:	2010      	movs	r0, #16
    5e2a:	4240      	negs	r0, r0
    5e2c:	17c1      	asrs	r1, r0, #31
    5e2e:	1812      	adds	r2, r2, r0
    5e30:	414b      	adcs	r3, r1
    5e32:	17d9      	asrs	r1, r3, #31
    5e34:	9102      	str	r1, [sp, #8]
    5e36:	9103      	str	r1, [sp, #12]
    5e38:	43c9      	mvns	r1, r1
    5e3a:	4650      	mov	r0, sl
    5e3c:	4665      	mov	r5, ip
    5e3e:	5141      	str	r1, [r0, r5]
    5e40:	4250      	negs	r0, r2
    5e42:	0004      	movs	r4, r0
    5e44:	4054      	eors	r4, r2
    5e46:	4021      	ands	r1, r4
    5e48:	4048      	eors	r0, r1
    5e4a:	0840      	lsrs	r0, r0, #1
    5e4c:	9907      	ldr	r1, [sp, #28]
    5e4e:	5148      	str	r0, [r1, r5]
    5e50:	4659      	mov	r1, fp
    5e52:	6809      	ldr	r1, [r1, #0]
    5e54:	1a8d      	subs	r5, r1, r2
    5e56:	4055      	eors	r5, r2
    5e58:	4659      	mov	r1, fp
    5e5a:	6809      	ldr	r1, [r1, #0]
    5e5c:	4051      	eors	r1, r2
    5e5e:	000c      	movs	r4, r1
    5e60:	432c      	orrs	r4, r5
    5e62:	4659      	mov	r1, fp
    5e64:	6809      	ldr	r1, [r1, #0]
    5e66:	404c      	eors	r4, r1
    5e68:	0fe1      	lsrs	r1, r4, #31
    5e6a:	4688      	mov	r8, r1
    5e6c:	9c02      	ldr	r4, [sp, #8]
    5e6e:	9d03      	ldr	r5, [sp, #12]
    5e70:	2001      	movs	r0, #1
    5e72:	4240      	negs	r0, r0
    5e74:	17c1      	asrs	r1, r0, #31
    5e76:	1824      	adds	r4, r4, r0
    5e78:	414d      	adcs	r5, r1
    5e7a:	4641      	mov	r1, r8
    5e7c:	4021      	ands	r1, r4
    5e7e:	000e      	movs	r6, r1
    5e80:	2700      	movs	r7, #0
    5e82:	4659      	mov	r1, fp
    5e84:	6808      	ldr	r0, [r1, #0]
    5e86:	6849      	ldr	r1, [r1, #4]
    5e88:	1a80      	subs	r0, r0, r2
    5e8a:	4199      	sbcs	r1, r3
    5e8c:	0002      	movs	r2, r0
    5e8e:	000b      	movs	r3, r1
    5e90:	4659      	mov	r1, fp
    5e92:	c10c      	stmia	r1!, {r2, r3}
    5e94:	9b00      	ldr	r3, [sp, #0]
    5e96:	4698      	mov	r8, r3
    5e98:	4648      	mov	r0, r9
    5e9a:	680b      	ldr	r3, [r1, #0]
    5e9c:	684c      	ldr	r4, [r1, #4]
    5e9e:	001a      	movs	r2, r3
    5ea0:	0023      	movs	r3, r4
    5ea2:	0014      	movs	r4, r2
    5ea4:	001d      	movs	r5, r3
    5ea6:	1ba4      	subs	r4, r4, r6
    5ea8:	41bd      	sbcs	r5, r7
    5eaa:	c130      	stmia	r1!, {r4, r5}
    5eac:	9200      	str	r2, [sp, #0]
    5eae:	9301      	str	r3, [sp, #4]
    5eb0:	1b93      	subs	r3, r2, r6
    5eb2:	4073      	eors	r3, r6
    5eb4:	0034      	movs	r4, r6
    5eb6:	9d00      	ldr	r5, [sp, #0]
    5eb8:	406c      	eors	r4, r5
    5eba:	4323      	orrs	r3, r4
    5ebc:	406b      	eors	r3, r5
    5ebe:	0fde      	lsrs	r6, r3, #31
    5ec0:	2700      	movs	r7, #0
    5ec2:	4281      	cmp	r1, r0
    5ec4:	d1e9      	bne.n	5e9a <fixed_window_recode+0xd2>
    5ec6:	4681      	mov	r9, r0
    5ec8:	4659      	mov	r1, fp
    5eca:	4644      	mov	r4, r8
    5ecc:	684b      	ldr	r3, [r1, #4]
    5ece:	0718      	lsls	r0, r3, #28
    5ed0:	680a      	ldr	r2, [r1, #0]
    5ed2:	0912      	lsrs	r2, r2, #4
    5ed4:	4302      	orrs	r2, r0
    5ed6:	091b      	lsrs	r3, r3, #4
    5ed8:	6888      	ldr	r0, [r1, #8]
    5eda:	0700      	lsls	r0, r0, #28
    5edc:	600a      	str	r2, [r1, #0]
    5ede:	4043      	eors	r3, r0
    5ee0:	604b      	str	r3, [r1, #4]
    5ee2:	3108      	adds	r1, #8
    5ee4:	428c      	cmp	r4, r1
    5ee6:	d1f1      	bne.n	5ecc <fixed_window_recode+0x104>
    5ee8:	e783      	b.n	5df2 <fixed_window_recode+0x2a>
    5eea:	4658      	mov	r0, fp
    5eec:	9b07      	ldr	r3, [sp, #28]
    5eee:	469b      	mov	fp, r3
    5ef0:	684b      	ldr	r3, [r1, #4]
    5ef2:	0fdb      	lsrs	r3, r3, #31
    5ef4:	43db      	mvns	r3, r3
    5ef6:	21f8      	movs	r1, #248	; 0xf8
    5ef8:	4652      	mov	r2, sl
    5efa:	5053      	str	r3, [r2, r1]
    5efc:	6802      	ldr	r2, [r0, #0]
    5efe:	4250      	negs	r0, r2
    5f00:	4042      	eors	r2, r0
    5f02:	4013      	ands	r3, r2
    5f04:	4043      	eors	r3, r0
    5f06:	085b      	lsrs	r3, r3, #1
    5f08:	465a      	mov	r2, fp
    5f0a:	5053      	str	r3, [r2, r1]
    5f0c:	b009      	add	sp, #36	; 0x24
    5f0e:	bc3c      	pop	{r2, r3, r4, r5}
    5f10:	4690      	mov	r8, r2
    5f12:	4699      	mov	r9, r3
    5f14:	46a2      	mov	sl, r4
    5f16:	46ab      	mov	fp, r5
    5f18:	bdf0      	pop	{r4, r5, r6, r7, pc}
	...

00005f1c <ecc_precomp>:
    5f1c:	b5f0      	push	{r4, r5, r6, r7, lr}
    5f1e:	b0db      	sub	sp, #364	; 0x16c
    5f20:	0004      	movs	r4, r0
    5f22:	000d      	movs	r5, r1
    5f24:	4669      	mov	r1, sp
    5f26:	4e18      	ldr	r6, [pc, #96]	; (5f88 <ecc_precomp+0x6c>)
    5f28:	47b0      	blx	r6
    5f2a:	0020      	movs	r0, r4
    5f2c:	3028      	adds	r0, #40	; 0x28
    5f2e:	a90a      	add	r1, sp, #40	; 0x28
    5f30:	47b0      	blx	r6
    5f32:	0020      	movs	r0, r4
    5f34:	3050      	adds	r0, #80	; 0x50
    5f36:	a914      	add	r1, sp, #80	; 0x50
    5f38:	47b0      	blx	r6
    5f3a:	0020      	movs	r0, r4
    5f3c:	3078      	adds	r0, #120	; 0x78
    5f3e:	a91e      	add	r1, sp, #120	; 0x78
    5f40:	47b0      	blx	r6
    5f42:	0020      	movs	r0, r4
    5f44:	30a0      	adds	r0, #160	; 0xa0
    5f46:	a928      	add	r1, sp, #160	; 0xa0
    5f48:	47b0      	blx	r6
    5f4a:	0029      	movs	r1, r5
    5f4c:	0020      	movs	r0, r4
    5f4e:	4b0f      	ldr	r3, [pc, #60]	; (5f8c <ecc_precomp+0x70>)
    5f50:	4798      	blx	r3
    5f52:	4668      	mov	r0, sp
    5f54:	4b0e      	ldr	r3, [pc, #56]	; (5f90 <ecc_precomp+0x74>)
    5f56:	4798      	blx	r3
    5f58:	a932      	add	r1, sp, #200	; 0xc8
    5f5a:	4668      	mov	r0, sp
    5f5c:	4b0d      	ldr	r3, [pc, #52]	; (5f94 <ecc_precomp+0x78>)
    5f5e:	4798      	blx	r3
    5f60:	002c      	movs	r4, r5
    5f62:	238c      	movs	r3, #140	; 0x8c
    5f64:	00db      	lsls	r3, r3, #3
    5f66:	469c      	mov	ip, r3
    5f68:	4465      	add	r5, ip
    5f6a:	4f0b      	ldr	r7, [pc, #44]	; (5f98 <ecc_precomp+0x7c>)
    5f6c:	4e07      	ldr	r6, [pc, #28]	; (5f8c <ecc_precomp+0x70>)
    5f6e:	466a      	mov	r2, sp
    5f70:	0021      	movs	r1, r4
    5f72:	a832      	add	r0, sp, #200	; 0xc8
    5f74:	47b8      	blx	r7
    5f76:	34a0      	adds	r4, #160	; 0xa0
    5f78:	0021      	movs	r1, r4
    5f7a:	4668      	mov	r0, sp
    5f7c:	47b0      	blx	r6
    5f7e:	42ac      	cmp	r4, r5
    5f80:	d1f5      	bne.n	5f6e <ecc_precomp+0x52>
    5f82:	b05b      	add	sp, #364	; 0x16c
    5f84:	bdf0      	pop	{r4, r5, r6, r7, pc}
    5f86:	46c0      	nop			; (mov r8, r8)
    5f88:	00004b23 	.word	0x00004b23
    5f8c:	0000533d 	.word	0x0000533d
    5f90:	000054d9 	.word	0x000054d9
    5f94:	000053e9 	.word	0x000053e9
    5f98:	000055b5 	.word	0x000055b5

00005f9c <cofactor_clearing>:
    5f9c:	b570      	push	{r4, r5, r6, lr}
    5f9e:	b0a8      	sub	sp, #160	; 0xa0
    5fa0:	0004      	movs	r4, r0
    5fa2:	4669      	mov	r1, sp
    5fa4:	4b0d      	ldr	r3, [pc, #52]	; (5fdc <cofactor_clearing+0x40>)
    5fa6:	4798      	blx	r3
    5fa8:	0020      	movs	r0, r4
    5faa:	4d0d      	ldr	r5, [pc, #52]	; (5fe0 <cofactor_clearing+0x44>)
    5fac:	47a8      	blx	r5
    5fae:	0021      	movs	r1, r4
    5fb0:	4668      	mov	r0, sp
    5fb2:	4e0c      	ldr	r6, [pc, #48]	; (5fe4 <cofactor_clearing+0x48>)
    5fb4:	47b0      	blx	r6
    5fb6:	0020      	movs	r0, r4
    5fb8:	47a8      	blx	r5
    5fba:	0020      	movs	r0, r4
    5fbc:	47a8      	blx	r5
    5fbe:	0020      	movs	r0, r4
    5fc0:	47a8      	blx	r5
    5fc2:	0020      	movs	r0, r4
    5fc4:	47a8      	blx	r5
    5fc6:	0021      	movs	r1, r4
    5fc8:	4668      	mov	r0, sp
    5fca:	47b0      	blx	r6
    5fcc:	0020      	movs	r0, r4
    5fce:	47a8      	blx	r5
    5fd0:	0020      	movs	r0, r4
    5fd2:	47a8      	blx	r5
    5fd4:	0020      	movs	r0, r4
    5fd6:	47a8      	blx	r5
    5fd8:	b028      	add	sp, #160	; 0xa0
    5fda:	bd70      	pop	{r4, r5, r6, pc}
    5fdc:	0000533d 	.word	0x0000533d
    5fe0:	000054d9 	.word	0x000054d9
    5fe4:	00005699 	.word	0x00005699

00005fe8 <ecc_mul>:
    5fe8:	b5f0      	push	{r4, r5, r6, r7, lr}
    5fea:	4c5a      	ldr	r4, [pc, #360]	; (6154 <ecc_mul+0x16c>)
    5fec:	44a5      	add	sp, r4
    5fee:	0007      	movs	r7, r0
    5ff0:	000c      	movs	r4, r1
    5ff2:	9201      	str	r2, [sp, #4]
    5ff4:	001d      	movs	r5, r3
    5ff6:	22fc      	movs	r2, #252	; 0xfc
    5ff8:	2100      	movs	r1, #0
    5ffa:	a849      	add	r0, sp, #292	; 0x124
    5ffc:	4e56      	ldr	r6, [pc, #344]	; (6158 <ecc_mul+0x170>)
    5ffe:	47b0      	blx	r6
    6000:	22fc      	movs	r2, #252	; 0xfc
    6002:	2100      	movs	r1, #0
    6004:	a80a      	add	r0, sp, #40	; 0x28
    6006:	47b0      	blx	r6
    6008:	23f7      	movs	r3, #247	; 0xf7
    600a:	00db      	lsls	r3, r3, #3
    600c:	aa02      	add	r2, sp, #8
    600e:	4694      	mov	ip, r2
    6010:	4463      	add	r3, ip
    6012:	0019      	movs	r1, r3
    6014:	0038      	movs	r0, r7
    6016:	4b51      	ldr	r3, [pc, #324]	; (615c <ecc_mul+0x174>)
    6018:	4798      	blx	r3
    601a:	23f7      	movs	r3, #247	; 0xf7
    601c:	00db      	lsls	r3, r3, #3
    601e:	aa02      	add	r2, sp, #8
    6020:	4694      	mov	ip, r2
    6022:	4463      	add	r3, ip
    6024:	0018      	movs	r0, r3
    6026:	4b4e      	ldr	r3, [pc, #312]	; (6160 <ecc_mul+0x178>)
    6028:	4798      	blx	r3
    602a:	9000      	str	r0, [sp, #0]
    602c:	2800      	cmp	r0, #0
    602e:	d100      	bne.n	6032 <ecc_mul+0x4a>
    6030:	e083      	b.n	613a <ecc_mul+0x152>
    6032:	2d00      	cmp	r5, #0
    6034:	d000      	beq.n	6038 <ecc_mul+0x50>
    6036:	e084      	b.n	6142 <ecc_mul+0x15a>
    6038:	a902      	add	r1, sp, #8
    603a:	0020      	movs	r0, r4
    603c:	4b49      	ldr	r3, [pc, #292]	; (6164 <ecc_mul+0x17c>)
    603e:	4798      	blx	r3
    6040:	a902      	add	r1, sp, #8
    6042:	0008      	movs	r0, r1
    6044:	4b48      	ldr	r3, [pc, #288]	; (6168 <ecc_mul+0x180>)
    6046:	4798      	blx	r3
    6048:	a988      	add	r1, sp, #544	; 0x220
    604a:	23f7      	movs	r3, #247	; 0xf7
    604c:	00db      	lsls	r3, r3, #3
    604e:	aa02      	add	r2, sp, #8
    6050:	4694      	mov	ip, r2
    6052:	4463      	add	r3, ip
    6054:	0018      	movs	r0, r3
    6056:	4b45      	ldr	r3, [pc, #276]	; (616c <ecc_mul+0x184>)
    6058:	4798      	blx	r3
    605a:	aa0a      	add	r2, sp, #40	; 0x28
    605c:	a949      	add	r1, sp, #292	; 0x124
    605e:	a802      	add	r0, sp, #8
    6060:	4b43      	ldr	r3, [pc, #268]	; (6170 <ecc_mul+0x188>)
    6062:	4798      	blx	r3
    6064:	9b48      	ldr	r3, [sp, #288]	; 0x120
    6066:	9a87      	ldr	r2, [sp, #540]	; 0x21c
    6068:	21e3      	movs	r1, #227	; 0xe3
    606a:	00c9      	lsls	r1, r1, #3
    606c:	a802      	add	r0, sp, #8
    606e:	4684      	mov	ip, r0
    6070:	4461      	add	r1, ip
    6072:	a888      	add	r0, sp, #544	; 0x220
    6074:	4c3f      	ldr	r4, [pc, #252]	; (6174 <ecc_mul+0x18c>)
    6076:	47a0      	blx	r4
    6078:	23f7      	movs	r3, #247	; 0xf7
    607a:	00db      	lsls	r3, r3, #3
    607c:	aa02      	add	r2, sp, #8
    607e:	4694      	mov	ip, r2
    6080:	4463      	add	r3, ip
    6082:	0019      	movs	r1, r3
    6084:	23e3      	movs	r3, #227	; 0xe3
    6086:	00db      	lsls	r3, r3, #3
    6088:	4463      	add	r3, ip
    608a:	0018      	movs	r0, r3
    608c:	4b3a      	ldr	r3, [pc, #232]	; (6178 <ecc_mul+0x190>)
    608e:	4798      	blx	r3
    6090:	24f4      	movs	r4, #244	; 0xf4
    6092:	4d3a      	ldr	r5, [pc, #232]	; (617c <ecc_mul+0x194>)
    6094:	4f37      	ldr	r7, [pc, #220]	; (6174 <ecc_mul+0x18c>)
    6096:	4e3a      	ldr	r6, [pc, #232]	; (6180 <ecc_mul+0x198>)
    6098:	23f7      	movs	r3, #247	; 0xf7
    609a:	00db      	lsls	r3, r3, #3
    609c:	aa02      	add	r2, sp, #8
    609e:	4694      	mov	ip, r2
    60a0:	4463      	add	r3, ip
    60a2:	0018      	movs	r0, r3
    60a4:	47a8      	blx	r5
    60a6:	ab0a      	add	r3, sp, #40	; 0x28
    60a8:	58e3      	ldr	r3, [r4, r3]
    60aa:	aa49      	add	r2, sp, #292	; 0x124
    60ac:	58a2      	ldr	r2, [r4, r2]
    60ae:	21e3      	movs	r1, #227	; 0xe3
    60b0:	00c9      	lsls	r1, r1, #3
    60b2:	a802      	add	r0, sp, #8
    60b4:	4684      	mov	ip, r0
    60b6:	4461      	add	r1, ip
    60b8:	a888      	add	r0, sp, #544	; 0x220
    60ba:	47b8      	blx	r7
    60bc:	23f7      	movs	r3, #247	; 0xf7
    60be:	00db      	lsls	r3, r3, #3
    60c0:	aa02      	add	r2, sp, #8
    60c2:	4694      	mov	ip, r2
    60c4:	4463      	add	r3, ip
    60c6:	0018      	movs	r0, r3
    60c8:	47a8      	blx	r5
    60ca:	23f7      	movs	r3, #247	; 0xf7
    60cc:	00db      	lsls	r3, r3, #3
    60ce:	aa02      	add	r2, sp, #8
    60d0:	4694      	mov	ip, r2
    60d2:	4463      	add	r3, ip
    60d4:	0018      	movs	r0, r3
    60d6:	47a8      	blx	r5
    60d8:	23f7      	movs	r3, #247	; 0xf7
    60da:	00db      	lsls	r3, r3, #3
    60dc:	aa02      	add	r2, sp, #8
    60de:	4694      	mov	ip, r2
    60e0:	4463      	add	r3, ip
    60e2:	0018      	movs	r0, r3
    60e4:	47a8      	blx	r5
    60e6:	23f7      	movs	r3, #247	; 0xf7
    60e8:	00db      	lsls	r3, r3, #3
    60ea:	aa02      	add	r2, sp, #8
    60ec:	4694      	mov	ip, r2
    60ee:	4463      	add	r3, ip
    60f0:	0019      	movs	r1, r3
    60f2:	23e3      	movs	r3, #227	; 0xe3
    60f4:	00db      	lsls	r3, r3, #3
    60f6:	4463      	add	r3, ip
    60f8:	0018      	movs	r0, r3
    60fa:	47b0      	blx	r6
    60fc:	3c04      	subs	r4, #4
    60fe:	1d23      	adds	r3, r4, #4
    6100:	d1ca      	bne.n	6098 <ecc_mul+0xb0>
    6102:	2388      	movs	r3, #136	; 0x88
    6104:	011b      	lsls	r3, r3, #4
    6106:	aa02      	add	r2, sp, #8
    6108:	4694      	mov	ip, r2
    610a:	4463      	add	r3, ip
    610c:	0019      	movs	r1, r3
    610e:	20f7      	movs	r0, #247	; 0xf7
    6110:	00c0      	lsls	r0, r0, #3
    6112:	4460      	add	r0, ip
    6114:	4b1b      	ldr	r3, [pc, #108]	; (6184 <ecc_mul+0x19c>)
    6116:	4798      	blx	r3
    6118:	9d01      	ldr	r5, [sp, #4]
    611a:	0029      	movs	r1, r5
    611c:	2388      	movs	r3, #136	; 0x88
    611e:	011b      	lsls	r3, r3, #4
    6120:	aa02      	add	r2, sp, #8
    6122:	4694      	mov	ip, r2
    6124:	4463      	add	r3, ip
    6126:	0018      	movs	r0, r3
    6128:	4c17      	ldr	r4, [pc, #92]	; (6188 <ecc_mul+0x1a0>)
    612a:	47a0      	blx	r4
    612c:	0029      	movs	r1, r5
    612e:	3120      	adds	r1, #32
    6130:	4816      	ldr	r0, [pc, #88]	; (618c <ecc_mul+0x1a4>)
    6132:	ab02      	add	r3, sp, #8
    6134:	469c      	mov	ip, r3
    6136:	4460      	add	r0, ip
    6138:	47a0      	blx	r4
    613a:	9800      	ldr	r0, [sp, #0]
    613c:	4b14      	ldr	r3, [pc, #80]	; (6190 <ecc_mul+0x1a8>)
    613e:	449d      	add	sp, r3
    6140:	bdf0      	pop	{r4, r5, r6, r7, pc}
    6142:	20f7      	movs	r0, #247	; 0xf7
    6144:	00c0      	lsls	r0, r0, #3
    6146:	ab02      	add	r3, sp, #8
    6148:	469c      	mov	ip, r3
    614a:	4460      	add	r0, ip
    614c:	4b11      	ldr	r3, [pc, #68]	; (6194 <ecc_mul+0x1ac>)
    614e:	4798      	blx	r3
    6150:	e772      	b.n	6038 <ecc_mul+0x50>
    6152:	46c0      	nop			; (mov r8, r8)
    6154:	fffff724 	.word	0xfffff724
    6158:	00006f89 	.word	0x00006f89
    615c:	000057a9 	.word	0x000057a9
    6160:	000057ed 	.word	0x000057ed
    6164:	00004a35 	.word	0x00004a35
    6168:	00004a6d 	.word	0x00004a6d
    616c:	00005f1d 	.word	0x00005f1d
    6170:	00005dc9 	.word	0x00005dc9
    6174:	00004b4d 	.word	0x00004b4d
    6178:	00005461 	.word	0x00005461
    617c:	000054d9 	.word	0x000054d9
    6180:	00005699 	.word	0x00005699
    6184:	000052ed 	.word	0x000052ed
    6188:	00004805 	.word	0x00004805
    618c:	000008a8 	.word	0x000008a8
    6190:	000008dc 	.word	0x000008dc
    6194:	00005f9d 	.word	0x00005f9d

00006198 <CompressedPublicKeyGeneration>:
    6198:	b510      	push	{r4, lr}
    619a:	b090      	sub	sp, #64	; 0x40
    619c:	000c      	movs	r4, r1
    619e:	4669      	mov	r1, sp
    61a0:	4b04      	ldr	r3, [pc, #16]	; (61b4 <CompressedPublicKeyGeneration+0x1c>)
    61a2:	4798      	blx	r3
    61a4:	0021      	movs	r1, r4
    61a6:	4668      	mov	r0, sp
    61a8:	4b03      	ldr	r3, [pc, #12]	; (61b8 <CompressedPublicKeyGeneration+0x20>)
    61aa:	4798      	blx	r3
    61ac:	2001      	movs	r0, #1
    61ae:	b010      	add	sp, #64	; 0x40
    61b0:	bd10      	pop	{r4, pc}
    61b2:	46c0      	nop			; (mov r8, r8)
    61b4:	00005a29 	.word	0x00005a29
    61b8:	00003bed 	.word	0x00003bed

000061bc <CompressedKeyGeneration>:
    61bc:	b570      	push	{r4, r5, r6, lr}
    61be:	0006      	movs	r6, r0
    61c0:	000d      	movs	r5, r1
    61c2:	4b07      	ldr	r3, [pc, #28]	; (61e0 <CompressedKeyGeneration+0x24>)
    61c4:	4798      	blx	r3
    61c6:	0004      	movs	r4, r0
    61c8:	2801      	cmp	r0, #1
    61ca:	d006      	beq.n	61da <CompressedKeyGeneration+0x1e>
    61cc:	2108      	movs	r1, #8
    61ce:	0030      	movs	r0, r6
    61d0:	4e04      	ldr	r6, [pc, #16]	; (61e4 <CompressedKeyGeneration+0x28>)
    61d2:	47b0      	blx	r6
    61d4:	2108      	movs	r1, #8
    61d6:	0028      	movs	r0, r5
    61d8:	47b0      	blx	r6
    61da:	0020      	movs	r0, r4
    61dc:	bd70      	pop	{r4, r5, r6, pc}
    61de:	46c0      	nop			; (mov r8, r8)
    61e0:	00006199 	.word	0x00006199
    61e4:	000052d9 	.word	0x000052d9

000061e8 <CompressedSecretAgreement>:
    61e8:	b570      	push	{r4, r5, r6, lr}
    61ea:	b090      	sub	sp, #64	; 0x40
    61ec:	0006      	movs	r6, r0
    61ee:	0008      	movs	r0, r1
    61f0:	0015      	movs	r5, r2
    61f2:	7bcb      	ldrb	r3, [r1, #15]
    61f4:	2b7f      	cmp	r3, #127	; 0x7f
    61f6:	d830      	bhi.n	625a <CompressedSecretAgreement+0x72>
    61f8:	4669      	mov	r1, sp
    61fa:	4b19      	ldr	r3, [pc, #100]	; (6260 <CompressedSecretAgreement+0x78>)
    61fc:	4798      	blx	r3
    61fe:	0004      	movs	r4, r0
    6200:	2801      	cmp	r0, #1
    6202:	d006      	beq.n	6212 <CompressedSecretAgreement+0x2a>
    6204:	2108      	movs	r1, #8
    6206:	0028      	movs	r0, r5
    6208:	4b16      	ldr	r3, [pc, #88]	; (6264 <CompressedSecretAgreement+0x7c>)
    620a:	4798      	blx	r3
    620c:	0020      	movs	r0, r4
    620e:	b010      	add	sp, #64	; 0x40
    6210:	bd70      	pop	{r4, r5, r6, pc}
    6212:	2301      	movs	r3, #1
    6214:	466a      	mov	r2, sp
    6216:	0031      	movs	r1, r6
    6218:	4668      	mov	r0, sp
    621a:	4e13      	ldr	r6, [pc, #76]	; (6268 <CompressedSecretAgreement+0x80>)
    621c:	47b0      	blx	r6
    621e:	2800      	cmp	r0, #0
    6220:	d101      	bne.n	6226 <CompressedSecretAgreement+0x3e>
    6222:	2400      	movs	r4, #0
    6224:	e7ee      	b.n	6204 <CompressedSecretAgreement+0x1c>
    6226:	2108      	movs	r1, #8
    6228:	4668      	mov	r0, sp
    622a:	4b10      	ldr	r3, [pc, #64]	; (626c <CompressedSecretAgreement+0x84>)
    622c:	4798      	blx	r3
    622e:	2800      	cmp	r0, #0
    6230:	d105      	bne.n	623e <CompressedSecretAgreement+0x56>
    6232:	2220      	movs	r2, #32
    6234:	a908      	add	r1, sp, #32
    6236:	0028      	movs	r0, r5
    6238:	4b0d      	ldr	r3, [pc, #52]	; (6270 <CompressedSecretAgreement+0x88>)
    623a:	4798      	blx	r3
    623c:	e7e6      	b.n	620c <CompressedSecretAgreement+0x24>
    623e:	2107      	movs	r1, #7
    6240:	a809      	add	r0, sp, #36	; 0x24
    6242:	4b0a      	ldr	r3, [pc, #40]	; (626c <CompressedSecretAgreement+0x84>)
    6244:	4798      	blx	r3
    6246:	2800      	cmp	r0, #0
    6248:	d0f3      	beq.n	6232 <CompressedSecretAgreement+0x4a>
    624a:	9908      	ldr	r1, [sp, #32]
    624c:	1e4b      	subs	r3, r1, #1
    624e:	2201      	movs	r2, #1
    6250:	1a52      	subs	r2, r2, r1
    6252:	4313      	orrs	r3, r2
    6254:	d4ed      	bmi.n	6232 <CompressedSecretAgreement+0x4a>
    6256:	2407      	movs	r4, #7
    6258:	e7d4      	b.n	6204 <CompressedSecretAgreement+0x1c>
    625a:	2406      	movs	r4, #6
    625c:	e7d2      	b.n	6204 <CompressedSecretAgreement+0x1c>
    625e:	46c0      	nop			; (mov r8, r8)
    6260:	00003c35 	.word	0x00003c35
    6264:	000052d9 	.word	0x000052d9
    6268:	00005fe9 	.word	0x00005fe9
    626c:	00003bc9 	.word	0x00003bc9
    6270:	00006f53 	.word	0x00006f53

00006274 <internalPermutation>:
    6274:	b5f0      	push	{r4, r5, r6, r7, lr}
    6276:	46de      	mov	lr, fp
    6278:	4657      	mov	r7, sl
    627a:	464e      	mov	r6, r9
    627c:	4645      	mov	r5, r8
    627e:	b5e0      	push	{r5, r6, r7, lr}
    6280:	b08b      	sub	sp, #44	; 0x2c
    6282:	0007      	movs	r7, r0
    6284:	2300      	movs	r3, #0
    6286:	9307      	str	r3, [sp, #28]
    6288:	e0c6      	b.n	6418 <internalPermutation+0x1a4>
    628a:	200f      	movs	r0, #15
    628c:	4002      	ands	r2, r0
    628e:	e03e      	b.n	630e <internalPermutation+0x9a>
    6290:	2301      	movs	r3, #1
    6292:	4223      	tst	r3, r4
    6294:	d003      	beq.n	629e <internalPermutation+0x2a>
    6296:	4661      	mov	r1, ip
    6298:	4051      	eors	r1, r2
    629a:	b2cb      	uxtb	r3, r1
    629c:	469c      	mov	ip, r3
    629e:	9204      	str	r2, [sp, #16]
    62a0:	2320      	movs	r3, #32
    62a2:	4698      	mov	r8, r3
    62a4:	4490      	add	r8, r2
    62a6:	4b83      	ldr	r3, [pc, #524]	; (64b4 <internalPermutation+0x240>)
    62a8:	4641      	mov	r1, r8
    62aa:	5c59      	ldrb	r1, [r3, r1]
    62ac:	290f      	cmp	r1, #15
    62ae:	d912      	bls.n	62d6 <internalPermutation+0x62>
    62b0:	0052      	lsls	r2, r2, #1
    62b2:	b2d1      	uxtb	r1, r2
    62b4:	2310      	movs	r3, #16
    62b6:	420b      	tst	r3, r1
    62b8:	d002      	beq.n	62c0 <internalPermutation+0x4c>
    62ba:	3b0d      	subs	r3, #13
    62bc:	4059      	eors	r1, r3
    62be:	b2c9      	uxtb	r1, r1
    62c0:	230f      	movs	r3, #15
    62c2:	4019      	ands	r1, r3
    62c4:	4b7b      	ldr	r3, [pc, #492]	; (64b4 <internalPermutation+0x240>)
    62c6:	4642      	mov	r2, r8
    62c8:	5499      	strb	r1, [r3, r2]
    62ca:	9b04      	ldr	r3, [sp, #16]
    62cc:	011a      	lsls	r2, r3, #4
    62ce:	4b79      	ldr	r3, [pc, #484]	; (64b4 <internalPermutation+0x240>)
    62d0:	4698      	mov	r8, r3
    62d2:	4442      	add	r2, r8
    62d4:	7091      	strb	r1, [r2, #2]
    62d6:	0864      	lsrs	r4, r4, #1
    62d8:	b2e4      	uxtb	r4, r4
    62da:	000a      	movs	r2, r1
    62dc:	e034      	b.n	6348 <internalPermutation+0xd4>
    62de:	9b01      	ldr	r3, [sp, #4]
    62e0:	0011      	movs	r1, r2
    62e2:	e03b      	b.n	635c <internalPermutation+0xe8>
    62e4:	0003      	movs	r3, r0
    62e6:	aa08      	add	r2, sp, #32
    62e8:	5cba      	ldrb	r2, [r7, r2]
    62ea:	4053      	eors	r3, r2
    62ec:	aa08      	add	r2, sp, #32
    62ee:	54bb      	strb	r3, [r7, r2]
    62f0:	3506      	adds	r5, #6
    62f2:	3601      	adds	r6, #1
    62f4:	2d24      	cmp	r5, #36	; 0x24
    62f6:	d03f      	beq.n	6378 <internalPermutation+0x104>
    62f8:	4653      	mov	r3, sl
    62fa:	18ea      	adds	r2, r5, r3
    62fc:	0fd3      	lsrs	r3, r2, #31
    62fe:	189b      	adds	r3, r3, r2
    6300:	105b      	asrs	r3, r3, #1
    6302:	465a      	mov	r2, fp
    6304:	5cd2      	ldrb	r2, [r2, r3]
    6306:	464b      	mov	r3, r9
    6308:	2b00      	cmp	r3, #0
    630a:	d1be      	bne.n	628a <internalPermutation+0x16>
    630c:	0912      	lsrs	r2, r2, #4
    630e:	7831      	ldrb	r1, [r6, #0]
    6310:	0108      	lsls	r0, r1, #4
    6312:	4b68      	ldr	r3, [pc, #416]	; (64b4 <internalPermutation+0x240>)
    6314:	181b      	adds	r3, r3, r0
    6316:	5c9b      	ldrb	r3, [r3, r2]
    6318:	2b0f      	cmp	r3, #15
    631a:	d9e4      	bls.n	62e6 <internalPermutation+0x72>
    631c:	230f      	movs	r3, #15
    631e:	0018      	movs	r0, r3
    6320:	4008      	ands	r0, r1
    6322:	4013      	ands	r3, r2
    6324:	4298      	cmp	r0, r3
    6326:	d206      	bcs.n	6336 <internalPermutation+0xc2>
    6328:	4051      	eors	r1, r2
    632a:	404a      	eors	r2, r1
    632c:	200f      	movs	r0, #15
    632e:	0003      	movs	r3, r0
    6330:	4013      	ands	r3, r2
    6332:	4051      	eors	r1, r2
    6334:	4008      	ands	r0, r1
    6336:	2b00      	cmp	r3, #0
    6338:	d0d5      	beq.n	62e6 <internalPermutation+0x72>
    633a:	2b01      	cmp	r3, #1
    633c:	d0d2      	beq.n	62e4 <internalPermutation+0x70>
    633e:	0002      	movs	r2, r0
    6340:	001c      	movs	r4, r3
    6342:	2100      	movs	r1, #0
    6344:	468c      	mov	ip, r1
    6346:	9301      	str	r3, [sp, #4]
    6348:	2c01      	cmp	r4, #1
    634a:	d9c8      	bls.n	62de <internalPermutation+0x6a>
    634c:	0111      	lsls	r1, r2, #4
    634e:	1861      	adds	r1, r4, r1
    6350:	b2c9      	uxtb	r1, r1
    6352:	4b58      	ldr	r3, [pc, #352]	; (64b4 <internalPermutation+0x240>)
    6354:	5c59      	ldrb	r1, [r3, r1]
    6356:	290f      	cmp	r1, #15
    6358:	d89a      	bhi.n	6290 <internalPermutation+0x1c>
    635a:	9b01      	ldr	r3, [sp, #4]
    635c:	4662      	mov	r2, ip
    635e:	404a      	eors	r2, r1
    6360:	0011      	movs	r1, r2
    6362:	220f      	movs	r2, #15
    6364:	4011      	ands	r1, r2
    6366:	4a53      	ldr	r2, [pc, #332]	; (64b4 <internalPermutation+0x240>)
    6368:	0104      	lsls	r4, r0, #4
    636a:	1914      	adds	r4, r2, r4
    636c:	54e1      	strb	r1, [r4, r3]
    636e:	011b      	lsls	r3, r3, #4
    6370:	18d2      	adds	r2, r2, r3
    6372:	5411      	strb	r1, [r2, r0]
    6374:	000b      	movs	r3, r1
    6376:	e7b6      	b.n	62e6 <internalPermutation+0x72>
    6378:	9b02      	ldr	r3, [sp, #8]
    637a:	3301      	adds	r3, #1
    637c:	9302      	str	r3, [sp, #8]
    637e:	9a03      	ldr	r2, [sp, #12]
    6380:	3206      	adds	r2, #6
    6382:	9203      	str	r2, [sp, #12]
    6384:	2b06      	cmp	r3, #6
    6386:	d00b      	beq.n	63a0 <internalPermutation+0x12c>
    6388:	9902      	ldr	r1, [sp, #8]
    638a:	000f      	movs	r7, r1
    638c:	2300      	movs	r3, #0
    638e:	aa08      	add	r2, sp, #32
    6390:	548b      	strb	r3, [r1, r2]
    6392:	9e03      	ldr	r6, [sp, #12]
    6394:	9d06      	ldr	r5, [sp, #24]
    6396:	33ff      	adds	r3, #255	; 0xff
    6398:	9a05      	ldr	r2, [sp, #20]
    639a:	401a      	ands	r2, r3
    639c:	4692      	mov	sl, r2
    639e:	e7ab      	b.n	62f8 <internalPermutation+0x84>
    63a0:	9b05      	ldr	r3, [sp, #20]
    63a2:	469c      	mov	ip, r3
    63a4:	464f      	mov	r7, r9
    63a6:	4650      	mov	r0, sl
    63a8:	2100      	movs	r1, #0
    63aa:	240f      	movs	r4, #15
    63ac:	465a      	mov	r2, fp
    63ae:	e00d      	b.n	63cc <internalPermutation+0x158>
    63b0:	0fc3      	lsrs	r3, r0, #31
    63b2:	181b      	adds	r3, r3, r0
    63b4:	105b      	asrs	r3, r3, #1
    63b6:	18d3      	adds	r3, r2, r3
    63b8:	781d      	ldrb	r5, [r3, #0]
    63ba:	43a5      	bics	r5, r4
    63bc:	ae08      	add	r6, sp, #32
    63be:	5d8e      	ldrb	r6, [r1, r6]
    63c0:	4335      	orrs	r5, r6
    63c2:	701d      	strb	r5, [r3, #0]
    63c4:	3101      	adds	r1, #1
    63c6:	3006      	adds	r0, #6
    63c8:	2906      	cmp	r1, #6
    63ca:	d00d      	beq.n	63e8 <internalPermutation+0x174>
    63cc:	2f00      	cmp	r7, #0
    63ce:	d1ef      	bne.n	63b0 <internalPermutation+0x13c>
    63d0:	0fc3      	lsrs	r3, r0, #31
    63d2:	181b      	adds	r3, r3, r0
    63d4:	105b      	asrs	r3, r3, #1
    63d6:	18d3      	adds	r3, r2, r3
    63d8:	781d      	ldrb	r5, [r3, #0]
    63da:	4025      	ands	r5, r4
    63dc:	ae08      	add	r6, sp, #32
    63de:	5d8e      	ldrb	r6, [r1, r6]
    63e0:	0136      	lsls	r6, r6, #4
    63e2:	4335      	orrs	r5, r6
    63e4:	701d      	strb	r5, [r3, #0]
    63e6:	e7ed      	b.n	63c4 <internalPermutation+0x150>
    63e8:	4693      	mov	fp, r2
    63ea:	2301      	movs	r3, #1
    63ec:	4698      	mov	r8, r3
    63ee:	44c4      	add	ip, r8
    63f0:	4663      	mov	r3, ip
    63f2:	2b06      	cmp	r3, #6
    63f4:	d00a      	beq.n	640c <internalPermutation+0x198>
    63f6:	4b30      	ldr	r3, [pc, #192]	; (64b8 <internalPermutation+0x244>)
    63f8:	9303      	str	r3, [sp, #12]
    63fa:	2300      	movs	r3, #0
    63fc:	9302      	str	r3, [sp, #8]
    63fe:	4667      	mov	r7, ip
    6400:	3301      	adds	r3, #1
    6402:	401f      	ands	r7, r3
    6404:	4663      	mov	r3, ip
    6406:	9305      	str	r3, [sp, #20]
    6408:	46b9      	mov	r9, r7
    640a:	e7bd      	b.n	6388 <internalPermutation+0x114>
    640c:	0017      	movs	r7, r2
    640e:	9b07      	ldr	r3, [sp, #28]
    6410:	3301      	adds	r3, #1
    6412:	9307      	str	r3, [sp, #28]
    6414:	2b0c      	cmp	r3, #12
    6416:	d046      	beq.n	64a6 <internalPermutation+0x232>
    6418:	4b28      	ldr	r3, [pc, #160]	; (64bc <internalPermutation+0x248>)
    641a:	9a07      	ldr	r2, [sp, #28]
    641c:	5cd3      	ldrb	r3, [r2, r3]
    641e:	4698      	mov	r8, r3
    6420:	4d27      	ldr	r5, [pc, #156]	; (64c0 <internalPermutation+0x24c>)
    6422:	2400      	movs	r4, #0
    6424:	4e27      	ldr	r6, [pc, #156]	; (64c4 <internalPermutation+0x250>)
    6426:	003b      	movs	r3, r7
    6428:	4647      	mov	r7, r8
    642a:	4698      	mov	r8, r3
    642c:	2106      	movs	r1, #6
    642e:	0020      	movs	r0, r4
    6430:	47b0      	blx	r6
    6432:	4440      	add	r0, r8
    6434:	782b      	ldrb	r3, [r5, #0]
    6436:	407b      	eors	r3, r7
    6438:	011b      	lsls	r3, r3, #4
    643a:	7802      	ldrb	r2, [r0, #0]
    643c:	4053      	eors	r3, r2
    643e:	7003      	strb	r3, [r0, #0]
    6440:	3412      	adds	r4, #18
    6442:	3501      	adds	r5, #1
    6444:	2c6c      	cmp	r4, #108	; 0x6c
    6446:	d1f1      	bne.n	642c <internalPermutation+0x1b8>
    6448:	4647      	mov	r7, r8
    644a:	4641      	mov	r1, r8
    644c:	4645      	mov	r5, r8
    644e:	3512      	adds	r5, #18
    6450:	481d      	ldr	r0, [pc, #116]	; (64c8 <internalPermutation+0x254>)
    6452:	3c5d      	subs	r4, #93	; 0x5d
    6454:	780a      	ldrb	r2, [r1, #0]
    6456:	0913      	lsrs	r3, r2, #4
    6458:	5cc3      	ldrb	r3, [r0, r3]
    645a:	011b      	lsls	r3, r3, #4
    645c:	4022      	ands	r2, r4
    645e:	5c82      	ldrb	r2, [r0, r2]
    6460:	4313      	orrs	r3, r2
    6462:	700b      	strb	r3, [r1, #0]
    6464:	3101      	adds	r1, #1
    6466:	428d      	cmp	r5, r1
    6468:	d1f4      	bne.n	6454 <internalPermutation+0x1e0>
    646a:	1cf9      	adds	r1, r7, #3
    646c:	2314      	movs	r3, #20
    646e:	2018      	movs	r0, #24
    6470:	001a      	movs	r2, r3
    6472:	780b      	ldrb	r3, [r1, #0]
    6474:	041b      	lsls	r3, r3, #16
    6476:	784c      	ldrb	r4, [r1, #1]
    6478:	0224      	lsls	r4, r4, #8
    647a:	4323      	orrs	r3, r4
    647c:	788c      	ldrb	r4, [r1, #2]
    647e:	4323      	orrs	r3, r4
    6480:	1a84      	subs	r4, r0, r2
    6482:	001d      	movs	r5, r3
    6484:	40a5      	lsls	r5, r4
    6486:	40d3      	lsrs	r3, r2
    6488:	432b      	orrs	r3, r5
    648a:	0c1c      	lsrs	r4, r3, #16
    648c:	700c      	strb	r4, [r1, #0]
    648e:	0a1c      	lsrs	r4, r3, #8
    6490:	704c      	strb	r4, [r1, #1]
    6492:	708b      	strb	r3, [r1, #2]
    6494:	3103      	adds	r1, #3
    6496:	3a04      	subs	r2, #4
    6498:	2a00      	cmp	r2, #0
    649a:	d1ea      	bne.n	6472 <internalPermutation+0x1fe>
    649c:	9206      	str	r2, [sp, #24]
    649e:	2300      	movs	r3, #0
    64a0:	469c      	mov	ip, r3
    64a2:	46bb      	mov	fp, r7
    64a4:	e7a7      	b.n	63f6 <internalPermutation+0x182>
    64a6:	b00b      	add	sp, #44	; 0x2c
    64a8:	bc3c      	pop	{r2, r3, r4, r5}
    64aa:	4690      	mov	r8, r2
    64ac:	4699      	mov	r9, r3
    64ae:	46a2      	mov	sl, r4
    64b0:	46ab      	mov	fp, r5
    64b2:	bdf0      	pop	{r4, r5, r6, r7, pc}
    64b4:	200000f0 	.word	0x200000f0
    64b8:	0000ac38 	.word	0x0000ac38
    64bc:	0000ac64 	.word	0x0000ac64
    64c0:	0000ac5c 	.word	0x0000ac5c
    64c4:	00006c81 	.word	0x00006c81
    64c8:	0000ac70 	.word	0x0000ac70

000064cc <photon128>:
    64cc:	b5f0      	push	{r4, r5, r6, r7, lr}
    64ce:	46d6      	mov	lr, sl
    64d0:	464f      	mov	r7, r9
    64d2:	4646      	mov	r6, r8
    64d4:	b5c0      	push	{r6, r7, lr}
    64d6:	b088      	sub	sp, #32
    64d8:	0005      	movs	r5, r0
    64da:	9001      	str	r0, [sp, #4]
    64dc:	4689      	mov	r9, r1
    64de:	0016      	movs	r6, r2
    64e0:	ac03      	add	r4, sp, #12
    64e2:	220f      	movs	r2, #15
    64e4:	2100      	movs	r1, #0
    64e6:	0020      	movs	r0, r4
    64e8:	4b30      	ldr	r3, [pc, #192]	; (65ac <photon128+0xe0>)
    64ea:	4798      	blx	r3
    64ec:	2320      	movs	r3, #32
    64ee:	73e3      	strb	r3, [r4, #15]
    64f0:	3b10      	subs	r3, #16
    64f2:	7423      	strb	r3, [r4, #16]
    64f4:	7463      	strb	r3, [r4, #17]
    64f6:	464b      	mov	r3, r9
    64f8:	0fdb      	lsrs	r3, r3, #31
    64fa:	444b      	add	r3, r9
    64fc:	105b      	asrs	r3, r3, #1
    64fe:	469a      	mov	sl, r3
    6500:	2b00      	cmp	r3, #0
    6502:	dd49      	ble.n	6598 <photon128+0xcc>
    6504:	005b      	lsls	r3, r3, #1
    6506:	46a8      	mov	r8, r5
    6508:	4498      	add	r8, r3
    650a:	ac03      	add	r4, sp, #12
    650c:	4f28      	ldr	r7, [pc, #160]	; (65b0 <photon128+0xe4>)
    650e:	7823      	ldrb	r3, [r4, #0]
    6510:	782a      	ldrb	r2, [r5, #0]
    6512:	4053      	eors	r3, r2
    6514:	7023      	strb	r3, [r4, #0]
    6516:	7863      	ldrb	r3, [r4, #1]
    6518:	786a      	ldrb	r2, [r5, #1]
    651a:	4053      	eors	r3, r2
    651c:	7063      	strb	r3, [r4, #1]
    651e:	0020      	movs	r0, r4
    6520:	47b8      	blx	r7
    6522:	3502      	adds	r5, #2
    6524:	4545      	cmp	r5, r8
    6526:	d1f2      	bne.n	650e <photon128+0x42>
    6528:	4653      	mov	r3, sl
    652a:	464a      	mov	r2, r9
    652c:	07d2      	lsls	r2, r2, #31
    652e:	d535      	bpl.n	659c <photon128+0xd0>
    6530:	aa03      	add	r2, sp, #12
    6532:	005b      	lsls	r3, r3, #1
    6534:	9901      	ldr	r1, [sp, #4]
    6536:	5c5b      	ldrb	r3, [r3, r1]
    6538:	7811      	ldrb	r1, [r2, #0]
    653a:	404b      	eors	r3, r1
    653c:	7013      	strb	r3, [r2, #0]
    653e:	7851      	ldrb	r1, [r2, #1]
    6540:	2380      	movs	r3, #128	; 0x80
    6542:	425b      	negs	r3, r3
    6544:	404b      	eors	r3, r1
    6546:	7053      	strb	r3, [r2, #1]
    6548:	ac03      	add	r4, sp, #12
    654a:	0020      	movs	r0, r4
    654c:	4b18      	ldr	r3, [pc, #96]	; (65b0 <photon128+0xe4>)
    654e:	4798      	blx	r3
    6550:	2210      	movs	r2, #16
    6552:	2100      	movs	r1, #0
    6554:	0030      	movs	r0, r6
    6556:	4b15      	ldr	r3, [pc, #84]	; (65ac <photon128+0xe0>)
    6558:	4798      	blx	r3
    655a:	7833      	ldrb	r3, [r6, #0]
    655c:	7822      	ldrb	r2, [r4, #0]
    655e:	4313      	orrs	r3, r2
    6560:	7033      	strb	r3, [r6, #0]
    6562:	7873      	ldrb	r3, [r6, #1]
    6564:	7862      	ldrb	r2, [r4, #1]
    6566:	4313      	orrs	r3, r2
    6568:	7073      	strb	r3, [r6, #1]
    656a:	1cb4      	adds	r4, r6, #2
    656c:	3610      	adds	r6, #16
    656e:	ad03      	add	r5, sp, #12
    6570:	4f0f      	ldr	r7, [pc, #60]	; (65b0 <photon128+0xe4>)
    6572:	0028      	movs	r0, r5
    6574:	47b8      	blx	r7
    6576:	7823      	ldrb	r3, [r4, #0]
    6578:	782a      	ldrb	r2, [r5, #0]
    657a:	4313      	orrs	r3, r2
    657c:	7023      	strb	r3, [r4, #0]
    657e:	7863      	ldrb	r3, [r4, #1]
    6580:	786a      	ldrb	r2, [r5, #1]
    6582:	4313      	orrs	r3, r2
    6584:	7063      	strb	r3, [r4, #1]
    6586:	3402      	adds	r4, #2
    6588:	42b4      	cmp	r4, r6
    658a:	d1f2      	bne.n	6572 <photon128+0xa6>
    658c:	b008      	add	sp, #32
    658e:	bc1c      	pop	{r2, r3, r4}
    6590:	4690      	mov	r8, r2
    6592:	4699      	mov	r9, r3
    6594:	46a2      	mov	sl, r4
    6596:	bdf0      	pop	{r4, r5, r6, r7, pc}
    6598:	2300      	movs	r3, #0
    659a:	e7c6      	b.n	652a <photon128+0x5e>
    659c:	aa03      	add	r2, sp, #12
    659e:	7811      	ldrb	r1, [r2, #0]
    65a0:	2380      	movs	r3, #128	; 0x80
    65a2:	425b      	negs	r3, r3
    65a4:	404b      	eors	r3, r1
    65a6:	7013      	strb	r3, [r2, #0]
    65a8:	e7ce      	b.n	6548 <photon128+0x7c>
    65aa:	46c0      	nop			; (mov r8, r8)
    65ac:	00006f89 	.word	0x00006f89
    65b0:	00006275 	.word	0x00006275

000065b4 <usart_serial_getchar>:
 * \param[out]    c       Destination for the read character.
 */
static inline void usart_serial_getchar(
		struct usart_module *const module,
		uint8_t *c)
{
    65b4:	b570      	push	{r4, r5, r6, lr}
    65b6:	b082      	sub	sp, #8
    65b8:	0005      	movs	r5, r0
    65ba:	000e      	movs	r6, r1
	uint16_t temp = 0;
    65bc:	2200      	movs	r2, #0
    65be:	466b      	mov	r3, sp
    65c0:	80da      	strh	r2, [r3, #6]

	while(STATUS_OK != usart_read_wait(module, &temp));
    65c2:	4c06      	ldr	r4, [pc, #24]	; (65dc <usart_serial_getchar+0x28>)
    65c4:	466b      	mov	r3, sp
    65c6:	1d99      	adds	r1, r3, #6
    65c8:	0028      	movs	r0, r5
    65ca:	47a0      	blx	r4
    65cc:	2800      	cmp	r0, #0
    65ce:	d1f9      	bne.n	65c4 <usart_serial_getchar+0x10>

	*c = temp;
    65d0:	466b      	mov	r3, sp
    65d2:	3306      	adds	r3, #6
    65d4:	881b      	ldrh	r3, [r3, #0]
    65d6:	7033      	strb	r3, [r6, #0]
}
    65d8:	b002      	add	sp, #8
    65da:	bd70      	pop	{r4, r5, r6, pc}
    65dc:	00003197 	.word	0x00003197

000065e0 <usart_serial_putchar>:
{
    65e0:	b570      	push	{r4, r5, r6, lr}
    65e2:	0005      	movs	r5, r0
	while(STATUS_OK !=usart_write_wait(module, c));
    65e4:	b28c      	uxth	r4, r1
    65e6:	4e03      	ldr	r6, [pc, #12]	; (65f4 <usart_serial_putchar+0x14>)
    65e8:	0021      	movs	r1, r4
    65ea:	0028      	movs	r0, r5
    65ec:	47b0      	blx	r6
    65ee:	2800      	cmp	r0, #0
    65f0:	d1fa      	bne.n	65e8 <usart_serial_putchar+0x8>
}
    65f2:	bd70      	pop	{r4, r5, r6, pc}
    65f4:	00003171 	.word	0x00003171

000065f8 <CAN0_Handler>:
	can_enable_interrupt(&can0_instance, CAN_PROTOCOL_ERROR_ARBITRATION
	| CAN_PROTOCOL_ERROR_DATA);
}
//! [can_init_setup]

void CAN0_Handler(void) {
    65f8:	b5f0      	push	{r4, r5, r6, r7, lr}
    65fa:	46c6      	mov	lr, r8
    65fc:	b500      	push	{lr}
    65fe:	b082      	sub	sp, #8
 * \param[in] module_inst  Pointer to the CAN software instance struct
 */
static inline uint32_t can_read_interrupt_status(
		struct can_module *const module_inst)
{
	return module_inst->hw->IR.reg;
    6600:	4b29      	ldr	r3, [pc, #164]	; (66a8 <CAN0_Handler+0xb0>)
    6602:	681b      	ldr	r3, [r3, #0]
    6604:	6d1a      	ldr	r2, [r3, #80]	; 0x50
	volatile uint32_t rx_buffer_index;
	volatile uint32_t status = can_read_interrupt_status(&can0_instance);
    6606:	9200      	str	r2, [sp, #0]
	//printf("Status = %i, Pubkey[2][6] = %02x",status,StoredPublicKeys[2][6]);

	if ((status & CAN_PROTOCOL_ERROR_ARBITRATION)
    6608:	9a00      	ldr	r2, [sp, #0]
    660a:	0112      	lsls	r2, r2, #4
    660c:	d40e      	bmi.n	662c <CAN0_Handler+0x34>
	|| (status & CAN_PROTOCOL_ERROR_DATA)) {
    660e:	9a00      	ldr	r2, [sp, #0]
    6610:	00d2      	lsls	r2, r2, #3
    6612:	d40b      	bmi.n	662c <CAN0_Handler+0x34>
		can_clear_interrupt_status(&can0_instance, CAN_PROTOCOL_ERROR_ARBITRATION
		| CAN_PROTOCOL_ERROR_DATA);
		//printf("Protocol error, please double check the clock in two boards. \r\n\r\n");
	}

	else if (status & CAN_RX_BUFFER_NEW_MESSAGE) {
    6614:	9a00      	ldr	r2, [sp, #0]
    6616:	0312      	lsls	r2, r2, #12
    6618:	d50b      	bpl.n	6632 <CAN0_Handler+0x3a>
 */
static inline void can_clear_interrupt_status(
		struct can_module *const module_inst,
		const enum can_interrupt_source source)
{
	module_inst->hw->IR.reg = source;
    661a:	2280      	movs	r2, #128	; 0x80
    661c:	0312      	lsls	r2, r2, #12
    661e:	651a      	str	r2, [r3, #80]	; 0x50
    6620:	2320      	movs	r3, #32
    6622:	425b      	negs	r3, r3
    6624:	4698      	mov	r8, r3
		can_clear_interrupt_status(&can0_instance,CAN_RX_BUFFER_NEW_MESSAGE);
		for (int i = 0; i < NETWORK_MAX_BUFFER_ELEMENTS; i++) {
    6626:	2400      	movs	r4, #0
			if (can_rx_get_buffer_status(&can0_instance, i)) {
				rx_buffer_index = i;
				can_rx_clear_buffer_status(&can0_instance, i);
				int temp_Buff = CAN0_rx_element_buff[rx_buffer_index].last_write;
    6628:	4d20      	ldr	r5, [pc, #128]	; (66ac <CAN0_Handler+0xb4>)
    662a:	e02f      	b.n	668c <CAN0_Handler+0x94>
    662c:	22c0      	movs	r2, #192	; 0xc0
    662e:	0552      	lsls	r2, r2, #21
    6630:	651a      	str	r2, [r3, #80]	; 0x50
				//  				}
				//  				printf("\r\n\r\n");
			}
		}
	}
}
    6632:	b002      	add	sp, #8
    6634:	bc04      	pop	{r2}
    6636:	4690      	mov	r8, r2
    6638:	bdf0      	pop	{r4, r5, r6, r7, pc}
		if (module_inst->hw->NDAT2.reg & (1 << index)) {
    663a:	4b1b      	ldr	r3, [pc, #108]	; (66a8 <CAN0_Handler+0xb0>)
    663c:	681a      	ldr	r2, [r3, #0]
    663e:	239c      	movs	r3, #156	; 0x9c
    6640:	58d0      	ldr	r0, [r2, r3]
    6642:	3b9b      	subs	r3, #155	; 0x9b
    6644:	4646      	mov	r6, r8
    6646:	40b3      	lsls	r3, r6
			if (can_rx_get_buffer_status(&can0_instance, i)) {
    6648:	4203      	tst	r3, r0
    664a:	d019      	beq.n	6680 <CAN0_Handler+0x88>
				rx_buffer_index = i;
    664c:	9401      	str	r4, [sp, #4]
		module_inst->hw->NDAT2.reg = (1 << index);
    664e:	219c      	movs	r1, #156	; 0x9c
    6650:	5053      	str	r3, [r2, r1]
				int temp_Buff = CAN0_rx_element_buff[rx_buffer_index].last_write;
    6652:	9b01      	ldr	r3, [sp, #4]
    6654:	2691      	movs	r6, #145	; 0x91
    6656:	00b6      	lsls	r6, r6, #2
    6658:	4373      	muls	r3, r6
    665a:	5d5f      	ldrb	r7, [r3, r5]
				can_get_rx_buffer_element(&can0_instance, &(CAN0_rx_element_buff[rx_buffer_index].buffers[temp_Buff]),
    665c:	9901      	ldr	r1, [sp, #4]
    665e:	9a01      	ldr	r2, [sp, #4]
    6660:	4371      	muls	r1, r6
    6662:	3104      	adds	r1, #4
    6664:	00fb      	lsls	r3, r7, #3
    6666:	19db      	adds	r3, r3, r7
    6668:	00db      	lsls	r3, r3, #3
    666a:	18c9      	adds	r1, r1, r3
    666c:	1949      	adds	r1, r1, r5
    666e:	480e      	ldr	r0, [pc, #56]	; (66a8 <CAN0_Handler+0xb0>)
    6670:	4b0f      	ldr	r3, [pc, #60]	; (66b0 <CAN0_Handler+0xb8>)
    6672:	4798      	blx	r3
				CAN0_rx_element_buff[rx_buffer_index].last_write = (temp_Buff + 1) % NETWORK_MAX_BUFFER_ELEMENTS;
    6674:	9b01      	ldr	r3, [sp, #4]
    6676:	435e      	muls	r6, r3
    6678:	3701      	adds	r7, #1
    667a:	2307      	movs	r3, #7
    667c:	401f      	ands	r7, r3
    667e:	5577      	strb	r7, [r6, r5]
		for (int i = 0; i < NETWORK_MAX_BUFFER_ELEMENTS; i++) {
    6680:	3401      	adds	r4, #1
    6682:	2301      	movs	r3, #1
    6684:	469c      	mov	ip, r3
    6686:	44e0      	add	r8, ip
    6688:	2c08      	cmp	r4, #8
    668a:	d0d2      	beq.n	6632 <CAN0_Handler+0x3a>
	if (index < 32) {
    668c:	2c1f      	cmp	r4, #31
    668e:	d8d4      	bhi.n	663a <CAN0_Handler+0x42>
		if (module_inst->hw->NDAT1.reg & (1 << index)) {
    6690:	4b05      	ldr	r3, [pc, #20]	; (66a8 <CAN0_Handler+0xb0>)
    6692:	681a      	ldr	r2, [r3, #0]
    6694:	2398      	movs	r3, #152	; 0x98
    6696:	58d0      	ldr	r0, [r2, r3]
    6698:	3b97      	subs	r3, #151	; 0x97
    669a:	40a3      	lsls	r3, r4
			if (can_rx_get_buffer_status(&can0_instance, i)) {
    669c:	4203      	tst	r3, r0
    669e:	d0ef      	beq.n	6680 <CAN0_Handler+0x88>
				rx_buffer_index = i;
    66a0:	9401      	str	r4, [sp, #4]
		module_inst->hw->NDAT1.reg = (1 << index);
    66a2:	2198      	movs	r1, #152	; 0x98
    66a4:	5053      	str	r3, [r2, r1]
    66a6:	e7d4      	b.n	6652 <CAN0_Handler+0x5a>
    66a8:	200026bc 	.word	0x200026bc
    66ac:	200026c0 	.word	0x200026c0
    66b0:	00002875 	.word	0x00002875

000066b4 <client_discover>:

void hid_get(struct hardware_id* hid) {
	hid->data = HARDWARE_ID_VAL;
}

struct node* client_discover(struct node* node_table, int max_nodes, int* num_nodes, struct node* parent_info, struct node* broadcast_info) {
    66b4:	b5f0      	push	{r4, r5, r6, r7, lr}
    66b6:	46ce      	mov	lr, r9
    66b8:	4647      	mov	r7, r8
    66ba:	b580      	push	{r7, lr}
    66bc:	b0ad      	sub	sp, #180	; 0xb4
    66be:	0006      	movs	r6, r0
    66c0:	001f      	movs	r7, r3
	struct node_msg_discover_init disc_init;
	debug_print("Waiting for init\n");
    66c2:	4d26      	ldr	r5, [pc, #152]	; (675c <client_discover+0xa8>)
    66c4:	6829      	ldr	r1, [r5, #0]
    66c6:	4826      	ldr	r0, [pc, #152]	; (6760 <client_discover+0xac>)
    66c8:	4b26      	ldr	r3, [pc, #152]	; (6764 <client_discover+0xb0>)
    66ca:	4699      	mov	r9, r3
    66cc:	4798      	blx	r3
	node_msg_wait(broadcast_info, &disc_init);
    66ce:	a91e      	add	r1, sp, #120	; 0x78
    66d0:	9834      	ldr	r0, [sp, #208]	; 0xd0
    66d2:	4b25      	ldr	r3, [pc, #148]	; (6768 <client_discover+0xb4>)
    66d4:	4798      	blx	r3
	memmove((uint8_t*)&parent_info->hid, (uint8_t*)&disc_init.hid, sizeof(struct hardware_id));
    66d6:	0038      	movs	r0, r7
    66d8:	3014      	adds	r0, #20
    66da:	2204      	movs	r2, #4
    66dc:	a920      	add	r1, sp, #128	; 0x80
    66de:	4b23      	ldr	r3, [pc, #140]	; (676c <client_discover+0xb8>)
    66e0:	4798      	blx	r3
	hid->data = HARDWARE_ID_VAL;
    66e2:	4b23      	ldr	r3, [pc, #140]	; (6770 <client_discover+0xbc>)
    66e4:	681b      	ldr	r3, [r3, #0]
    66e6:	931d      	str	r3, [sp, #116]	; 0x74

	struct hardware_id my_hid;
	hid_get(&my_hid);

	struct node_msg_discover_response disc_resp;
	memmove((uint8_t*)&disc_resp.hid, (uint8_t*)&my_hid, sizeof(struct hardware_id));
    66e8:	9311      	str	r3, [sp, #68]	; 0x44
	disc_resp.capability = my_node_type;
    66ea:	ab0f      	add	r3, sp, #60	; 0x3c
    66ec:	4a21      	ldr	r2, [pc, #132]	; (6774 <client_discover+0xc0>)
    66ee:	7812      	ldrb	r2, [r2, #0]
    66f0:	731a      	strb	r2, [r3, #12]
	node_msg_send(broadcast_info, parent_info, NODE_CMD_DISC_RESP, &disc_resp);
    66f2:	2202      	movs	r2, #2
    66f4:	0039      	movs	r1, r7
    66f6:	9834      	ldr	r0, [sp, #208]	; 0xd0
    66f8:	4c1f      	ldr	r4, [pc, #124]	; (6778 <client_discover+0xc4>)
    66fa:	47a0      	blx	r4

	struct node_msg_discover_assign disc_asgn;
	debug_print("Waiting for assignment\n");
    66fc:	6829      	ldr	r1, [r5, #0]
    66fe:	481f      	ldr	r0, [pc, #124]	; (677c <client_discover+0xc8>)
    6700:	47c8      	blx	r9
	do {
		node_msg_wait(broadcast_info, &disc_asgn);
    6702:	4d19      	ldr	r5, [pc, #100]	; (6768 <client_discover+0xb4>)
	} while (memcmp(&disc_asgn.hid, &my_hid, sizeof(struct hardware_id)) != 0);
    6704:	4c1e      	ldr	r4, [pc, #120]	; (6780 <client_discover+0xcc>)
		node_msg_wait(broadcast_info, &disc_asgn);
    6706:	a901      	add	r1, sp, #4
    6708:	9834      	ldr	r0, [sp, #208]	; 0xd0
    670a:	47a8      	blx	r5
	} while (memcmp(&disc_asgn.hid, &my_hid, sizeof(struct hardware_id)) != 0);
    670c:	2204      	movs	r2, #4
    670e:	a91d      	add	r1, sp, #116	; 0x74
    6710:	a803      	add	r0, sp, #12
    6712:	47a0      	blx	r4
    6714:	2800      	cmp	r0, #0
    6716:	d1f6      	bne.n	6706 <client_discover+0x52>
	debug_print("Assigned addr value %d\n", disc_asgn.addr);
    6718:	ac01      	add	r4, sp, #4
    671a:	89a2      	ldrh	r2, [r4, #12]
    671c:	4b0f      	ldr	r3, [pc, #60]	; (675c <client_discover+0xa8>)
    671e:	6819      	ldr	r1, [r3, #0]
    6720:	4818      	ldr	r0, [pc, #96]	; (6784 <client_discover+0xd0>)
    6722:	4b10      	ldr	r3, [pc, #64]	; (6764 <client_discover+0xb0>)
    6724:	4798      	blx	r3

	// Fill in this node's information in the table
	struct node* my_info;
	my_info = &node_table[disc_asgn.addr];
    6726:	89a5      	ldrh	r5, [r4, #12]
    6728:	00ac      	lsls	r4, r5, #2
    672a:	1964      	adds	r4, r4, r5
    672c:	00e4      	lsls	r4, r4, #3
    672e:	1934      	adds	r4, r6, r4
	my_info->addr.hops[0] = disc_asgn.addr;
    6730:	6065      	str	r5, [r4, #4]
	my_info->addr.len = 1;
    6732:	2301      	movs	r3, #1
    6734:	6023      	str	r3, [r4, #0]
	memmove((uint8_t*)&my_info->hid, (uint8_t*)&my_hid, sizeof(struct hardware_id));
    6736:	0020      	movs	r0, r4
    6738:	3014      	adds	r0, #20
    673a:	2204      	movs	r2, #4
    673c:	a91d      	add	r1, sp, #116	; 0x74
    673e:	4b0b      	ldr	r3, [pc, #44]	; (676c <client_discover+0xb8>)
    6740:	4798      	blx	r3
	my_info->haddr.CAN_addr = disc_asgn.addr;
    6742:	8325      	strh	r5, [r4, #24]
	my_info->type = my_node_type;
    6744:	4b0b      	ldr	r3, [pc, #44]	; (6774 <client_discover+0xc0>)
    6746:	781b      	ldrb	r3, [r3, #0]
    6748:	61e3      	str	r3, [r4, #28]
	my_info->network = parent_info->network;
    674a:	6a7b      	ldr	r3, [r7, #36]	; 0x24
    674c:	6263      	str	r3, [r4, #36]	; 0x24
	return my_info;
}
    674e:	0020      	movs	r0, r4
    6750:	b02d      	add	sp, #180	; 0xb4
    6752:	bc0c      	pop	{r2, r3}
    6754:	4690      	mov	r8, r2
    6756:	4699      	mov	r9, r3
    6758:	bdf0      	pop	{r4, r5, r6, r7, pc}
    675a:	46c0      	nop			; (mov r8, r8)
    675c:	20002b98 	.word	0x20002b98
    6760:	0000ac80 	.word	0x0000ac80
    6764:	000070e9 	.word	0x000070e9
    6768:	00000491 	.word	0x00000491
    676c:	00006f53 	.word	0x00006f53
    6770:	00008498 	.word	0x00008498
    6774:	200001f0 	.word	0x200001f0
    6778:	000002c9 	.word	0x000002c9
    677c:	0000ac98 	.word	0x0000ac98
    6780:	00006f35 	.word	0x00006f35
    6784:	0000acb8 	.word	0x0000acb8

00006788 <main>:
		node_table[*num_nodes].haddr.CAN_addr = *num_nodes;
	}
}

int main(void)
{
    6788:	b5f0      	push	{r4, r5, r6, r7, lr}
    678a:	46de      	mov	lr, fp
    678c:	4657      	mov	r7, sl
    678e:	464e      	mov	r6, r9
    6790:	4645      	mov	r5, r8
    6792:	b5e0      	push	{r5, r6, r7, lr}
    6794:	b0b3      	sub	sp, #204	; 0xcc
	//uint8_t key;

//! [setup_init]
system_init();
    6796:	4bc0      	ldr	r3, [pc, #768]	; (6a98 <main+0x310>)
    6798:	4798      	blx	r3
{
	/* Sanity check arguments */
	Assert(config);

	/* Set default config in the config struct */
	config->data_order       = USART_DATAORDER_LSB;
    679a:	aa1b      	add	r2, sp, #108	; 0x6c
    679c:	2380      	movs	r3, #128	; 0x80
    679e:	05db      	lsls	r3, r3, #23
    67a0:	931b      	str	r3, [sp, #108]	; 0x6c
	config->transfer_mode    = USART_TRANSFER_ASYNCHRONOUSLY;
    67a2:	2300      	movs	r3, #0
    67a4:	6053      	str	r3, [r2, #4]
	config->parity           = USART_PARITY_NONE;
    67a6:	21ff      	movs	r1, #255	; 0xff
    67a8:	8111      	strh	r1, [r2, #8]
	config->stopbits         = USART_STOPBITS_1;
    67aa:	7293      	strb	r3, [r2, #10]
	config->character_size   = USART_CHARACTER_SIZE_8BIT;
    67ac:	72d3      	strb	r3, [r2, #11]
	config->baudrate         = 9600;
	config->receiver_enable  = true;
    67ae:	2401      	movs	r4, #1
    67b0:	39d3      	subs	r1, #211	; 0xd3
    67b2:	5454      	strb	r4, [r2, r1]
	config->transmitter_enable = true;
    67b4:	3101      	adds	r1, #1
    67b6:	5454      	strb	r4, [r2, r1]
	config->clock_polarity_inverted = false;
    67b8:	3101      	adds	r1, #1
    67ba:	5453      	strb	r3, [r2, r1]
	config->use_external_clock = false;
    67bc:	3101      	adds	r1, #1
    67be:	5453      	strb	r3, [r2, r1]
	config->ext_clock_freq   = 0;
    67c0:	6313      	str	r3, [r2, #48]	; 0x30
	config->mux_setting      = USART_RX_1_TX_2_XCK_3;
	config->run_in_standby   = false;
    67c2:	3105      	adds	r1, #5
    67c4:	5453      	strb	r3, [r2, r1]
	config->generator_source = GCLK_GENERATOR_0;
    67c6:	3101      	adds	r1, #1
    67c8:	5453      	strb	r3, [r2, r1]
	config->pinmux_pad0      = PINMUX_DEFAULT;
	config->pinmux_pad1      = PINMUX_DEFAULT;
	config->pinmux_pad2      = PINMUX_DEFAULT;
	config->pinmux_pad3      = PINMUX_DEFAULT;
#ifdef FEATURE_USART_OVER_SAMPLE
	config->sample_adjustment     = USART_SAMPLE_ADJUSTMENT_7_8_9;
    67ca:	6153      	str	r3, [r2, #20]
	config->sample_rate           = USART_SAMPLE_RATE_16X_ARITHMETIC;
    67cc:	2100      	movs	r1, #0
    67ce:	8213      	strh	r3, [r2, #16]
#endif
#ifdef FEATURE_USART_LIN_SLAVE
	config->lin_slave_enable      = false;
    67d0:	76d1      	strb	r1, [r2, #27]
#endif

#ifdef FEATURE_USART_LIN_MASTER
	config->lin_node = LIN_INVALID_MODE;
    67d2:	61d3      	str	r3, [r2, #28]
	config->lin_header_delay = LIN_MASTER_HEADER_DELAY_0;
    67d4:	8413      	strh	r3, [r2, #32]
	config->lin_break_length = LIN_MASTER_BREAK_LENGTH_13_BIT;
    67d6:	8453      	strh	r3, [r2, #34]	; 0x22
#endif

#ifdef FEATURE_USART_IMMEDIATE_BUFFER_OVERFLOW_NOTIFICATION
	config->immediate_buffer_overflow_notification  = false;
    67d8:	7611      	strb	r1, [r2, #24]
#endif
#ifdef FEATURE_USART_START_FRAME_DECTION
	config->start_frame_detection_enable            = false;
    67da:	3324      	adds	r3, #36	; 0x24
    67dc:	54d1      	strb	r1, [r2, r3]
#endif
#ifdef FEATURE_USART_IRDA
	config->encoding_format_enable                  = false;
    67de:	7651      	strb	r1, [r2, #25]
	config->receive_pulse_length                    = 19;
    67e0:	3b11      	subs	r3, #17
    67e2:	7693      	strb	r3, [r2, #26]
	config->iso7816_config.inhibit_nack             = ISO7816_INHIBIT_NACK_DISABLE;
	config->iso7816_config.successive_recv_nack     = ISO7816_SUCCESSIVE_RECV_NACK_DISABLE;
	config->iso7816_config.max_iterations           = 7;
#endif
#ifdef FEATURE_USART_COLLISION_DECTION
	config->collision_detection_enable              = false;
    67e4:	3313      	adds	r3, #19
    67e6:	54d1      	strb	r1, [r2, r3]
#endif
#ifdef FEATURE_USART_RS485
	config->rs485_guard_time = RS485_GUARD_TIME_0_BIT;
    67e8:	3b01      	subs	r3, #1
    67ea:	54d1      	strb	r1, [r2, r3]
	config_cdc.baudrate	 = 115200;
    67ec:	23e1      	movs	r3, #225	; 0xe1
    67ee:	025b      	lsls	r3, r3, #9
    67f0:	6293      	str	r3, [r2, #40]	; 0x28
	config_cdc.mux_setting = EDBG_CDC_SERCOM_MUX_SETTING;
    67f2:	23c4      	movs	r3, #196	; 0xc4
    67f4:	039b      	lsls	r3, r3, #14
    67f6:	60d3      	str	r3, [r2, #12]
	config_cdc.pinmux_pad0 = EDBG_CDC_SERCOM_PINMUX_PAD0;
    67f8:	2301      	movs	r3, #1
    67fa:	425b      	negs	r3, r3
    67fc:	6393      	str	r3, [r2, #56]	; 0x38
	config_cdc.pinmux_pad1 = EDBG_CDC_SERCOM_PINMUX_PAD1;
    67fe:	63d3      	str	r3, [r2, #60]	; 0x3c
	config_cdc.pinmux_pad2 = EDBG_CDC_SERCOM_PINMUX_PAD2;
    6800:	4ba6      	ldr	r3, [pc, #664]	; (6a9c <main+0x314>)
    6802:	6413      	str	r3, [r2, #64]	; 0x40
	config_cdc.pinmux_pad3 = EDBG_CDC_SERCOM_PINMUX_PAD3;
    6804:	4ba6      	ldr	r3, [pc, #664]	; (6aa0 <main+0x318>)
    6806:	6453      	str	r3, [r2, #68]	; 0x44
static inline void stdio_serial_init(
		struct usart_module *const module,
		usart_inst_t const hw,
		const struct usart_config *const config)
{
	stdio_base = (void *)module;
    6808:	4da6      	ldr	r5, [pc, #664]	; (6aa4 <main+0x31c>)
    680a:	4ba7      	ldr	r3, [pc, #668]	; (6aa8 <main+0x320>)
    680c:	601d      	str	r5, [r3, #0]
	ptr_put = (int (*)(void volatile*,char))&usart_serial_putchar;
    680e:	49a7      	ldr	r1, [pc, #668]	; (6aac <main+0x324>)
    6810:	4ba7      	ldr	r3, [pc, #668]	; (6ab0 <main+0x328>)
    6812:	6019      	str	r1, [r3, #0]
	ptr_get = (void (*)(void volatile*,char*))&usart_serial_getchar;
    6814:	49a7      	ldr	r1, [pc, #668]	; (6ab4 <main+0x32c>)
    6816:	4ba8      	ldr	r3, [pc, #672]	; (6ab8 <main+0x330>)
    6818:	6019      	str	r1, [r3, #0]
	if (usart_init(module, hw, config) == STATUS_OK) {
    681a:	49a8      	ldr	r1, [pc, #672]	; (6abc <main+0x334>)
    681c:	0028      	movs	r0, r5
    681e:	4ba8      	ldr	r3, [pc, #672]	; (6ac0 <main+0x338>)
    6820:	4798      	blx	r3

	usart_serial_init(module, hw, config);
# if defined(__GNUC__)
	// Specify that stdout and stdin should not be buffered.
	setbuf(stdout, NULL);
    6822:	4ba8      	ldr	r3, [pc, #672]	; (6ac4 <main+0x33c>)
    6824:	4698      	mov	r8, r3
    6826:	681b      	ldr	r3, [r3, #0]
    6828:	6898      	ldr	r0, [r3, #8]
    682a:	2100      	movs	r1, #0
    682c:	4ea6      	ldr	r6, [pc, #664]	; (6ac8 <main+0x340>)
    682e:	47b0      	blx	r6
	setbuf(stdin, NULL);
    6830:	4643      	mov	r3, r8
    6832:	681b      	ldr	r3, [r3, #0]
    6834:	6858      	ldr	r0, [r3, #4]
    6836:	2100      	movs	r1, #0
    6838:	47b0      	blx	r6
	/* Sanity check arguments */
	Assert(module);
	Assert(module->hw);

	/* Get a pointer to the hardware module instance */
	SercomUsart *const usart_hw = &(module->hw->USART);
    683a:	682e      	ldr	r6, [r5, #0]

#if USART_CALLBACK_MODE == true
	/* Enable Global interrupt for module */
	system_interrupt_enable(_sercom_get_interrupt_vector(module->hw));
    683c:	0030      	movs	r0, r6
    683e:	4ba3      	ldr	r3, [pc, #652]	; (6acc <main+0x344>)
    6840:	4798      	blx	r3
	NVIC->ISER[0] = (uint32_t)(1 << ((uint32_t)vector & 0x0000001f));
    6842:	231f      	movs	r3, #31
    6844:	4018      	ands	r0, r3
    6846:	4084      	lsls	r4, r0
    6848:	4ba1      	ldr	r3, [pc, #644]	; (6ad0 <main+0x348>)
    684a:	601c      	str	r4, [r3, #0]
	SercomUsart *const usart_hw = &(module->hw->USART);
    684c:	682b      	ldr	r3, [r5, #0]
	return (usart_hw->SYNCBUSY.reg);
    684e:	69da      	ldr	r2, [r3, #28]
	while (usart_is_syncing(module)) {
    6850:	2a00      	cmp	r2, #0
    6852:	d1fc      	bne.n	684e <main+0xc6>

	/* Wait until synchronization is complete */
	_usart_wait_for_sync(module);

	/* Enable USART module */
	usart_hw->CTRLA.reg |= SERCOM_USART_CTRLA_ENABLE;
    6854:	6833      	ldr	r3, [r6, #0]
    6856:	3202      	adds	r2, #2
    6858:	4690      	mov	r8, r2
    685a:	4313      	orrs	r3, r2
    685c:	6033      	str	r3, [r6, #0]
	/* Sanity check arguments */
	Assert(config);

	/* Default configuration values */
	config->mux_position = SYSTEM_PINMUX_GPIO;
	config->direction    = SYSTEM_PINMUX_PIN_DIR_INPUT;
    685e:	ae0d      	add	r6, sp, #52	; 0x34
    6860:	2400      	movs	r4, #0
    6862:	7074      	strb	r4, [r6, #1]
	config->input_pull   = SYSTEM_PINMUX_PIN_PULL_UP;
    6864:	2501      	movs	r5, #1
    6866:	70b5      	strb	r5, [r6, #2]
	config->powersave    = false;
    6868:	70f4      	strb	r4, [r6, #3]
	pin_config.mux_position = CAN_TX_MUX_SETTING;
    686a:	2306      	movs	r3, #6
    686c:	469a      	mov	sl, r3
    686e:	7033      	strb	r3, [r6, #0]
	system_pinmux_pin_set_config(CAN_TX_PIN, &pin_config);
    6870:	0031      	movs	r1, r6
    6872:	2018      	movs	r0, #24
    6874:	4b97      	ldr	r3, [pc, #604]	; (6ad4 <main+0x34c>)
    6876:	4699      	mov	r9, r3
    6878:	4798      	blx	r3
	pin_config.mux_position = CAN_RX_MUX_SETTING;
    687a:	4653      	mov	r3, sl
    687c:	7033      	strb	r3, [r6, #0]
	system_pinmux_pin_set_config(CAN_RX_PIN, &pin_config);
    687e:	0031      	movs	r1, r6
    6880:	2019      	movs	r0, #25
    6882:	47c8      	blx	r9
	config->clock_source = GCLK_GENERATOR_8;
    6884:	aa1b      	add	r2, sp, #108	; 0x6c
    6886:	2308      	movs	r3, #8
    6888:	7013      	strb	r3, [r2, #0]
	config->run_in_standby = false;
    688a:	7054      	strb	r4, [r2, #1]
	config->watchdog_configuration = 0x00;
    688c:	7094      	strb	r4, [r2, #2]
	config->transmit_pause = true;
    688e:	70d5      	strb	r5, [r2, #3]
	config->edge_filtering = true;
    6890:	7115      	strb	r5, [r2, #4]
	config->protocol_exception_handling = true;
    6892:	7155      	strb	r5, [r2, #5]
	config->automatic_retransmission = true;
    6894:	7195      	strb	r5, [r2, #6]
	config->clock_stop_request = false;
    6896:	71d4      	strb	r4, [r2, #7]
	config->clock_stop_acknowledge = false;
    6898:	7214      	strb	r4, [r2, #8]
	config->timestamp_prescaler = 0;
    689a:	7254      	strb	r4, [r2, #9]
	config->timeout_period = 0xFFFF;
    689c:	3b09      	subs	r3, #9
    689e:	8153      	strh	r3, [r2, #10]
	config->timeout_mode = CAN_TIMEOUT_CONTINUES;
    68a0:	7314      	strb	r4, [r2, #12]
	config->timeout_enable = false;
    68a2:	7354      	strb	r4, [r2, #13]
	config->tdc_enable = false;
    68a4:	7394      	strb	r4, [r2, #14]
	config->delay_compensation_offset = 0;
    68a6:	73d4      	strb	r4, [r2, #15]
	config->delay_compensation_filter_window_length = 0;
    68a8:	7414      	strb	r4, [r2, #16]
	config->nonmatching_frames_action_standard = CAN_NONMATCHING_FRAMES_REJECT;
    68aa:	4643      	mov	r3, r8
    68ac:	7453      	strb	r3, [r2, #17]
	config->nonmatching_frames_action_extended = CAN_NONMATCHING_FRAMES_REJECT;
    68ae:	7493      	strb	r3, [r2, #18]
	config->remote_frames_standard_reject = true;
    68b0:	74d5      	strb	r5, [r2, #19]
	config->remote_frames_extended_reject = true;
    68b2:	7515      	strb	r5, [r2, #20]
	config->extended_id_mask = 0x1FFFFFFF;
    68b4:	4b88      	ldr	r3, [pc, #544]	; (6ad8 <main+0x350>)
    68b6:	6193      	str	r3, [r2, #24]
	config->rx_fifo_0_overwrite = true;
    68b8:	7715      	strb	r5, [r2, #28]
	config->rx_fifo_0_watermark = 0;
    68ba:	7754      	strb	r4, [r2, #29]
	config->rx_fifo_1_overwrite = true;
    68bc:	7795      	strb	r5, [r2, #30]
	config->rx_fifo_1_watermark = 0;
    68be:	77d4      	strb	r4, [r2, #31]
	config->tx_queue_mode = false;
    68c0:	2320      	movs	r3, #32
    68c2:	54d4      	strb	r4, [r2, r3]
	config->tx_event_fifo_watermark = 0;
    68c4:	3301      	adds	r3, #1
    68c6:	54d4      	strb	r4, [r2, r3]
	can_init(&can0_instance, CAN_MODULE, &config_can);
    68c8:	4e84      	ldr	r6, [pc, #528]	; (6adc <main+0x354>)
    68ca:	4985      	ldr	r1, [pc, #532]	; (6ae0 <main+0x358>)
    68cc:	0030      	movs	r0, r6
    68ce:	4b85      	ldr	r3, [pc, #532]	; (6ae4 <main+0x35c>)
    68d0:	4798      	blx	r3
	can_enable_fd_mode(&can0_instance);
    68d2:	0030      	movs	r0, r6
    68d4:	4b84      	ldr	r3, [pc, #528]	; (6ae8 <main+0x360>)
    68d6:	4798      	blx	r3
	can_start(&can0_instance);
    68d8:	0030      	movs	r0, r6
    68da:	4b84      	ldr	r3, [pc, #528]	; (6aec <main+0x364>)
    68dc:	4798      	blx	r3
    68de:	4b7c      	ldr	r3, [pc, #496]	; (6ad0 <main+0x348>)
    68e0:	2280      	movs	r2, #128	; 0x80
    68e2:	0212      	lsls	r2, r2, #8
    68e4:	4690      	mov	r8, r2
    68e6:	601a      	str	r2, [r3, #0]
    68e8:	2280      	movs	r2, #128	; 0x80
    68ea:	0252      	lsls	r2, r2, #9
    68ec:	601a      	str	r2, [r3, #0]
	module_inst->hw->IE.reg |= source;
    68ee:	6832      	ldr	r2, [r6, #0]
    68f0:	6d51      	ldr	r1, [r2, #84]	; 0x54
    68f2:	23c0      	movs	r3, #192	; 0xc0
    68f4:	055b      	lsls	r3, r3, #21
    68f6:	430b      	orrs	r3, r1
    68f8:	6553      	str	r3, [r2, #84]	; 0x54
	/* Sanity check arguments */
	Assert(config);

	/* Default configuration values */
	config->direction  = PORT_PIN_DIR_INPUT;
	config->input_pull = PORT_PIN_PULL_UP;
    68fa:	a931      	add	r1, sp, #196	; 0xc4
    68fc:	704d      	strb	r5, [r1, #1]
	config->powersave  = false;
    68fe:	708c      	strb	r4, [r1, #2]
//! [configure_can]
configure_can();
//! [configure_can]
struct port_config config_port_pin;
port_get_config_defaults(&config_port_pin);
config_port_pin.direction = PORT_PIN_DIR_OUTPUT;
    6900:	700d      	strb	r5, [r1, #0]
port_pin_set_config(LED_0_PIN, &config_port_pin);
    6902:	200f      	movs	r0, #15
    6904:	4b7a      	ldr	r3, [pc, #488]	; (6af0 <main+0x368>)
    6906:	4798      	blx	r3
	PortGroup *const port_base = port_get_group_from_gpio_pin(gpio_pin);
	uint32_t pin_mask  = (1UL << (gpio_pin % 32));

	/* Set the pin to high or low atomically based on the requested level */
	if (level) {
		port_base->OUTSET.reg = pin_mask;
    6908:	2382      	movs	r3, #130	; 0x82
    690a:	05db      	lsls	r3, r3, #23
    690c:	4642      	mov	r2, r8
    690e:	619a      	str	r2, [r3, #24]
port_pin_set_output_level(LED_0_PIN, 1);
printf("Starting\r\n");
    6910:	4878      	ldr	r0, [pc, #480]	; (6af4 <main+0x36c>)
    6912:	4b79      	ldr	r3, [pc, #484]	; (6af8 <main+0x370>)
    6914:	4798      	blx	r3
node_my_name = myname;
    6916:	4b79      	ldr	r3, [pc, #484]	; (6afc <main+0x374>)
    6918:	681a      	ldr	r2, [r3, #0]
    691a:	4b79      	ldr	r3, [pc, #484]	; (6b00 <main+0x378>)
    691c:	601a      	str	r2, [r3, #0]
InitKWIDKeyData();
    691e:	4b79      	ldr	r3, [pc, #484]	; (6b04 <main+0x37c>)
    6920:	4798      	blx	r3
if (SYSTEM_NODE_TYPE == NODE_TYPE_MOTOR)
	initMotor();
else if (SYSTEM_NODE_TYPE == NODE_TYPE_FAN)
	initFan();
else if (SYSTEM_NODE_TYPE == NODE_TYPE_TSENS)
	initTSENS();
    6922:	4b79      	ldr	r3, [pc, #484]	; (6b08 <main+0x380>)
    6924:	4798      	blx	r3

struct network parent_net;
parent_net.can_instance = &can0_instance;
    6926:	962d      	str	r6, [sp, #180]	; 0xb4
parent_net.buff_num = CAN0_COMM_BUFF_INDEX;
    6928:	942f      	str	r4, [sp, #188]	; 0xbc
parent_net.broadcast_buff_num = CAN0_BROADCAST_INDEX;
    692a:	9530      	str	r5, [sp, #192]	; 0xc0
parent_net.rx_element_buff = CAN0_rx_element_buff;
    692c:	4b77      	ldr	r3, [pc, #476]	; (6b0c <main+0x384>)
    692e:	932e      	str	r3, [sp, #184]	; 0xb8
node_make_broadcast(&parent_net,&parent_broadcast_info);
    6930:	4c77      	ldr	r4, [pc, #476]	; (6b10 <main+0x388>)
    6932:	0021      	movs	r1, r4
    6934:	a82d      	add	r0, sp, #180	; 0xb4
    6936:	4b77      	ldr	r3, [pc, #476]	; (6b14 <main+0x38c>)
    6938:	4798      	blx	r3
node_make_parent(&parent_net,parent_info);
    693a:	4d77      	ldr	r5, [pc, #476]	; (6b18 <main+0x390>)
    693c:	6829      	ldr	r1, [r5, #0]
    693e:	a82d      	add	r0, sp, #180	; 0xb4
    6940:	4b76      	ldr	r3, [pc, #472]	; (6b1c <main+0x394>)
    6942:	4798      	blx	r3
network_start_listening(&parent_net,&parent_broadcast_info.haddr);
    6944:	0021      	movs	r1, r4
    6946:	3118      	adds	r1, #24
    6948:	a82d      	add	r0, sp, #180	; 0xb4
    694a:	4b75      	ldr	r3, [pc, #468]	; (6b20 <main+0x398>)
    694c:	4798      	blx	r3
my_parent_info = client_discover(parent_table, parent_max_nodes, &parent_num_nodes, parent_info, &parent_broadcast_info);
    694e:	682b      	ldr	r3, [r5, #0]
    6950:	4d74      	ldr	r5, [pc, #464]	; (6b24 <main+0x39c>)
    6952:	4a75      	ldr	r2, [pc, #468]	; (6b28 <main+0x3a0>)
    6954:	6811      	ldr	r1, [r2, #0]
    6956:	9400      	str	r4, [sp, #0]
    6958:	002a      	movs	r2, r5
    695a:	4874      	ldr	r0, [pc, #464]	; (6b2c <main+0x3a4>)
    695c:	4c74      	ldr	r4, [pc, #464]	; (6b30 <main+0x3a8>)
    695e:	47a0      	blx	r4
    6960:	4b74      	ldr	r3, [pc, #464]	; (6b34 <main+0x3ac>)
    6962:	6018      	str	r0, [r3, #0]
for (int i = 0; i < parent_num_nodes; i++) {
    6964:	682c      	ldr	r4, [r5, #0]
    6966:	2c00      	cmp	r4, #0
    6968:	dd0c      	ble.n	6984 <main+0x1fc>
    696a:	4a70      	ldr	r2, [pc, #448]	; (6b2c <main+0x3a4>)
    696c:	0011      	movs	r1, r2
    696e:	3120      	adds	r1, #32
    6970:	00a3      	lsls	r3, r4, #2
    6972:	191b      	adds	r3, r3, r4
    6974:	00db      	lsls	r3, r3, #3
    6976:	3320      	adds	r3, #32
    6978:	18d3      	adds	r3, r2, r3
	parent_table[i].encryption_data = &selfData.ASCON_data; // or whatever
    697a:	4a6f      	ldr	r2, [pc, #444]	; (6b38 <main+0x3b0>)
    697c:	600a      	str	r2, [r1, #0]
    697e:	3128      	adds	r1, #40	; 0x28
for (int i = 0; i < parent_num_nodes; i++) {
    6980:	4299      	cmp	r1, r3
    6982:	d1fb      	bne.n	697c <main+0x1f4>
}
parent_broadcast_info.encryption_data = &selfData.ASCON_data;
    6984:	4c62      	ldr	r4, [pc, #392]	; (6b10 <main+0x388>)
    6986:	4b6c      	ldr	r3, [pc, #432]	; (6b38 <main+0x3b0>)
    6988:	6223      	str	r3, [r4, #32]
my_parent_info->encryption_data = &selfData.ASCON_data;
    698a:	6203      	str	r3, [r0, #32]
network_start_listening(&parent_net,&my_parent_info->haddr);
    698c:	0001      	movs	r1, r0
    698e:	3118      	adds	r1, #24
    6990:	a82d      	add	r0, sp, #180	; 0xb4
    6992:	4b63      	ldr	r3, [pc, #396]	; (6b20 <main+0x398>)
    6994:	4798      	blx	r3
authToParent(my_parent_info,parent_info,&parent_broadcast_info);
    6996:	4b60      	ldr	r3, [pc, #384]	; (6b18 <main+0x390>)
    6998:	6819      	ldr	r1, [r3, #0]
    699a:	4b66      	ldr	r3, [pc, #408]	; (6b34 <main+0x3ac>)
    699c:	6818      	ldr	r0, [r3, #0]
    699e:	0022      	movs	r2, r4
    69a0:	4b66      	ldr	r3, [pc, #408]	; (6b3c <main+0x3b4>)
    69a2:	4798      	blx	r3
	} else {
		port_base->OUTCLR.reg = pin_mask;
    69a4:	2280      	movs	r2, #128	; 0x80
    69a6:	0212      	lsls	r2, r2, #8
    69a8:	2382      	movs	r3, #130	; 0x82
    69aa:	05db      	lsls	r3, r3, #23
    69ac:	615a      	str	r2, [r3, #20]
//my_parent_info->haddr.type = parent_net.type;

int test_val = 0;
while (1) {
	struct node_msg_generic msg;
	if (node_msg_check(&parent_broadcast_info, &msg)) {
    69ae:	4c64      	ldr	r4, [pc, #400]	; (6b40 <main+0x3b8>)
		if (msg.header.TTL == 0) {
			switch (msg.header.cmd) {
				case NODE_CMD_READ: {
					struct node_msg_data_addr* msg_read = (void*)&msg;
					debug_print("Received read request from %d for addr %x\n", msg_read->header.ret, msg_read->addr);
    69b0:	4b53      	ldr	r3, [pc, #332]	; (6b00 <main+0x378>)
    69b2:	4698      	mov	r8, r3
    69b4:	e02d      	b.n	6a12 <main+0x28a>
    69b6:	ae0d      	add	r6, sp, #52	; 0x34
    69b8:	7972      	ldrb	r2, [r6, #5]
    69ba:	9b0f      	ldr	r3, [sp, #60]	; 0x3c
    69bc:	4641      	mov	r1, r8
    69be:	6809      	ldr	r1, [r1, #0]
    69c0:	4860      	ldr	r0, [pc, #384]	; (6b44 <main+0x3bc>)
    69c2:	4d61      	ldr	r5, [pc, #388]	; (6b48 <main+0x3c0>)
    69c4:	47a8      	blx	r5
							result = test_val;
							break;
						}
					}
					else if (SYSTEM_NODE_TYPE == NODE_TYPE_TSENS) {
						switch (msg_read->addr) {
    69c6:	68b3      	ldr	r3, [r6, #8]
    69c8:	2b01      	cmp	r3, #1
    69ca:	d05c      	beq.n	6a86 <main+0x2fe>
    69cc:	2b00      	cmp	r3, #0
    69ce:	d056      	beq.n	6a7e <main+0x2f6>
    69d0:	2b02      	cmp	r3, #2
    69d2:	d101      	bne.n	69d8 <main+0x250>
							break;
							case 1:
							result = get_tsens_offset();
							break;
							case 2:
							result = test_val;
    69d4:	2300      	movs	r3, #0
    69d6:	469b      	mov	fp, r3
							break;
						}
					}
					struct node source;
					node_make_source_from_msg(my_parent_info->network, &source, parent_table, parent_num_nodes, msg_read);
    69d8:	4b52      	ldr	r3, [pc, #328]	; (6b24 <main+0x39c>)
    69da:	681b      	ldr	r3, [r3, #0]
    69dc:	4d55      	ldr	r5, [pc, #340]	; (6b34 <main+0x3ac>)
    69de:	682a      	ldr	r2, [r5, #0]
    69e0:	6a50      	ldr	r0, [r2, #36]	; 0x24
    69e2:	ae0d      	add	r6, sp, #52	; 0x34
    69e4:	9600      	str	r6, [sp, #0]
    69e6:	4a51      	ldr	r2, [pc, #324]	; (6b2c <main+0x3a4>)
    69e8:	a903      	add	r1, sp, #12
    69ea:	4f58      	ldr	r7, [pc, #352]	; (6b4c <main+0x3c4>)
    69ec:	47b8      	blx	r7

					struct node_msg_data_addr_value msg_read_resp;
					msg_read_resp.addr = msg_read->addr;
    69ee:	68b3      	ldr	r3, [r6, #8]
    69f0:	931d      	str	r3, [sp, #116]	; 0x74
					msg_read_resp.value = result;
    69f2:	465a      	mov	r2, fp
    69f4:	921e      	str	r2, [sp, #120]	; 0x78
					debug_print("Sending response to %d, addr %x, data %x\n", msg_read->header.ret, msg_read_resp.addr, msg_read_resp.value);
    69f6:	7972      	ldrb	r2, [r6, #5]
    69f8:	4941      	ldr	r1, [pc, #260]	; (6b00 <main+0x378>)
    69fa:	6809      	ldr	r1, [r1, #0]
    69fc:	4658      	mov	r0, fp
    69fe:	9000      	str	r0, [sp, #0]
    6a00:	4853      	ldr	r0, [pc, #332]	; (6b50 <main+0x3c8>)
    6a02:	4e51      	ldr	r6, [pc, #324]	; (6b48 <main+0x3c0>)
    6a04:	47b0      	blx	r6
					node_msg_send(my_parent_info, &source, NODE_CMD_READ_RESP, &msg_read_resp);
    6a06:	6828      	ldr	r0, [r5, #0]
    6a08:	ab1b      	add	r3, sp, #108	; 0x6c
    6a0a:	220d      	movs	r2, #13
    6a0c:	a903      	add	r1, sp, #12
    6a0e:	4e51      	ldr	r6, [pc, #324]	; (6b54 <main+0x3cc>)
    6a10:	47b0      	blx	r6
	if (node_msg_check(&parent_broadcast_info, &msg)) {
    6a12:	a90d      	add	r1, sp, #52	; 0x34
    6a14:	483e      	ldr	r0, [pc, #248]	; (6b10 <main+0x388>)
    6a16:	47a0      	blx	r4
    6a18:	2800      	cmp	r0, #0
    6a1a:	d0fa      	beq.n	6a12 <main+0x28a>
		if (msg.header.TTL == 0) {
    6a1c:	ab0d      	add	r3, sp, #52	; 0x34
    6a1e:	791b      	ldrb	r3, [r3, #4]
    6a20:	2b00      	cmp	r3, #0
    6a22:	d1f6      	bne.n	6a12 <main+0x28a>
			switch (msg.header.cmd) {
    6a24:	ab0d      	add	r3, sp, #52	; 0x34
    6a26:	799b      	ldrb	r3, [r3, #6]
    6a28:	2b0c      	cmp	r3, #12
    6a2a:	d0c4      	beq.n	69b6 <main+0x22e>
    6a2c:	2b0e      	cmp	r3, #14
    6a2e:	d1f0      	bne.n	6a12 <main+0x28a>
					break;
				}
				
				case NODE_CMD_WRITE: {
					struct node_msg_data_addr_value* msg_write = (void*)&msg;
					debug_print("Received write request from %d for addr %x, data %x\n", msg_write->header.ret, msg_write->addr, msg_write->value);
    6a30:	ae0d      	add	r6, sp, #52	; 0x34
    6a32:	7972      	ldrb	r2, [r6, #5]
    6a34:	4b32      	ldr	r3, [pc, #200]	; (6b00 <main+0x378>)
    6a36:	6819      	ldr	r1, [r3, #0]
    6a38:	9b10      	ldr	r3, [sp, #64]	; 0x40
    6a3a:	9300      	str	r3, [sp, #0]
    6a3c:	9b0f      	ldr	r3, [sp, #60]	; 0x3c
    6a3e:	4846      	ldr	r0, [pc, #280]	; (6b58 <main+0x3d0>)
    6a40:	4d41      	ldr	r5, [pc, #260]	; (6b48 <main+0x3c0>)
    6a42:	47a8      	blx	r5
							result = test_val;
							break;
						}
					}
					else if (SYSTEM_NODE_TYPE == NODE_TYPE_TSENS) {
						switch (msg_write->addr) {
    6a44:	68b3      	ldr	r3, [r6, #8]
    6a46:	2b00      	cmp	r3, #0
    6a48:	d021      	beq.n	6a8e <main+0x306>
							result = test_val;
							break;
						}
					}
					struct node source;
					node_make_source_from_msg(my_parent_info->network, &source, parent_table, parent_num_nodes, msg_write);
    6a4a:	4b36      	ldr	r3, [pc, #216]	; (6b24 <main+0x39c>)
    6a4c:	681b      	ldr	r3, [r3, #0]
    6a4e:	4d39      	ldr	r5, [pc, #228]	; (6b34 <main+0x3ac>)
    6a50:	682a      	ldr	r2, [r5, #0]
    6a52:	6a50      	ldr	r0, [r2, #36]	; 0x24
    6a54:	ae0d      	add	r6, sp, #52	; 0x34
    6a56:	9600      	str	r6, [sp, #0]
    6a58:	4a34      	ldr	r2, [pc, #208]	; (6b2c <main+0x3a4>)
    6a5a:	a903      	add	r1, sp, #12
    6a5c:	4f3b      	ldr	r7, [pc, #236]	; (6b4c <main+0x3c4>)
    6a5e:	47b8      	blx	r7

					struct node_msg_data_addr msg_write_resp;
					msg_write_resp.addr = msg_write->addr;
    6a60:	68b3      	ldr	r3, [r6, #8]
    6a62:	931d      	str	r3, [sp, #116]	; 0x74
					debug_print("Sending response to %d, addr %x\n", msg_write->header.ret, msg_write_resp.addr);
    6a64:	7972      	ldrb	r2, [r6, #5]
    6a66:	4926      	ldr	r1, [pc, #152]	; (6b00 <main+0x378>)
    6a68:	6809      	ldr	r1, [r1, #0]
    6a6a:	483c      	ldr	r0, [pc, #240]	; (6b5c <main+0x3d4>)
    6a6c:	4e36      	ldr	r6, [pc, #216]	; (6b48 <main+0x3c0>)
    6a6e:	47b0      	blx	r6
					node_msg_send(my_parent_info, &source, NODE_CMD_READ_RESP, &msg_write_resp);
    6a70:	6828      	ldr	r0, [r5, #0]
    6a72:	ab1b      	add	r3, sp, #108	; 0x6c
    6a74:	220d      	movs	r2, #13
    6a76:	a903      	add	r1, sp, #12
    6a78:	4e36      	ldr	r6, [pc, #216]	; (6b54 <main+0x3cc>)
    6a7a:	47b0      	blx	r6
while (1) {
    6a7c:	e7c9      	b.n	6a12 <main+0x28a>
							result = tsens_get_temp();
    6a7e:	4b38      	ldr	r3, [pc, #224]	; (6b60 <main+0x3d8>)
    6a80:	4798      	blx	r3
    6a82:	4683      	mov	fp, r0
							break;
    6a84:	e7a8      	b.n	69d8 <main+0x250>
							result = get_tsens_offset();
    6a86:	4b37      	ldr	r3, [pc, #220]	; (6b64 <main+0x3dc>)
    6a88:	4798      	blx	r3
    6a8a:	4683      	mov	fp, r0
							break;
    6a8c:	e7a4      	b.n	69d8 <main+0x250>
							set_tsens_offset(msg_write->value);
    6a8e:	9810      	ldr	r0, [sp, #64]	; 0x40
    6a90:	4b35      	ldr	r3, [pc, #212]	; (6b68 <main+0x3e0>)
    6a92:	4798      	blx	r3
							break;
    6a94:	e7d9      	b.n	6a4a <main+0x2c2>
    6a96:	46c0      	nop			; (mov r8, r8)
    6a98:	00003a3d 	.word	0x00003a3d
    6a9c:	002a0003 	.word	0x002a0003
    6aa0:	002b0003 	.word	0x002b0003
    6aa4:	200024c0 	.word	0x200024c0
    6aa8:	20002b6c 	.word	0x20002b6c
    6aac:	000065e1 	.word	0x000065e1
    6ab0:	20002b68 	.word	0x20002b68
    6ab4:	000065b5 	.word	0x000065b5
    6ab8:	20002b64 	.word	0x20002b64
    6abc:	42001400 	.word	0x42001400
    6ac0:	00002dc5 	.word	0x00002dc5
    6ac4:	20000200 	.word	0x20000200
    6ac8:	0000728d 	.word	0x0000728d
    6acc:	00002d35 	.word	0x00002d35
    6ad0:	e000e100 	.word	0xe000e100
    6ad4:	00003a0d 	.word	0x00003a0d
    6ad8:	1fffffff 	.word	0x1fffffff
    6adc:	200026bc 	.word	0x200026bc
    6ae0:	42001c00 	.word	0x42001c00
    6ae4:	000024e9 	.word	0x000024e9
    6ae8:	00002803 	.word	0x00002803
    6aec:	000027ed 	.word	0x000027ed
    6af0:	00002959 	.word	0x00002959
    6af4:	0000acd8 	.word	0x0000acd8
    6af8:	000071dd 	.word	0x000071dd
    6afc:	20000034 	.word	0x20000034
    6b00:	20002b98 	.word	0x20002b98
    6b04:	00000fd1 	.word	0x00000fd1
    6b08:	00000825 	.word	0x00000825
    6b0c:	200026c0 	.word	0x200026c0
    6b10:	20002b70 	.word	0x20002b70
    6b14:	000001a5 	.word	0x000001a5
    6b18:	200001f4 	.word	0x200001f4
    6b1c:	0000017d 	.word	0x0000017d
    6b20:	00000c15 	.word	0x00000c15
    6b24:	200001fc 	.word	0x200001fc
    6b28:	200001f8 	.word	0x200001f8
    6b2c:	200024f8 	.word	0x200024f8
    6b30:	000066b5 	.word	0x000066b5
    6b34:	200024f4 	.word	0x200024f4
    6b38:	200000ac 	.word	0x200000ac
    6b3c:	00001021 	.word	0x00001021
    6b40:	000005f9 	.word	0x000005f9
    6b44:	0000ace4 	.word	0x0000ace4
    6b48:	000070e9 	.word	0x000070e9
    6b4c:	000001d5 	.word	0x000001d5
    6b50:	0000ad14 	.word	0x0000ad14
    6b54:	000002c9 	.word	0x000002c9
    6b58:	0000ad44 	.word	0x0000ad44
    6b5c:	0000ad80 	.word	0x0000ad80
    6b60:	000008a5 	.word	0x000008a5
    6b64:	00000899 	.word	0x00000899
    6b68:	0000088d 	.word	0x0000088d

00006b6c <__udivsi3>:
    6b6c:	2200      	movs	r2, #0
    6b6e:	0843      	lsrs	r3, r0, #1
    6b70:	428b      	cmp	r3, r1
    6b72:	d374      	bcc.n	6c5e <__udivsi3+0xf2>
    6b74:	0903      	lsrs	r3, r0, #4
    6b76:	428b      	cmp	r3, r1
    6b78:	d35f      	bcc.n	6c3a <__udivsi3+0xce>
    6b7a:	0a03      	lsrs	r3, r0, #8
    6b7c:	428b      	cmp	r3, r1
    6b7e:	d344      	bcc.n	6c0a <__udivsi3+0x9e>
    6b80:	0b03      	lsrs	r3, r0, #12
    6b82:	428b      	cmp	r3, r1
    6b84:	d328      	bcc.n	6bd8 <__udivsi3+0x6c>
    6b86:	0c03      	lsrs	r3, r0, #16
    6b88:	428b      	cmp	r3, r1
    6b8a:	d30d      	bcc.n	6ba8 <__udivsi3+0x3c>
    6b8c:	22ff      	movs	r2, #255	; 0xff
    6b8e:	0209      	lsls	r1, r1, #8
    6b90:	ba12      	rev	r2, r2
    6b92:	0c03      	lsrs	r3, r0, #16
    6b94:	428b      	cmp	r3, r1
    6b96:	d302      	bcc.n	6b9e <__udivsi3+0x32>
    6b98:	1212      	asrs	r2, r2, #8
    6b9a:	0209      	lsls	r1, r1, #8
    6b9c:	d065      	beq.n	6c6a <__udivsi3+0xfe>
    6b9e:	0b03      	lsrs	r3, r0, #12
    6ba0:	428b      	cmp	r3, r1
    6ba2:	d319      	bcc.n	6bd8 <__udivsi3+0x6c>
    6ba4:	e000      	b.n	6ba8 <__udivsi3+0x3c>
    6ba6:	0a09      	lsrs	r1, r1, #8
    6ba8:	0bc3      	lsrs	r3, r0, #15
    6baa:	428b      	cmp	r3, r1
    6bac:	d301      	bcc.n	6bb2 <__udivsi3+0x46>
    6bae:	03cb      	lsls	r3, r1, #15
    6bb0:	1ac0      	subs	r0, r0, r3
    6bb2:	4152      	adcs	r2, r2
    6bb4:	0b83      	lsrs	r3, r0, #14
    6bb6:	428b      	cmp	r3, r1
    6bb8:	d301      	bcc.n	6bbe <__udivsi3+0x52>
    6bba:	038b      	lsls	r3, r1, #14
    6bbc:	1ac0      	subs	r0, r0, r3
    6bbe:	4152      	adcs	r2, r2
    6bc0:	0b43      	lsrs	r3, r0, #13
    6bc2:	428b      	cmp	r3, r1
    6bc4:	d301      	bcc.n	6bca <__udivsi3+0x5e>
    6bc6:	034b      	lsls	r3, r1, #13
    6bc8:	1ac0      	subs	r0, r0, r3
    6bca:	4152      	adcs	r2, r2
    6bcc:	0b03      	lsrs	r3, r0, #12
    6bce:	428b      	cmp	r3, r1
    6bd0:	d301      	bcc.n	6bd6 <__udivsi3+0x6a>
    6bd2:	030b      	lsls	r3, r1, #12
    6bd4:	1ac0      	subs	r0, r0, r3
    6bd6:	4152      	adcs	r2, r2
    6bd8:	0ac3      	lsrs	r3, r0, #11
    6bda:	428b      	cmp	r3, r1
    6bdc:	d301      	bcc.n	6be2 <__udivsi3+0x76>
    6bde:	02cb      	lsls	r3, r1, #11
    6be0:	1ac0      	subs	r0, r0, r3
    6be2:	4152      	adcs	r2, r2
    6be4:	0a83      	lsrs	r3, r0, #10
    6be6:	428b      	cmp	r3, r1
    6be8:	d301      	bcc.n	6bee <__udivsi3+0x82>
    6bea:	028b      	lsls	r3, r1, #10
    6bec:	1ac0      	subs	r0, r0, r3
    6bee:	4152      	adcs	r2, r2
    6bf0:	0a43      	lsrs	r3, r0, #9
    6bf2:	428b      	cmp	r3, r1
    6bf4:	d301      	bcc.n	6bfa <__udivsi3+0x8e>
    6bf6:	024b      	lsls	r3, r1, #9
    6bf8:	1ac0      	subs	r0, r0, r3
    6bfa:	4152      	adcs	r2, r2
    6bfc:	0a03      	lsrs	r3, r0, #8
    6bfe:	428b      	cmp	r3, r1
    6c00:	d301      	bcc.n	6c06 <__udivsi3+0x9a>
    6c02:	020b      	lsls	r3, r1, #8
    6c04:	1ac0      	subs	r0, r0, r3
    6c06:	4152      	adcs	r2, r2
    6c08:	d2cd      	bcs.n	6ba6 <__udivsi3+0x3a>
    6c0a:	09c3      	lsrs	r3, r0, #7
    6c0c:	428b      	cmp	r3, r1
    6c0e:	d301      	bcc.n	6c14 <__udivsi3+0xa8>
    6c10:	01cb      	lsls	r3, r1, #7
    6c12:	1ac0      	subs	r0, r0, r3
    6c14:	4152      	adcs	r2, r2
    6c16:	0983      	lsrs	r3, r0, #6
    6c18:	428b      	cmp	r3, r1
    6c1a:	d301      	bcc.n	6c20 <__udivsi3+0xb4>
    6c1c:	018b      	lsls	r3, r1, #6
    6c1e:	1ac0      	subs	r0, r0, r3
    6c20:	4152      	adcs	r2, r2
    6c22:	0943      	lsrs	r3, r0, #5
    6c24:	428b      	cmp	r3, r1
    6c26:	d301      	bcc.n	6c2c <__udivsi3+0xc0>
    6c28:	014b      	lsls	r3, r1, #5
    6c2a:	1ac0      	subs	r0, r0, r3
    6c2c:	4152      	adcs	r2, r2
    6c2e:	0903      	lsrs	r3, r0, #4
    6c30:	428b      	cmp	r3, r1
    6c32:	d301      	bcc.n	6c38 <__udivsi3+0xcc>
    6c34:	010b      	lsls	r3, r1, #4
    6c36:	1ac0      	subs	r0, r0, r3
    6c38:	4152      	adcs	r2, r2
    6c3a:	08c3      	lsrs	r3, r0, #3
    6c3c:	428b      	cmp	r3, r1
    6c3e:	d301      	bcc.n	6c44 <__udivsi3+0xd8>
    6c40:	00cb      	lsls	r3, r1, #3
    6c42:	1ac0      	subs	r0, r0, r3
    6c44:	4152      	adcs	r2, r2
    6c46:	0883      	lsrs	r3, r0, #2
    6c48:	428b      	cmp	r3, r1
    6c4a:	d301      	bcc.n	6c50 <__udivsi3+0xe4>
    6c4c:	008b      	lsls	r3, r1, #2
    6c4e:	1ac0      	subs	r0, r0, r3
    6c50:	4152      	adcs	r2, r2
    6c52:	0843      	lsrs	r3, r0, #1
    6c54:	428b      	cmp	r3, r1
    6c56:	d301      	bcc.n	6c5c <__udivsi3+0xf0>
    6c58:	004b      	lsls	r3, r1, #1
    6c5a:	1ac0      	subs	r0, r0, r3
    6c5c:	4152      	adcs	r2, r2
    6c5e:	1a41      	subs	r1, r0, r1
    6c60:	d200      	bcs.n	6c64 <__udivsi3+0xf8>
    6c62:	4601      	mov	r1, r0
    6c64:	4152      	adcs	r2, r2
    6c66:	4610      	mov	r0, r2
    6c68:	4770      	bx	lr
    6c6a:	e7ff      	b.n	6c6c <__udivsi3+0x100>
    6c6c:	b501      	push	{r0, lr}
    6c6e:	2000      	movs	r0, #0
    6c70:	f000 f8f0 	bl	6e54 <__aeabi_idiv0>
    6c74:	bd02      	pop	{r1, pc}
    6c76:	46c0      	nop			; (mov r8, r8)

00006c78 <__aeabi_uidivmod>:
    6c78:	2900      	cmp	r1, #0
    6c7a:	d0f7      	beq.n	6c6c <__udivsi3+0x100>
    6c7c:	e776      	b.n	6b6c <__udivsi3>
    6c7e:	4770      	bx	lr

00006c80 <__divsi3>:
    6c80:	4603      	mov	r3, r0
    6c82:	430b      	orrs	r3, r1
    6c84:	d47f      	bmi.n	6d86 <__divsi3+0x106>
    6c86:	2200      	movs	r2, #0
    6c88:	0843      	lsrs	r3, r0, #1
    6c8a:	428b      	cmp	r3, r1
    6c8c:	d374      	bcc.n	6d78 <__divsi3+0xf8>
    6c8e:	0903      	lsrs	r3, r0, #4
    6c90:	428b      	cmp	r3, r1
    6c92:	d35f      	bcc.n	6d54 <__divsi3+0xd4>
    6c94:	0a03      	lsrs	r3, r0, #8
    6c96:	428b      	cmp	r3, r1
    6c98:	d344      	bcc.n	6d24 <__divsi3+0xa4>
    6c9a:	0b03      	lsrs	r3, r0, #12
    6c9c:	428b      	cmp	r3, r1
    6c9e:	d328      	bcc.n	6cf2 <__divsi3+0x72>
    6ca0:	0c03      	lsrs	r3, r0, #16
    6ca2:	428b      	cmp	r3, r1
    6ca4:	d30d      	bcc.n	6cc2 <__divsi3+0x42>
    6ca6:	22ff      	movs	r2, #255	; 0xff
    6ca8:	0209      	lsls	r1, r1, #8
    6caa:	ba12      	rev	r2, r2
    6cac:	0c03      	lsrs	r3, r0, #16
    6cae:	428b      	cmp	r3, r1
    6cb0:	d302      	bcc.n	6cb8 <__divsi3+0x38>
    6cb2:	1212      	asrs	r2, r2, #8
    6cb4:	0209      	lsls	r1, r1, #8
    6cb6:	d065      	beq.n	6d84 <__divsi3+0x104>
    6cb8:	0b03      	lsrs	r3, r0, #12
    6cba:	428b      	cmp	r3, r1
    6cbc:	d319      	bcc.n	6cf2 <__divsi3+0x72>
    6cbe:	e000      	b.n	6cc2 <__divsi3+0x42>
    6cc0:	0a09      	lsrs	r1, r1, #8
    6cc2:	0bc3      	lsrs	r3, r0, #15
    6cc4:	428b      	cmp	r3, r1
    6cc6:	d301      	bcc.n	6ccc <__divsi3+0x4c>
    6cc8:	03cb      	lsls	r3, r1, #15
    6cca:	1ac0      	subs	r0, r0, r3
    6ccc:	4152      	adcs	r2, r2
    6cce:	0b83      	lsrs	r3, r0, #14
    6cd0:	428b      	cmp	r3, r1
    6cd2:	d301      	bcc.n	6cd8 <__divsi3+0x58>
    6cd4:	038b      	lsls	r3, r1, #14
    6cd6:	1ac0      	subs	r0, r0, r3
    6cd8:	4152      	adcs	r2, r2
    6cda:	0b43      	lsrs	r3, r0, #13
    6cdc:	428b      	cmp	r3, r1
    6cde:	d301      	bcc.n	6ce4 <__divsi3+0x64>
    6ce0:	034b      	lsls	r3, r1, #13
    6ce2:	1ac0      	subs	r0, r0, r3
    6ce4:	4152      	adcs	r2, r2
    6ce6:	0b03      	lsrs	r3, r0, #12
    6ce8:	428b      	cmp	r3, r1
    6cea:	d301      	bcc.n	6cf0 <__divsi3+0x70>
    6cec:	030b      	lsls	r3, r1, #12
    6cee:	1ac0      	subs	r0, r0, r3
    6cf0:	4152      	adcs	r2, r2
    6cf2:	0ac3      	lsrs	r3, r0, #11
    6cf4:	428b      	cmp	r3, r1
    6cf6:	d301      	bcc.n	6cfc <__divsi3+0x7c>
    6cf8:	02cb      	lsls	r3, r1, #11
    6cfa:	1ac0      	subs	r0, r0, r3
    6cfc:	4152      	adcs	r2, r2
    6cfe:	0a83      	lsrs	r3, r0, #10
    6d00:	428b      	cmp	r3, r1
    6d02:	d301      	bcc.n	6d08 <__divsi3+0x88>
    6d04:	028b      	lsls	r3, r1, #10
    6d06:	1ac0      	subs	r0, r0, r3
    6d08:	4152      	adcs	r2, r2
    6d0a:	0a43      	lsrs	r3, r0, #9
    6d0c:	428b      	cmp	r3, r1
    6d0e:	d301      	bcc.n	6d14 <__divsi3+0x94>
    6d10:	024b      	lsls	r3, r1, #9
    6d12:	1ac0      	subs	r0, r0, r3
    6d14:	4152      	adcs	r2, r2
    6d16:	0a03      	lsrs	r3, r0, #8
    6d18:	428b      	cmp	r3, r1
    6d1a:	d301      	bcc.n	6d20 <__divsi3+0xa0>
    6d1c:	020b      	lsls	r3, r1, #8
    6d1e:	1ac0      	subs	r0, r0, r3
    6d20:	4152      	adcs	r2, r2
    6d22:	d2cd      	bcs.n	6cc0 <__divsi3+0x40>
    6d24:	09c3      	lsrs	r3, r0, #7
    6d26:	428b      	cmp	r3, r1
    6d28:	d301      	bcc.n	6d2e <__divsi3+0xae>
    6d2a:	01cb      	lsls	r3, r1, #7
    6d2c:	1ac0      	subs	r0, r0, r3
    6d2e:	4152      	adcs	r2, r2
    6d30:	0983      	lsrs	r3, r0, #6
    6d32:	428b      	cmp	r3, r1
    6d34:	d301      	bcc.n	6d3a <__divsi3+0xba>
    6d36:	018b      	lsls	r3, r1, #6
    6d38:	1ac0      	subs	r0, r0, r3
    6d3a:	4152      	adcs	r2, r2
    6d3c:	0943      	lsrs	r3, r0, #5
    6d3e:	428b      	cmp	r3, r1
    6d40:	d301      	bcc.n	6d46 <__divsi3+0xc6>
    6d42:	014b      	lsls	r3, r1, #5
    6d44:	1ac0      	subs	r0, r0, r3
    6d46:	4152      	adcs	r2, r2
    6d48:	0903      	lsrs	r3, r0, #4
    6d4a:	428b      	cmp	r3, r1
    6d4c:	d301      	bcc.n	6d52 <__divsi3+0xd2>
    6d4e:	010b      	lsls	r3, r1, #4
    6d50:	1ac0      	subs	r0, r0, r3
    6d52:	4152      	adcs	r2, r2
    6d54:	08c3      	lsrs	r3, r0, #3
    6d56:	428b      	cmp	r3, r1
    6d58:	d301      	bcc.n	6d5e <__divsi3+0xde>
    6d5a:	00cb      	lsls	r3, r1, #3
    6d5c:	1ac0      	subs	r0, r0, r3
    6d5e:	4152      	adcs	r2, r2
    6d60:	0883      	lsrs	r3, r0, #2
    6d62:	428b      	cmp	r3, r1
    6d64:	d301      	bcc.n	6d6a <__divsi3+0xea>
    6d66:	008b      	lsls	r3, r1, #2
    6d68:	1ac0      	subs	r0, r0, r3
    6d6a:	4152      	adcs	r2, r2
    6d6c:	0843      	lsrs	r3, r0, #1
    6d6e:	428b      	cmp	r3, r1
    6d70:	d301      	bcc.n	6d76 <__divsi3+0xf6>
    6d72:	004b      	lsls	r3, r1, #1
    6d74:	1ac0      	subs	r0, r0, r3
    6d76:	4152      	adcs	r2, r2
    6d78:	1a41      	subs	r1, r0, r1
    6d7a:	d200      	bcs.n	6d7e <__divsi3+0xfe>
    6d7c:	4601      	mov	r1, r0
    6d7e:	4152      	adcs	r2, r2
    6d80:	4610      	mov	r0, r2
    6d82:	4770      	bx	lr
    6d84:	e05d      	b.n	6e42 <__divsi3+0x1c2>
    6d86:	0fca      	lsrs	r2, r1, #31
    6d88:	d000      	beq.n	6d8c <__divsi3+0x10c>
    6d8a:	4249      	negs	r1, r1
    6d8c:	1003      	asrs	r3, r0, #32
    6d8e:	d300      	bcc.n	6d92 <__divsi3+0x112>
    6d90:	4240      	negs	r0, r0
    6d92:	4053      	eors	r3, r2
    6d94:	2200      	movs	r2, #0
    6d96:	469c      	mov	ip, r3
    6d98:	0903      	lsrs	r3, r0, #4
    6d9a:	428b      	cmp	r3, r1
    6d9c:	d32d      	bcc.n	6dfa <__divsi3+0x17a>
    6d9e:	0a03      	lsrs	r3, r0, #8
    6da0:	428b      	cmp	r3, r1
    6da2:	d312      	bcc.n	6dca <__divsi3+0x14a>
    6da4:	22fc      	movs	r2, #252	; 0xfc
    6da6:	0189      	lsls	r1, r1, #6
    6da8:	ba12      	rev	r2, r2
    6daa:	0a03      	lsrs	r3, r0, #8
    6dac:	428b      	cmp	r3, r1
    6dae:	d30c      	bcc.n	6dca <__divsi3+0x14a>
    6db0:	0189      	lsls	r1, r1, #6
    6db2:	1192      	asrs	r2, r2, #6
    6db4:	428b      	cmp	r3, r1
    6db6:	d308      	bcc.n	6dca <__divsi3+0x14a>
    6db8:	0189      	lsls	r1, r1, #6
    6dba:	1192      	asrs	r2, r2, #6
    6dbc:	428b      	cmp	r3, r1
    6dbe:	d304      	bcc.n	6dca <__divsi3+0x14a>
    6dc0:	0189      	lsls	r1, r1, #6
    6dc2:	d03a      	beq.n	6e3a <__divsi3+0x1ba>
    6dc4:	1192      	asrs	r2, r2, #6
    6dc6:	e000      	b.n	6dca <__divsi3+0x14a>
    6dc8:	0989      	lsrs	r1, r1, #6
    6dca:	09c3      	lsrs	r3, r0, #7
    6dcc:	428b      	cmp	r3, r1
    6dce:	d301      	bcc.n	6dd4 <__divsi3+0x154>
    6dd0:	01cb      	lsls	r3, r1, #7
    6dd2:	1ac0      	subs	r0, r0, r3
    6dd4:	4152      	adcs	r2, r2
    6dd6:	0983      	lsrs	r3, r0, #6
    6dd8:	428b      	cmp	r3, r1
    6dda:	d301      	bcc.n	6de0 <__divsi3+0x160>
    6ddc:	018b      	lsls	r3, r1, #6
    6dde:	1ac0      	subs	r0, r0, r3
    6de0:	4152      	adcs	r2, r2
    6de2:	0943      	lsrs	r3, r0, #5
    6de4:	428b      	cmp	r3, r1
    6de6:	d301      	bcc.n	6dec <__divsi3+0x16c>
    6de8:	014b      	lsls	r3, r1, #5
    6dea:	1ac0      	subs	r0, r0, r3
    6dec:	4152      	adcs	r2, r2
    6dee:	0903      	lsrs	r3, r0, #4
    6df0:	428b      	cmp	r3, r1
    6df2:	d301      	bcc.n	6df8 <__divsi3+0x178>
    6df4:	010b      	lsls	r3, r1, #4
    6df6:	1ac0      	subs	r0, r0, r3
    6df8:	4152      	adcs	r2, r2
    6dfa:	08c3      	lsrs	r3, r0, #3
    6dfc:	428b      	cmp	r3, r1
    6dfe:	d301      	bcc.n	6e04 <__divsi3+0x184>
    6e00:	00cb      	lsls	r3, r1, #3
    6e02:	1ac0      	subs	r0, r0, r3
    6e04:	4152      	adcs	r2, r2
    6e06:	0883      	lsrs	r3, r0, #2
    6e08:	428b      	cmp	r3, r1
    6e0a:	d301      	bcc.n	6e10 <__divsi3+0x190>
    6e0c:	008b      	lsls	r3, r1, #2
    6e0e:	1ac0      	subs	r0, r0, r3
    6e10:	4152      	adcs	r2, r2
    6e12:	d2d9      	bcs.n	6dc8 <__divsi3+0x148>
    6e14:	0843      	lsrs	r3, r0, #1
    6e16:	428b      	cmp	r3, r1
    6e18:	d301      	bcc.n	6e1e <__divsi3+0x19e>
    6e1a:	004b      	lsls	r3, r1, #1
    6e1c:	1ac0      	subs	r0, r0, r3
    6e1e:	4152      	adcs	r2, r2
    6e20:	1a41      	subs	r1, r0, r1
    6e22:	d200      	bcs.n	6e26 <__divsi3+0x1a6>
    6e24:	4601      	mov	r1, r0
    6e26:	4663      	mov	r3, ip
    6e28:	4152      	adcs	r2, r2
    6e2a:	105b      	asrs	r3, r3, #1
    6e2c:	4610      	mov	r0, r2
    6e2e:	d301      	bcc.n	6e34 <__divsi3+0x1b4>
    6e30:	4240      	negs	r0, r0
    6e32:	2b00      	cmp	r3, #0
    6e34:	d500      	bpl.n	6e38 <__divsi3+0x1b8>
    6e36:	4249      	negs	r1, r1
    6e38:	4770      	bx	lr
    6e3a:	4663      	mov	r3, ip
    6e3c:	105b      	asrs	r3, r3, #1
    6e3e:	d300      	bcc.n	6e42 <__divsi3+0x1c2>
    6e40:	4240      	negs	r0, r0
    6e42:	b501      	push	{r0, lr}
    6e44:	2000      	movs	r0, #0
    6e46:	f000 f805 	bl	6e54 <__aeabi_idiv0>
    6e4a:	bd02      	pop	{r1, pc}

00006e4c <__aeabi_idivmod>:
    6e4c:	2900      	cmp	r1, #0
    6e4e:	d0f8      	beq.n	6e42 <__divsi3+0x1c2>
    6e50:	e716      	b.n	6c80 <__divsi3>
    6e52:	4770      	bx	lr

00006e54 <__aeabi_idiv0>:
    6e54:	4770      	bx	lr
    6e56:	46c0      	nop			; (mov r8, r8)

00006e58 <__aeabi_lmul>:
    6e58:	b5f0      	push	{r4, r5, r6, r7, lr}
    6e5a:	46ce      	mov	lr, r9
    6e5c:	4647      	mov	r7, r8
    6e5e:	0415      	lsls	r5, r2, #16
    6e60:	0c2d      	lsrs	r5, r5, #16
    6e62:	002e      	movs	r6, r5
    6e64:	b580      	push	{r7, lr}
    6e66:	0407      	lsls	r7, r0, #16
    6e68:	0c14      	lsrs	r4, r2, #16
    6e6a:	0c3f      	lsrs	r7, r7, #16
    6e6c:	4699      	mov	r9, r3
    6e6e:	0c03      	lsrs	r3, r0, #16
    6e70:	437e      	muls	r6, r7
    6e72:	435d      	muls	r5, r3
    6e74:	4367      	muls	r7, r4
    6e76:	4363      	muls	r3, r4
    6e78:	197f      	adds	r7, r7, r5
    6e7a:	0c34      	lsrs	r4, r6, #16
    6e7c:	19e4      	adds	r4, r4, r7
    6e7e:	469c      	mov	ip, r3
    6e80:	42a5      	cmp	r5, r4
    6e82:	d903      	bls.n	6e8c <__aeabi_lmul+0x34>
    6e84:	2380      	movs	r3, #128	; 0x80
    6e86:	025b      	lsls	r3, r3, #9
    6e88:	4698      	mov	r8, r3
    6e8a:	44c4      	add	ip, r8
    6e8c:	464b      	mov	r3, r9
    6e8e:	4351      	muls	r1, r2
    6e90:	4343      	muls	r3, r0
    6e92:	0436      	lsls	r6, r6, #16
    6e94:	0c36      	lsrs	r6, r6, #16
    6e96:	0c25      	lsrs	r5, r4, #16
    6e98:	0424      	lsls	r4, r4, #16
    6e9a:	4465      	add	r5, ip
    6e9c:	19a4      	adds	r4, r4, r6
    6e9e:	1859      	adds	r1, r3, r1
    6ea0:	1949      	adds	r1, r1, r5
    6ea2:	0020      	movs	r0, r4
    6ea4:	bc0c      	pop	{r2, r3}
    6ea6:	4690      	mov	r8, r2
    6ea8:	4699      	mov	r9, r3
    6eaa:	bdf0      	pop	{r4, r5, r6, r7, pc}

00006eac <exit>:
    6eac:	4b08      	ldr	r3, [pc, #32]	; (6ed0 <exit+0x24>)
    6eae:	b510      	push	{r4, lr}
    6eb0:	0004      	movs	r4, r0
    6eb2:	2b00      	cmp	r3, #0
    6eb4:	d002      	beq.n	6ebc <exit+0x10>
    6eb6:	2100      	movs	r1, #0
    6eb8:	e000      	b.n	6ebc <exit+0x10>
    6eba:	bf00      	nop
    6ebc:	4b05      	ldr	r3, [pc, #20]	; (6ed4 <exit+0x28>)
    6ebe:	6818      	ldr	r0, [r3, #0]
    6ec0:	6a83      	ldr	r3, [r0, #40]	; 0x28
    6ec2:	2b00      	cmp	r3, #0
    6ec4:	d000      	beq.n	6ec8 <exit+0x1c>
    6ec6:	4798      	blx	r3
    6ec8:	0020      	movs	r0, r4
    6eca:	f7fc fe7b 	bl	3bc4 <_exit>
    6ece:	46c0      	nop			; (mov r8, r8)
    6ed0:	00000000 	.word	0x00000000
    6ed4:	0000ada8 	.word	0x0000ada8

00006ed8 <__libc_init_array>:
    6ed8:	b570      	push	{r4, r5, r6, lr}
    6eda:	2600      	movs	r6, #0
    6edc:	4d0c      	ldr	r5, [pc, #48]	; (6f10 <__libc_init_array+0x38>)
    6ede:	4c0d      	ldr	r4, [pc, #52]	; (6f14 <__libc_init_array+0x3c>)
    6ee0:	1b64      	subs	r4, r4, r5
    6ee2:	10a4      	asrs	r4, r4, #2
    6ee4:	42a6      	cmp	r6, r4
    6ee6:	d109      	bne.n	6efc <__libc_init_array+0x24>
    6ee8:	2600      	movs	r6, #0
    6eea:	f003 ffa9 	bl	ae40 <_init>
    6eee:	4d0a      	ldr	r5, [pc, #40]	; (6f18 <__libc_init_array+0x40>)
    6ef0:	4c0a      	ldr	r4, [pc, #40]	; (6f1c <__libc_init_array+0x44>)
    6ef2:	1b64      	subs	r4, r4, r5
    6ef4:	10a4      	asrs	r4, r4, #2
    6ef6:	42a6      	cmp	r6, r4
    6ef8:	d105      	bne.n	6f06 <__libc_init_array+0x2e>
    6efa:	bd70      	pop	{r4, r5, r6, pc}
    6efc:	00b3      	lsls	r3, r6, #2
    6efe:	58eb      	ldr	r3, [r5, r3]
    6f00:	4798      	blx	r3
    6f02:	3601      	adds	r6, #1
    6f04:	e7ee      	b.n	6ee4 <__libc_init_array+0xc>
    6f06:	00b3      	lsls	r3, r6, #2
    6f08:	58eb      	ldr	r3, [r5, r3]
    6f0a:	4798      	blx	r3
    6f0c:	3601      	adds	r6, #1
    6f0e:	e7f2      	b.n	6ef6 <__libc_init_array+0x1e>
    6f10:	0000ae4c 	.word	0x0000ae4c
    6f14:	0000ae4c 	.word	0x0000ae4c
    6f18:	0000ae4c 	.word	0x0000ae4c
    6f1c:	0000ae50 	.word	0x0000ae50

00006f20 <malloc>:
    6f20:	b510      	push	{r4, lr}
    6f22:	4b03      	ldr	r3, [pc, #12]	; (6f30 <malloc+0x10>)
    6f24:	0001      	movs	r1, r0
    6f26:	6818      	ldr	r0, [r3, #0]
    6f28:	f000 f880 	bl	702c <_malloc_r>
    6f2c:	bd10      	pop	{r4, pc}
    6f2e:	46c0      	nop			; (mov r8, r8)
    6f30:	20000200 	.word	0x20000200

00006f34 <memcmp>:
    6f34:	b530      	push	{r4, r5, lr}
    6f36:	2400      	movs	r4, #0
    6f38:	42a2      	cmp	r2, r4
    6f3a:	d101      	bne.n	6f40 <memcmp+0xc>
    6f3c:	2000      	movs	r0, #0
    6f3e:	e005      	b.n	6f4c <memcmp+0x18>
    6f40:	5d03      	ldrb	r3, [r0, r4]
    6f42:	1c65      	adds	r5, r4, #1
    6f44:	5d0c      	ldrb	r4, [r1, r4]
    6f46:	42a3      	cmp	r3, r4
    6f48:	d001      	beq.n	6f4e <memcmp+0x1a>
    6f4a:	1b18      	subs	r0, r3, r4
    6f4c:	bd30      	pop	{r4, r5, pc}
    6f4e:	002c      	movs	r4, r5
    6f50:	e7f2      	b.n	6f38 <memcmp+0x4>

00006f52 <memcpy>:
    6f52:	2300      	movs	r3, #0
    6f54:	b510      	push	{r4, lr}
    6f56:	429a      	cmp	r2, r3
    6f58:	d100      	bne.n	6f5c <memcpy+0xa>
    6f5a:	bd10      	pop	{r4, pc}
    6f5c:	5ccc      	ldrb	r4, [r1, r3]
    6f5e:	54c4      	strb	r4, [r0, r3]
    6f60:	3301      	adds	r3, #1
    6f62:	e7f8      	b.n	6f56 <memcpy+0x4>

00006f64 <memmove>:
    6f64:	b510      	push	{r4, lr}
    6f66:	4288      	cmp	r0, r1
    6f68:	d902      	bls.n	6f70 <memmove+0xc>
    6f6a:	188b      	adds	r3, r1, r2
    6f6c:	4298      	cmp	r0, r3
    6f6e:	d308      	bcc.n	6f82 <memmove+0x1e>
    6f70:	2300      	movs	r3, #0
    6f72:	429a      	cmp	r2, r3
    6f74:	d007      	beq.n	6f86 <memmove+0x22>
    6f76:	5ccc      	ldrb	r4, [r1, r3]
    6f78:	54c4      	strb	r4, [r0, r3]
    6f7a:	3301      	adds	r3, #1
    6f7c:	e7f9      	b.n	6f72 <memmove+0xe>
    6f7e:	5c8b      	ldrb	r3, [r1, r2]
    6f80:	5483      	strb	r3, [r0, r2]
    6f82:	3a01      	subs	r2, #1
    6f84:	d2fb      	bcs.n	6f7e <memmove+0x1a>
    6f86:	bd10      	pop	{r4, pc}

00006f88 <memset>:
    6f88:	0003      	movs	r3, r0
    6f8a:	1882      	adds	r2, r0, r2
    6f8c:	4293      	cmp	r3, r2
    6f8e:	d100      	bne.n	6f92 <memset+0xa>
    6f90:	4770      	bx	lr
    6f92:	7019      	strb	r1, [r3, #0]
    6f94:	3301      	adds	r3, #1
    6f96:	e7f9      	b.n	6f8c <memset+0x4>

00006f98 <_free_r>:
    6f98:	b570      	push	{r4, r5, r6, lr}
    6f9a:	0005      	movs	r5, r0
    6f9c:	2900      	cmp	r1, #0
    6f9e:	d010      	beq.n	6fc2 <_free_r+0x2a>
    6fa0:	1f0c      	subs	r4, r1, #4
    6fa2:	6823      	ldr	r3, [r4, #0]
    6fa4:	2b00      	cmp	r3, #0
    6fa6:	da00      	bge.n	6faa <_free_r+0x12>
    6fa8:	18e4      	adds	r4, r4, r3
    6faa:	0028      	movs	r0, r5
    6fac:	f000 fcea 	bl	7984 <__malloc_lock>
    6fb0:	4a1d      	ldr	r2, [pc, #116]	; (7028 <_free_r+0x90>)
    6fb2:	6813      	ldr	r3, [r2, #0]
    6fb4:	2b00      	cmp	r3, #0
    6fb6:	d105      	bne.n	6fc4 <_free_r+0x2c>
    6fb8:	6063      	str	r3, [r4, #4]
    6fba:	6014      	str	r4, [r2, #0]
    6fbc:	0028      	movs	r0, r5
    6fbe:	f000 fce2 	bl	7986 <__malloc_unlock>
    6fc2:	bd70      	pop	{r4, r5, r6, pc}
    6fc4:	42a3      	cmp	r3, r4
    6fc6:	d909      	bls.n	6fdc <_free_r+0x44>
    6fc8:	6821      	ldr	r1, [r4, #0]
    6fca:	1860      	adds	r0, r4, r1
    6fcc:	4283      	cmp	r3, r0
    6fce:	d1f3      	bne.n	6fb8 <_free_r+0x20>
    6fd0:	6818      	ldr	r0, [r3, #0]
    6fd2:	685b      	ldr	r3, [r3, #4]
    6fd4:	1841      	adds	r1, r0, r1
    6fd6:	6021      	str	r1, [r4, #0]
    6fd8:	e7ee      	b.n	6fb8 <_free_r+0x20>
    6fda:	0013      	movs	r3, r2
    6fdc:	685a      	ldr	r2, [r3, #4]
    6fde:	2a00      	cmp	r2, #0
    6fe0:	d001      	beq.n	6fe6 <_free_r+0x4e>
    6fe2:	42a2      	cmp	r2, r4
    6fe4:	d9f9      	bls.n	6fda <_free_r+0x42>
    6fe6:	6819      	ldr	r1, [r3, #0]
    6fe8:	1858      	adds	r0, r3, r1
    6fea:	42a0      	cmp	r0, r4
    6fec:	d10b      	bne.n	7006 <_free_r+0x6e>
    6fee:	6820      	ldr	r0, [r4, #0]
    6ff0:	1809      	adds	r1, r1, r0
    6ff2:	1858      	adds	r0, r3, r1
    6ff4:	6019      	str	r1, [r3, #0]
    6ff6:	4282      	cmp	r2, r0
    6ff8:	d1e0      	bne.n	6fbc <_free_r+0x24>
    6ffa:	6810      	ldr	r0, [r2, #0]
    6ffc:	6852      	ldr	r2, [r2, #4]
    6ffe:	1841      	adds	r1, r0, r1
    7000:	6019      	str	r1, [r3, #0]
    7002:	605a      	str	r2, [r3, #4]
    7004:	e7da      	b.n	6fbc <_free_r+0x24>
    7006:	42a0      	cmp	r0, r4
    7008:	d902      	bls.n	7010 <_free_r+0x78>
    700a:	230c      	movs	r3, #12
    700c:	602b      	str	r3, [r5, #0]
    700e:	e7d5      	b.n	6fbc <_free_r+0x24>
    7010:	6821      	ldr	r1, [r4, #0]
    7012:	1860      	adds	r0, r4, r1
    7014:	4282      	cmp	r2, r0
    7016:	d103      	bne.n	7020 <_free_r+0x88>
    7018:	6810      	ldr	r0, [r2, #0]
    701a:	6852      	ldr	r2, [r2, #4]
    701c:	1841      	adds	r1, r0, r1
    701e:	6021      	str	r1, [r4, #0]
    7020:	6062      	str	r2, [r4, #4]
    7022:	605c      	str	r4, [r3, #4]
    7024:	e7ca      	b.n	6fbc <_free_r+0x24>
    7026:	46c0      	nop			; (mov r8, r8)
    7028:	20002688 	.word	0x20002688

0000702c <_malloc_r>:
    702c:	2303      	movs	r3, #3
    702e:	b570      	push	{r4, r5, r6, lr}
    7030:	1ccd      	adds	r5, r1, #3
    7032:	439d      	bics	r5, r3
    7034:	3508      	adds	r5, #8
    7036:	0006      	movs	r6, r0
    7038:	2d0c      	cmp	r5, #12
    703a:	d21e      	bcs.n	707a <_malloc_r+0x4e>
    703c:	250c      	movs	r5, #12
    703e:	42a9      	cmp	r1, r5
    7040:	d81d      	bhi.n	707e <_malloc_r+0x52>
    7042:	0030      	movs	r0, r6
    7044:	f000 fc9e 	bl	7984 <__malloc_lock>
    7048:	4a25      	ldr	r2, [pc, #148]	; (70e0 <_malloc_r+0xb4>)
    704a:	6814      	ldr	r4, [r2, #0]
    704c:	0021      	movs	r1, r4
    704e:	2900      	cmp	r1, #0
    7050:	d119      	bne.n	7086 <_malloc_r+0x5a>
    7052:	4c24      	ldr	r4, [pc, #144]	; (70e4 <_malloc_r+0xb8>)
    7054:	6823      	ldr	r3, [r4, #0]
    7056:	2b00      	cmp	r3, #0
    7058:	d103      	bne.n	7062 <_malloc_r+0x36>
    705a:	0030      	movs	r0, r6
    705c:	f000 f904 	bl	7268 <_sbrk_r>
    7060:	6020      	str	r0, [r4, #0]
    7062:	0029      	movs	r1, r5
    7064:	0030      	movs	r0, r6
    7066:	f000 f8ff 	bl	7268 <_sbrk_r>
    706a:	1c43      	adds	r3, r0, #1
    706c:	d12c      	bne.n	70c8 <_malloc_r+0x9c>
    706e:	230c      	movs	r3, #12
    7070:	0030      	movs	r0, r6
    7072:	6033      	str	r3, [r6, #0]
    7074:	f000 fc87 	bl	7986 <__malloc_unlock>
    7078:	e003      	b.n	7082 <_malloc_r+0x56>
    707a:	2d00      	cmp	r5, #0
    707c:	dadf      	bge.n	703e <_malloc_r+0x12>
    707e:	230c      	movs	r3, #12
    7080:	6033      	str	r3, [r6, #0]
    7082:	2000      	movs	r0, #0
    7084:	bd70      	pop	{r4, r5, r6, pc}
    7086:	680b      	ldr	r3, [r1, #0]
    7088:	1b5b      	subs	r3, r3, r5
    708a:	d41a      	bmi.n	70c2 <_malloc_r+0x96>
    708c:	2b0b      	cmp	r3, #11
    708e:	d903      	bls.n	7098 <_malloc_r+0x6c>
    7090:	600b      	str	r3, [r1, #0]
    7092:	18cc      	adds	r4, r1, r3
    7094:	6025      	str	r5, [r4, #0]
    7096:	e003      	b.n	70a0 <_malloc_r+0x74>
    7098:	428c      	cmp	r4, r1
    709a:	d10e      	bne.n	70ba <_malloc_r+0x8e>
    709c:	6863      	ldr	r3, [r4, #4]
    709e:	6013      	str	r3, [r2, #0]
    70a0:	0030      	movs	r0, r6
    70a2:	f000 fc70 	bl	7986 <__malloc_unlock>
    70a6:	0020      	movs	r0, r4
    70a8:	2207      	movs	r2, #7
    70aa:	300b      	adds	r0, #11
    70ac:	1d23      	adds	r3, r4, #4
    70ae:	4390      	bics	r0, r2
    70b0:	1ac3      	subs	r3, r0, r3
    70b2:	d0e7      	beq.n	7084 <_malloc_r+0x58>
    70b4:	425a      	negs	r2, r3
    70b6:	50e2      	str	r2, [r4, r3]
    70b8:	e7e4      	b.n	7084 <_malloc_r+0x58>
    70ba:	684b      	ldr	r3, [r1, #4]
    70bc:	6063      	str	r3, [r4, #4]
    70be:	000c      	movs	r4, r1
    70c0:	e7ee      	b.n	70a0 <_malloc_r+0x74>
    70c2:	000c      	movs	r4, r1
    70c4:	6849      	ldr	r1, [r1, #4]
    70c6:	e7c2      	b.n	704e <_malloc_r+0x22>
    70c8:	2303      	movs	r3, #3
    70ca:	1cc4      	adds	r4, r0, #3
    70cc:	439c      	bics	r4, r3
    70ce:	42a0      	cmp	r0, r4
    70d0:	d0e0      	beq.n	7094 <_malloc_r+0x68>
    70d2:	1a21      	subs	r1, r4, r0
    70d4:	0030      	movs	r0, r6
    70d6:	f000 f8c7 	bl	7268 <_sbrk_r>
    70da:	1c43      	adds	r3, r0, #1
    70dc:	d1da      	bne.n	7094 <_malloc_r+0x68>
    70de:	e7c6      	b.n	706e <_malloc_r+0x42>
    70e0:	20002688 	.word	0x20002688
    70e4:	2000268c 	.word	0x2000268c

000070e8 <iprintf>:
    70e8:	b40f      	push	{r0, r1, r2, r3}
    70ea:	4b0b      	ldr	r3, [pc, #44]	; (7118 <iprintf+0x30>)
    70ec:	b513      	push	{r0, r1, r4, lr}
    70ee:	681c      	ldr	r4, [r3, #0]
    70f0:	2c00      	cmp	r4, #0
    70f2:	d005      	beq.n	7100 <iprintf+0x18>
    70f4:	69a3      	ldr	r3, [r4, #24]
    70f6:	2b00      	cmp	r3, #0
    70f8:	d102      	bne.n	7100 <iprintf+0x18>
    70fa:	0020      	movs	r0, r4
    70fc:	f000 fb40 	bl	7780 <__sinit>
    7100:	ab05      	add	r3, sp, #20
    7102:	9a04      	ldr	r2, [sp, #16]
    7104:	68a1      	ldr	r1, [r4, #8]
    7106:	0020      	movs	r0, r4
    7108:	9301      	str	r3, [sp, #4]
    710a:	f000 fc65 	bl	79d8 <_vfiprintf_r>
    710e:	bc16      	pop	{r1, r2, r4}
    7110:	bc08      	pop	{r3}
    7112:	b004      	add	sp, #16
    7114:	4718      	bx	r3
    7116:	46c0      	nop			; (mov r8, r8)
    7118:	20000200 	.word	0x20000200

0000711c <_puts_r>:
    711c:	b570      	push	{r4, r5, r6, lr}
    711e:	0005      	movs	r5, r0
    7120:	000e      	movs	r6, r1
    7122:	2800      	cmp	r0, #0
    7124:	d004      	beq.n	7130 <_puts_r+0x14>
    7126:	6983      	ldr	r3, [r0, #24]
    7128:	2b00      	cmp	r3, #0
    712a:	d101      	bne.n	7130 <_puts_r+0x14>
    712c:	f000 fb28 	bl	7780 <__sinit>
    7130:	69ab      	ldr	r3, [r5, #24]
    7132:	68ac      	ldr	r4, [r5, #8]
    7134:	2b00      	cmp	r3, #0
    7136:	d102      	bne.n	713e <_puts_r+0x22>
    7138:	0028      	movs	r0, r5
    713a:	f000 fb21 	bl	7780 <__sinit>
    713e:	4b24      	ldr	r3, [pc, #144]	; (71d0 <_puts_r+0xb4>)
    7140:	429c      	cmp	r4, r3
    7142:	d10f      	bne.n	7164 <_puts_r+0x48>
    7144:	686c      	ldr	r4, [r5, #4]
    7146:	89a3      	ldrh	r3, [r4, #12]
    7148:	071b      	lsls	r3, r3, #28
    714a:	d502      	bpl.n	7152 <_puts_r+0x36>
    714c:	6923      	ldr	r3, [r4, #16]
    714e:	2b00      	cmp	r3, #0
    7150:	d120      	bne.n	7194 <_puts_r+0x78>
    7152:	0021      	movs	r1, r4
    7154:	0028      	movs	r0, r5
    7156:	f000 f9a5 	bl	74a4 <__swsetup_r>
    715a:	2800      	cmp	r0, #0
    715c:	d01a      	beq.n	7194 <_puts_r+0x78>
    715e:	2001      	movs	r0, #1
    7160:	4240      	negs	r0, r0
    7162:	bd70      	pop	{r4, r5, r6, pc}
    7164:	4b1b      	ldr	r3, [pc, #108]	; (71d4 <_puts_r+0xb8>)
    7166:	429c      	cmp	r4, r3
    7168:	d101      	bne.n	716e <_puts_r+0x52>
    716a:	68ac      	ldr	r4, [r5, #8]
    716c:	e7eb      	b.n	7146 <_puts_r+0x2a>
    716e:	4b1a      	ldr	r3, [pc, #104]	; (71d8 <_puts_r+0xbc>)
    7170:	429c      	cmp	r4, r3
    7172:	d1e8      	bne.n	7146 <_puts_r+0x2a>
    7174:	68ec      	ldr	r4, [r5, #12]
    7176:	e7e6      	b.n	7146 <_puts_r+0x2a>
    7178:	3b01      	subs	r3, #1
    717a:	3601      	adds	r6, #1
    717c:	60a3      	str	r3, [r4, #8]
    717e:	2b00      	cmp	r3, #0
    7180:	da04      	bge.n	718c <_puts_r+0x70>
    7182:	69a2      	ldr	r2, [r4, #24]
    7184:	4293      	cmp	r3, r2
    7186:	db16      	blt.n	71b6 <_puts_r+0x9a>
    7188:	290a      	cmp	r1, #10
    718a:	d014      	beq.n	71b6 <_puts_r+0x9a>
    718c:	6823      	ldr	r3, [r4, #0]
    718e:	1c5a      	adds	r2, r3, #1
    7190:	6022      	str	r2, [r4, #0]
    7192:	7019      	strb	r1, [r3, #0]
    7194:	7831      	ldrb	r1, [r6, #0]
    7196:	68a3      	ldr	r3, [r4, #8]
    7198:	2900      	cmp	r1, #0
    719a:	d1ed      	bne.n	7178 <_puts_r+0x5c>
    719c:	3b01      	subs	r3, #1
    719e:	60a3      	str	r3, [r4, #8]
    71a0:	2b00      	cmp	r3, #0
    71a2:	da0f      	bge.n	71c4 <_puts_r+0xa8>
    71a4:	0022      	movs	r2, r4
    71a6:	310a      	adds	r1, #10
    71a8:	0028      	movs	r0, r5
    71aa:	f000 f925 	bl	73f8 <__swbuf_r>
    71ae:	1c43      	adds	r3, r0, #1
    71b0:	d0d5      	beq.n	715e <_puts_r+0x42>
    71b2:	200a      	movs	r0, #10
    71b4:	e7d5      	b.n	7162 <_puts_r+0x46>
    71b6:	0022      	movs	r2, r4
    71b8:	0028      	movs	r0, r5
    71ba:	f000 f91d 	bl	73f8 <__swbuf_r>
    71be:	1c43      	adds	r3, r0, #1
    71c0:	d1e8      	bne.n	7194 <_puts_r+0x78>
    71c2:	e7cc      	b.n	715e <_puts_r+0x42>
    71c4:	200a      	movs	r0, #10
    71c6:	6823      	ldr	r3, [r4, #0]
    71c8:	1c5a      	adds	r2, r3, #1
    71ca:	6022      	str	r2, [r4, #0]
    71cc:	7018      	strb	r0, [r3, #0]
    71ce:	e7c8      	b.n	7162 <_puts_r+0x46>
    71d0:	0000adcc 	.word	0x0000adcc
    71d4:	0000adec 	.word	0x0000adec
    71d8:	0000adac 	.word	0x0000adac

000071dc <puts>:
    71dc:	b510      	push	{r4, lr}
    71de:	4b03      	ldr	r3, [pc, #12]	; (71ec <puts+0x10>)
    71e0:	0001      	movs	r1, r0
    71e2:	6818      	ldr	r0, [r3, #0]
    71e4:	f7ff ff9a 	bl	711c <_puts_r>
    71e8:	bd10      	pop	{r4, pc}
    71ea:	46c0      	nop			; (mov r8, r8)
    71ec:	20000200 	.word	0x20000200

000071f0 <rand>:
    71f0:	4b15      	ldr	r3, [pc, #84]	; (7248 <rand+0x58>)
    71f2:	b510      	push	{r4, lr}
    71f4:	681c      	ldr	r4, [r3, #0]
    71f6:	6ba3      	ldr	r3, [r4, #56]	; 0x38
    71f8:	2b00      	cmp	r3, #0
    71fa:	d115      	bne.n	7228 <rand+0x38>
    71fc:	2018      	movs	r0, #24
    71fe:	f7ff fe8f 	bl	6f20 <malloc>
    7202:	4b12      	ldr	r3, [pc, #72]	; (724c <rand+0x5c>)
    7204:	63a0      	str	r0, [r4, #56]	; 0x38
    7206:	8003      	strh	r3, [r0, #0]
    7208:	4b11      	ldr	r3, [pc, #68]	; (7250 <rand+0x60>)
    720a:	2201      	movs	r2, #1
    720c:	8043      	strh	r3, [r0, #2]
    720e:	4b11      	ldr	r3, [pc, #68]	; (7254 <rand+0x64>)
    7210:	8083      	strh	r3, [r0, #4]
    7212:	4b11      	ldr	r3, [pc, #68]	; (7258 <rand+0x68>)
    7214:	80c3      	strh	r3, [r0, #6]
    7216:	4b11      	ldr	r3, [pc, #68]	; (725c <rand+0x6c>)
    7218:	8103      	strh	r3, [r0, #8]
    721a:	2305      	movs	r3, #5
    721c:	8143      	strh	r3, [r0, #10]
    721e:	3306      	adds	r3, #6
    7220:	8183      	strh	r3, [r0, #12]
    7222:	2300      	movs	r3, #0
    7224:	6102      	str	r2, [r0, #16]
    7226:	6143      	str	r3, [r0, #20]
    7228:	6ba4      	ldr	r4, [r4, #56]	; 0x38
    722a:	4a0d      	ldr	r2, [pc, #52]	; (7260 <rand+0x70>)
    722c:	6920      	ldr	r0, [r4, #16]
    722e:	6961      	ldr	r1, [r4, #20]
    7230:	4b0c      	ldr	r3, [pc, #48]	; (7264 <rand+0x74>)
    7232:	f7ff fe11 	bl	6e58 <__aeabi_lmul>
    7236:	2201      	movs	r2, #1
    7238:	2300      	movs	r3, #0
    723a:	1880      	adds	r0, r0, r2
    723c:	4159      	adcs	r1, r3
    723e:	6120      	str	r0, [r4, #16]
    7240:	6161      	str	r1, [r4, #20]
    7242:	0048      	lsls	r0, r1, #1
    7244:	0840      	lsrs	r0, r0, #1
    7246:	bd10      	pop	{r4, pc}
    7248:	20000200 	.word	0x20000200
    724c:	0000330e 	.word	0x0000330e
    7250:	ffffabcd 	.word	0xffffabcd
    7254:	00001234 	.word	0x00001234
    7258:	ffffe66d 	.word	0xffffe66d
    725c:	ffffdeec 	.word	0xffffdeec
    7260:	4c957f2d 	.word	0x4c957f2d
    7264:	5851f42d 	.word	0x5851f42d

00007268 <_sbrk_r>:
    7268:	2300      	movs	r3, #0
    726a:	b570      	push	{r4, r5, r6, lr}
    726c:	4c06      	ldr	r4, [pc, #24]	; (7288 <_sbrk_r+0x20>)
    726e:	0005      	movs	r5, r0
    7270:	0008      	movs	r0, r1
    7272:	6023      	str	r3, [r4, #0]
    7274:	f7fc fc88 	bl	3b88 <_sbrk>
    7278:	1c43      	adds	r3, r0, #1
    727a:	d103      	bne.n	7284 <_sbrk_r+0x1c>
    727c:	6823      	ldr	r3, [r4, #0]
    727e:	2b00      	cmp	r3, #0
    7280:	d000      	beq.n	7284 <_sbrk_r+0x1c>
    7282:	602b      	str	r3, [r5, #0]
    7284:	bd70      	pop	{r4, r5, r6, pc}
    7286:	46c0      	nop			; (mov r8, r8)
    7288:	20002b9c 	.word	0x20002b9c

0000728c <setbuf>:
    728c:	424a      	negs	r2, r1
    728e:	414a      	adcs	r2, r1
    7290:	2380      	movs	r3, #128	; 0x80
    7292:	b510      	push	{r4, lr}
    7294:	0052      	lsls	r2, r2, #1
    7296:	00db      	lsls	r3, r3, #3
    7298:	f000 f802 	bl	72a0 <setvbuf>
    729c:	bd10      	pop	{r4, pc}
	...

000072a0 <setvbuf>:
    72a0:	b5f0      	push	{r4, r5, r6, r7, lr}
    72a2:	001d      	movs	r5, r3
    72a4:	4b4f      	ldr	r3, [pc, #316]	; (73e4 <setvbuf+0x144>)
    72a6:	b085      	sub	sp, #20
    72a8:	681e      	ldr	r6, [r3, #0]
    72aa:	0004      	movs	r4, r0
    72ac:	000f      	movs	r7, r1
    72ae:	9200      	str	r2, [sp, #0]
    72b0:	2e00      	cmp	r6, #0
    72b2:	d005      	beq.n	72c0 <setvbuf+0x20>
    72b4:	69b3      	ldr	r3, [r6, #24]
    72b6:	2b00      	cmp	r3, #0
    72b8:	d102      	bne.n	72c0 <setvbuf+0x20>
    72ba:	0030      	movs	r0, r6
    72bc:	f000 fa60 	bl	7780 <__sinit>
    72c0:	4b49      	ldr	r3, [pc, #292]	; (73e8 <setvbuf+0x148>)
    72c2:	429c      	cmp	r4, r3
    72c4:	d150      	bne.n	7368 <setvbuf+0xc8>
    72c6:	6874      	ldr	r4, [r6, #4]
    72c8:	9b00      	ldr	r3, [sp, #0]
    72ca:	2b02      	cmp	r3, #2
    72cc:	d005      	beq.n	72da <setvbuf+0x3a>
    72ce:	2b01      	cmp	r3, #1
    72d0:	d900      	bls.n	72d4 <setvbuf+0x34>
    72d2:	e084      	b.n	73de <setvbuf+0x13e>
    72d4:	2d00      	cmp	r5, #0
    72d6:	da00      	bge.n	72da <setvbuf+0x3a>
    72d8:	e081      	b.n	73de <setvbuf+0x13e>
    72da:	0021      	movs	r1, r4
    72dc:	0030      	movs	r0, r6
    72de:	f000 f9e1 	bl	76a4 <_fflush_r>
    72e2:	6b61      	ldr	r1, [r4, #52]	; 0x34
    72e4:	2900      	cmp	r1, #0
    72e6:	d008      	beq.n	72fa <setvbuf+0x5a>
    72e8:	0023      	movs	r3, r4
    72ea:	3344      	adds	r3, #68	; 0x44
    72ec:	4299      	cmp	r1, r3
    72ee:	d002      	beq.n	72f6 <setvbuf+0x56>
    72f0:	0030      	movs	r0, r6
    72f2:	f7ff fe51 	bl	6f98 <_free_r>
    72f6:	2300      	movs	r3, #0
    72f8:	6363      	str	r3, [r4, #52]	; 0x34
    72fa:	2300      	movs	r3, #0
    72fc:	61a3      	str	r3, [r4, #24]
    72fe:	6063      	str	r3, [r4, #4]
    7300:	89a3      	ldrh	r3, [r4, #12]
    7302:	061b      	lsls	r3, r3, #24
    7304:	d503      	bpl.n	730e <setvbuf+0x6e>
    7306:	6921      	ldr	r1, [r4, #16]
    7308:	0030      	movs	r0, r6
    730a:	f7ff fe45 	bl	6f98 <_free_r>
    730e:	89a3      	ldrh	r3, [r4, #12]
    7310:	4a36      	ldr	r2, [pc, #216]	; (73ec <setvbuf+0x14c>)
    7312:	4013      	ands	r3, r2
    7314:	81a3      	strh	r3, [r4, #12]
    7316:	9b00      	ldr	r3, [sp, #0]
    7318:	2b02      	cmp	r3, #2
    731a:	d05a      	beq.n	73d2 <setvbuf+0x132>
    731c:	ab03      	add	r3, sp, #12
    731e:	aa02      	add	r2, sp, #8
    7320:	0021      	movs	r1, r4
    7322:	0030      	movs	r0, r6
    7324:	f000 fac2 	bl	78ac <__swhatbuf_r>
    7328:	89a3      	ldrh	r3, [r4, #12]
    732a:	4318      	orrs	r0, r3
    732c:	81a0      	strh	r0, [r4, #12]
    732e:	2d00      	cmp	r5, #0
    7330:	d124      	bne.n	737c <setvbuf+0xdc>
    7332:	9d02      	ldr	r5, [sp, #8]
    7334:	0028      	movs	r0, r5
    7336:	f7ff fdf3 	bl	6f20 <malloc>
    733a:	9501      	str	r5, [sp, #4]
    733c:	1e07      	subs	r7, r0, #0
    733e:	d142      	bne.n	73c6 <setvbuf+0x126>
    7340:	9b02      	ldr	r3, [sp, #8]
    7342:	9301      	str	r3, [sp, #4]
    7344:	42ab      	cmp	r3, r5
    7346:	d139      	bne.n	73bc <setvbuf+0x11c>
    7348:	2001      	movs	r0, #1
    734a:	4240      	negs	r0, r0
    734c:	2302      	movs	r3, #2
    734e:	89a2      	ldrh	r2, [r4, #12]
    7350:	4313      	orrs	r3, r2
    7352:	81a3      	strh	r3, [r4, #12]
    7354:	2300      	movs	r3, #0
    7356:	60a3      	str	r3, [r4, #8]
    7358:	0023      	movs	r3, r4
    735a:	3347      	adds	r3, #71	; 0x47
    735c:	6023      	str	r3, [r4, #0]
    735e:	6123      	str	r3, [r4, #16]
    7360:	2301      	movs	r3, #1
    7362:	6163      	str	r3, [r4, #20]
    7364:	b005      	add	sp, #20
    7366:	bdf0      	pop	{r4, r5, r6, r7, pc}
    7368:	4b21      	ldr	r3, [pc, #132]	; (73f0 <setvbuf+0x150>)
    736a:	429c      	cmp	r4, r3
    736c:	d101      	bne.n	7372 <setvbuf+0xd2>
    736e:	68b4      	ldr	r4, [r6, #8]
    7370:	e7aa      	b.n	72c8 <setvbuf+0x28>
    7372:	4b20      	ldr	r3, [pc, #128]	; (73f4 <setvbuf+0x154>)
    7374:	429c      	cmp	r4, r3
    7376:	d1a7      	bne.n	72c8 <setvbuf+0x28>
    7378:	68f4      	ldr	r4, [r6, #12]
    737a:	e7a5      	b.n	72c8 <setvbuf+0x28>
    737c:	2f00      	cmp	r7, #0
    737e:	d0d9      	beq.n	7334 <setvbuf+0x94>
    7380:	69b3      	ldr	r3, [r6, #24]
    7382:	2b00      	cmp	r3, #0
    7384:	d102      	bne.n	738c <setvbuf+0xec>
    7386:	0030      	movs	r0, r6
    7388:	f000 f9fa 	bl	7780 <__sinit>
    738c:	9b00      	ldr	r3, [sp, #0]
    738e:	2b01      	cmp	r3, #1
    7390:	d103      	bne.n	739a <setvbuf+0xfa>
    7392:	89a3      	ldrh	r3, [r4, #12]
    7394:	9a00      	ldr	r2, [sp, #0]
    7396:	431a      	orrs	r2, r3
    7398:	81a2      	strh	r2, [r4, #12]
    739a:	2008      	movs	r0, #8
    739c:	89a3      	ldrh	r3, [r4, #12]
    739e:	6027      	str	r7, [r4, #0]
    73a0:	6127      	str	r7, [r4, #16]
    73a2:	6165      	str	r5, [r4, #20]
    73a4:	4018      	ands	r0, r3
    73a6:	d018      	beq.n	73da <setvbuf+0x13a>
    73a8:	2001      	movs	r0, #1
    73aa:	4018      	ands	r0, r3
    73ac:	2300      	movs	r3, #0
    73ae:	4298      	cmp	r0, r3
    73b0:	d011      	beq.n	73d6 <setvbuf+0x136>
    73b2:	426d      	negs	r5, r5
    73b4:	60a3      	str	r3, [r4, #8]
    73b6:	61a5      	str	r5, [r4, #24]
    73b8:	0018      	movs	r0, r3
    73ba:	e7d3      	b.n	7364 <setvbuf+0xc4>
    73bc:	9801      	ldr	r0, [sp, #4]
    73be:	f7ff fdaf 	bl	6f20 <malloc>
    73c2:	1e07      	subs	r7, r0, #0
    73c4:	d0c0      	beq.n	7348 <setvbuf+0xa8>
    73c6:	2380      	movs	r3, #128	; 0x80
    73c8:	89a2      	ldrh	r2, [r4, #12]
    73ca:	9d01      	ldr	r5, [sp, #4]
    73cc:	4313      	orrs	r3, r2
    73ce:	81a3      	strh	r3, [r4, #12]
    73d0:	e7d6      	b.n	7380 <setvbuf+0xe0>
    73d2:	2000      	movs	r0, #0
    73d4:	e7ba      	b.n	734c <setvbuf+0xac>
    73d6:	60a5      	str	r5, [r4, #8]
    73d8:	e7c4      	b.n	7364 <setvbuf+0xc4>
    73da:	60a0      	str	r0, [r4, #8]
    73dc:	e7c2      	b.n	7364 <setvbuf+0xc4>
    73de:	2001      	movs	r0, #1
    73e0:	4240      	negs	r0, r0
    73e2:	e7bf      	b.n	7364 <setvbuf+0xc4>
    73e4:	20000200 	.word	0x20000200
    73e8:	0000adcc 	.word	0x0000adcc
    73ec:	fffff35c 	.word	0xfffff35c
    73f0:	0000adec 	.word	0x0000adec
    73f4:	0000adac 	.word	0x0000adac

000073f8 <__swbuf_r>:
    73f8:	b5f8      	push	{r3, r4, r5, r6, r7, lr}
    73fa:	0005      	movs	r5, r0
    73fc:	000e      	movs	r6, r1
    73fe:	0014      	movs	r4, r2
    7400:	2800      	cmp	r0, #0
    7402:	d004      	beq.n	740e <__swbuf_r+0x16>
    7404:	6983      	ldr	r3, [r0, #24]
    7406:	2b00      	cmp	r3, #0
    7408:	d101      	bne.n	740e <__swbuf_r+0x16>
    740a:	f000 f9b9 	bl	7780 <__sinit>
    740e:	4b22      	ldr	r3, [pc, #136]	; (7498 <__swbuf_r+0xa0>)
    7410:	429c      	cmp	r4, r3
    7412:	d12d      	bne.n	7470 <__swbuf_r+0x78>
    7414:	686c      	ldr	r4, [r5, #4]
    7416:	69a3      	ldr	r3, [r4, #24]
    7418:	60a3      	str	r3, [r4, #8]
    741a:	89a3      	ldrh	r3, [r4, #12]
    741c:	071b      	lsls	r3, r3, #28
    741e:	d531      	bpl.n	7484 <__swbuf_r+0x8c>
    7420:	6923      	ldr	r3, [r4, #16]
    7422:	2b00      	cmp	r3, #0
    7424:	d02e      	beq.n	7484 <__swbuf_r+0x8c>
    7426:	6823      	ldr	r3, [r4, #0]
    7428:	6922      	ldr	r2, [r4, #16]
    742a:	b2f7      	uxtb	r7, r6
    742c:	1a98      	subs	r0, r3, r2
    742e:	6963      	ldr	r3, [r4, #20]
    7430:	b2f6      	uxtb	r6, r6
    7432:	4298      	cmp	r0, r3
    7434:	db05      	blt.n	7442 <__swbuf_r+0x4a>
    7436:	0021      	movs	r1, r4
    7438:	0028      	movs	r0, r5
    743a:	f000 f933 	bl	76a4 <_fflush_r>
    743e:	2800      	cmp	r0, #0
    7440:	d126      	bne.n	7490 <__swbuf_r+0x98>
    7442:	68a3      	ldr	r3, [r4, #8]
    7444:	3001      	adds	r0, #1
    7446:	3b01      	subs	r3, #1
    7448:	60a3      	str	r3, [r4, #8]
    744a:	6823      	ldr	r3, [r4, #0]
    744c:	1c5a      	adds	r2, r3, #1
    744e:	6022      	str	r2, [r4, #0]
    7450:	701f      	strb	r7, [r3, #0]
    7452:	6963      	ldr	r3, [r4, #20]
    7454:	4298      	cmp	r0, r3
    7456:	d004      	beq.n	7462 <__swbuf_r+0x6a>
    7458:	89a3      	ldrh	r3, [r4, #12]
    745a:	07db      	lsls	r3, r3, #31
    745c:	d51a      	bpl.n	7494 <__swbuf_r+0x9c>
    745e:	2e0a      	cmp	r6, #10
    7460:	d118      	bne.n	7494 <__swbuf_r+0x9c>
    7462:	0021      	movs	r1, r4
    7464:	0028      	movs	r0, r5
    7466:	f000 f91d 	bl	76a4 <_fflush_r>
    746a:	2800      	cmp	r0, #0
    746c:	d012      	beq.n	7494 <__swbuf_r+0x9c>
    746e:	e00f      	b.n	7490 <__swbuf_r+0x98>
    7470:	4b0a      	ldr	r3, [pc, #40]	; (749c <__swbuf_r+0xa4>)
    7472:	429c      	cmp	r4, r3
    7474:	d101      	bne.n	747a <__swbuf_r+0x82>
    7476:	68ac      	ldr	r4, [r5, #8]
    7478:	e7cd      	b.n	7416 <__swbuf_r+0x1e>
    747a:	4b09      	ldr	r3, [pc, #36]	; (74a0 <__swbuf_r+0xa8>)
    747c:	429c      	cmp	r4, r3
    747e:	d1ca      	bne.n	7416 <__swbuf_r+0x1e>
    7480:	68ec      	ldr	r4, [r5, #12]
    7482:	e7c8      	b.n	7416 <__swbuf_r+0x1e>
    7484:	0021      	movs	r1, r4
    7486:	0028      	movs	r0, r5
    7488:	f000 f80c 	bl	74a4 <__swsetup_r>
    748c:	2800      	cmp	r0, #0
    748e:	d0ca      	beq.n	7426 <__swbuf_r+0x2e>
    7490:	2601      	movs	r6, #1
    7492:	4276      	negs	r6, r6
    7494:	0030      	movs	r0, r6
    7496:	bdf8      	pop	{r3, r4, r5, r6, r7, pc}
    7498:	0000adcc 	.word	0x0000adcc
    749c:	0000adec 	.word	0x0000adec
    74a0:	0000adac 	.word	0x0000adac

000074a4 <__swsetup_r>:
    74a4:	4b36      	ldr	r3, [pc, #216]	; (7580 <__swsetup_r+0xdc>)
    74a6:	b570      	push	{r4, r5, r6, lr}
    74a8:	681d      	ldr	r5, [r3, #0]
    74aa:	0006      	movs	r6, r0
    74ac:	000c      	movs	r4, r1
    74ae:	2d00      	cmp	r5, #0
    74b0:	d005      	beq.n	74be <__swsetup_r+0x1a>
    74b2:	69ab      	ldr	r3, [r5, #24]
    74b4:	2b00      	cmp	r3, #0
    74b6:	d102      	bne.n	74be <__swsetup_r+0x1a>
    74b8:	0028      	movs	r0, r5
    74ba:	f000 f961 	bl	7780 <__sinit>
    74be:	4b31      	ldr	r3, [pc, #196]	; (7584 <__swsetup_r+0xe0>)
    74c0:	429c      	cmp	r4, r3
    74c2:	d10f      	bne.n	74e4 <__swsetup_r+0x40>
    74c4:	686c      	ldr	r4, [r5, #4]
    74c6:	230c      	movs	r3, #12
    74c8:	5ee2      	ldrsh	r2, [r4, r3]
    74ca:	b293      	uxth	r3, r2
    74cc:	0719      	lsls	r1, r3, #28
    74ce:	d42d      	bmi.n	752c <__swsetup_r+0x88>
    74d0:	06d9      	lsls	r1, r3, #27
    74d2:	d411      	bmi.n	74f8 <__swsetup_r+0x54>
    74d4:	2309      	movs	r3, #9
    74d6:	2001      	movs	r0, #1
    74d8:	6033      	str	r3, [r6, #0]
    74da:	3337      	adds	r3, #55	; 0x37
    74dc:	4313      	orrs	r3, r2
    74de:	81a3      	strh	r3, [r4, #12]
    74e0:	4240      	negs	r0, r0
    74e2:	bd70      	pop	{r4, r5, r6, pc}
    74e4:	4b28      	ldr	r3, [pc, #160]	; (7588 <__swsetup_r+0xe4>)
    74e6:	429c      	cmp	r4, r3
    74e8:	d101      	bne.n	74ee <__swsetup_r+0x4a>
    74ea:	68ac      	ldr	r4, [r5, #8]
    74ec:	e7eb      	b.n	74c6 <__swsetup_r+0x22>
    74ee:	4b27      	ldr	r3, [pc, #156]	; (758c <__swsetup_r+0xe8>)
    74f0:	429c      	cmp	r4, r3
    74f2:	d1e8      	bne.n	74c6 <__swsetup_r+0x22>
    74f4:	68ec      	ldr	r4, [r5, #12]
    74f6:	e7e6      	b.n	74c6 <__swsetup_r+0x22>
    74f8:	075b      	lsls	r3, r3, #29
    74fa:	d513      	bpl.n	7524 <__swsetup_r+0x80>
    74fc:	6b61      	ldr	r1, [r4, #52]	; 0x34
    74fe:	2900      	cmp	r1, #0
    7500:	d008      	beq.n	7514 <__swsetup_r+0x70>
    7502:	0023      	movs	r3, r4
    7504:	3344      	adds	r3, #68	; 0x44
    7506:	4299      	cmp	r1, r3
    7508:	d002      	beq.n	7510 <__swsetup_r+0x6c>
    750a:	0030      	movs	r0, r6
    750c:	f7ff fd44 	bl	6f98 <_free_r>
    7510:	2300      	movs	r3, #0
    7512:	6363      	str	r3, [r4, #52]	; 0x34
    7514:	2224      	movs	r2, #36	; 0x24
    7516:	89a3      	ldrh	r3, [r4, #12]
    7518:	4393      	bics	r3, r2
    751a:	81a3      	strh	r3, [r4, #12]
    751c:	2300      	movs	r3, #0
    751e:	6063      	str	r3, [r4, #4]
    7520:	6923      	ldr	r3, [r4, #16]
    7522:	6023      	str	r3, [r4, #0]
    7524:	2308      	movs	r3, #8
    7526:	89a2      	ldrh	r2, [r4, #12]
    7528:	4313      	orrs	r3, r2
    752a:	81a3      	strh	r3, [r4, #12]
    752c:	6923      	ldr	r3, [r4, #16]
    752e:	2b00      	cmp	r3, #0
    7530:	d10b      	bne.n	754a <__swsetup_r+0xa6>
    7532:	21a0      	movs	r1, #160	; 0xa0
    7534:	2280      	movs	r2, #128	; 0x80
    7536:	89a3      	ldrh	r3, [r4, #12]
    7538:	0089      	lsls	r1, r1, #2
    753a:	0092      	lsls	r2, r2, #2
    753c:	400b      	ands	r3, r1
    753e:	4293      	cmp	r3, r2
    7540:	d003      	beq.n	754a <__swsetup_r+0xa6>
    7542:	0021      	movs	r1, r4
    7544:	0030      	movs	r0, r6
    7546:	f000 f9d9 	bl	78fc <__smakebuf_r>
    754a:	2301      	movs	r3, #1
    754c:	89a2      	ldrh	r2, [r4, #12]
    754e:	4013      	ands	r3, r2
    7550:	d011      	beq.n	7576 <__swsetup_r+0xd2>
    7552:	2300      	movs	r3, #0
    7554:	60a3      	str	r3, [r4, #8]
    7556:	6963      	ldr	r3, [r4, #20]
    7558:	425b      	negs	r3, r3
    755a:	61a3      	str	r3, [r4, #24]
    755c:	2000      	movs	r0, #0
    755e:	6923      	ldr	r3, [r4, #16]
    7560:	4283      	cmp	r3, r0
    7562:	d1be      	bne.n	74e2 <__swsetup_r+0x3e>
    7564:	230c      	movs	r3, #12
    7566:	5ee2      	ldrsh	r2, [r4, r3]
    7568:	0613      	lsls	r3, r2, #24
    756a:	d5ba      	bpl.n	74e2 <__swsetup_r+0x3e>
    756c:	2340      	movs	r3, #64	; 0x40
    756e:	4313      	orrs	r3, r2
    7570:	81a3      	strh	r3, [r4, #12]
    7572:	3801      	subs	r0, #1
    7574:	e7b5      	b.n	74e2 <__swsetup_r+0x3e>
    7576:	0792      	lsls	r2, r2, #30
    7578:	d400      	bmi.n	757c <__swsetup_r+0xd8>
    757a:	6963      	ldr	r3, [r4, #20]
    757c:	60a3      	str	r3, [r4, #8]
    757e:	e7ed      	b.n	755c <__swsetup_r+0xb8>
    7580:	20000200 	.word	0x20000200
    7584:	0000adcc 	.word	0x0000adcc
    7588:	0000adec 	.word	0x0000adec
    758c:	0000adac 	.word	0x0000adac

00007590 <__sflush_r>:
    7590:	b5f7      	push	{r0, r1, r2, r4, r5, r6, r7, lr}
    7592:	898a      	ldrh	r2, [r1, #12]
    7594:	0005      	movs	r5, r0
    7596:	000c      	movs	r4, r1
    7598:	0713      	lsls	r3, r2, #28
    759a:	d460      	bmi.n	765e <__sflush_r+0xce>
    759c:	684b      	ldr	r3, [r1, #4]
    759e:	2b00      	cmp	r3, #0
    75a0:	dc04      	bgt.n	75ac <__sflush_r+0x1c>
    75a2:	6c0b      	ldr	r3, [r1, #64]	; 0x40
    75a4:	2b00      	cmp	r3, #0
    75a6:	dc01      	bgt.n	75ac <__sflush_r+0x1c>
    75a8:	2000      	movs	r0, #0
    75aa:	bdfe      	pop	{r1, r2, r3, r4, r5, r6, r7, pc}
    75ac:	6ae7      	ldr	r7, [r4, #44]	; 0x2c
    75ae:	2f00      	cmp	r7, #0
    75b0:	d0fa      	beq.n	75a8 <__sflush_r+0x18>
    75b2:	2300      	movs	r3, #0
    75b4:	682e      	ldr	r6, [r5, #0]
    75b6:	602b      	str	r3, [r5, #0]
    75b8:	2380      	movs	r3, #128	; 0x80
    75ba:	015b      	lsls	r3, r3, #5
    75bc:	401a      	ands	r2, r3
    75be:	d034      	beq.n	762a <__sflush_r+0x9a>
    75c0:	6d60      	ldr	r0, [r4, #84]	; 0x54
    75c2:	89a3      	ldrh	r3, [r4, #12]
    75c4:	075b      	lsls	r3, r3, #29
    75c6:	d506      	bpl.n	75d6 <__sflush_r+0x46>
    75c8:	6863      	ldr	r3, [r4, #4]
    75ca:	1ac0      	subs	r0, r0, r3
    75cc:	6b63      	ldr	r3, [r4, #52]	; 0x34
    75ce:	2b00      	cmp	r3, #0
    75d0:	d001      	beq.n	75d6 <__sflush_r+0x46>
    75d2:	6c23      	ldr	r3, [r4, #64]	; 0x40
    75d4:	1ac0      	subs	r0, r0, r3
    75d6:	0002      	movs	r2, r0
    75d8:	6a21      	ldr	r1, [r4, #32]
    75da:	2300      	movs	r3, #0
    75dc:	0028      	movs	r0, r5
    75de:	6ae7      	ldr	r7, [r4, #44]	; 0x2c
    75e0:	47b8      	blx	r7
    75e2:	89a1      	ldrh	r1, [r4, #12]
    75e4:	1c43      	adds	r3, r0, #1
    75e6:	d106      	bne.n	75f6 <__sflush_r+0x66>
    75e8:	682b      	ldr	r3, [r5, #0]
    75ea:	2b1d      	cmp	r3, #29
    75ec:	d831      	bhi.n	7652 <__sflush_r+0xc2>
    75ee:	4a2c      	ldr	r2, [pc, #176]	; (76a0 <__sflush_r+0x110>)
    75f0:	40da      	lsrs	r2, r3
    75f2:	07d3      	lsls	r3, r2, #31
    75f4:	d52d      	bpl.n	7652 <__sflush_r+0xc2>
    75f6:	2300      	movs	r3, #0
    75f8:	6063      	str	r3, [r4, #4]
    75fa:	6923      	ldr	r3, [r4, #16]
    75fc:	6023      	str	r3, [r4, #0]
    75fe:	04cb      	lsls	r3, r1, #19
    7600:	d505      	bpl.n	760e <__sflush_r+0x7e>
    7602:	1c43      	adds	r3, r0, #1
    7604:	d102      	bne.n	760c <__sflush_r+0x7c>
    7606:	682b      	ldr	r3, [r5, #0]
    7608:	2b00      	cmp	r3, #0
    760a:	d100      	bne.n	760e <__sflush_r+0x7e>
    760c:	6560      	str	r0, [r4, #84]	; 0x54
    760e:	6b61      	ldr	r1, [r4, #52]	; 0x34
    7610:	602e      	str	r6, [r5, #0]
    7612:	2900      	cmp	r1, #0
    7614:	d0c8      	beq.n	75a8 <__sflush_r+0x18>
    7616:	0023      	movs	r3, r4
    7618:	3344      	adds	r3, #68	; 0x44
    761a:	4299      	cmp	r1, r3
    761c:	d002      	beq.n	7624 <__sflush_r+0x94>
    761e:	0028      	movs	r0, r5
    7620:	f7ff fcba 	bl	6f98 <_free_r>
    7624:	2000      	movs	r0, #0
    7626:	6360      	str	r0, [r4, #52]	; 0x34
    7628:	e7bf      	b.n	75aa <__sflush_r+0x1a>
    762a:	2301      	movs	r3, #1
    762c:	6a21      	ldr	r1, [r4, #32]
    762e:	0028      	movs	r0, r5
    7630:	47b8      	blx	r7
    7632:	1c43      	adds	r3, r0, #1
    7634:	d1c5      	bne.n	75c2 <__sflush_r+0x32>
    7636:	682b      	ldr	r3, [r5, #0]
    7638:	2b00      	cmp	r3, #0
    763a:	d0c2      	beq.n	75c2 <__sflush_r+0x32>
    763c:	2b1d      	cmp	r3, #29
    763e:	d001      	beq.n	7644 <__sflush_r+0xb4>
    7640:	2b16      	cmp	r3, #22
    7642:	d101      	bne.n	7648 <__sflush_r+0xb8>
    7644:	602e      	str	r6, [r5, #0]
    7646:	e7af      	b.n	75a8 <__sflush_r+0x18>
    7648:	2340      	movs	r3, #64	; 0x40
    764a:	89a2      	ldrh	r2, [r4, #12]
    764c:	4313      	orrs	r3, r2
    764e:	81a3      	strh	r3, [r4, #12]
    7650:	e7ab      	b.n	75aa <__sflush_r+0x1a>
    7652:	2340      	movs	r3, #64	; 0x40
    7654:	430b      	orrs	r3, r1
    7656:	2001      	movs	r0, #1
    7658:	81a3      	strh	r3, [r4, #12]
    765a:	4240      	negs	r0, r0
    765c:	e7a5      	b.n	75aa <__sflush_r+0x1a>
    765e:	690f      	ldr	r7, [r1, #16]
    7660:	2f00      	cmp	r7, #0
    7662:	d0a1      	beq.n	75a8 <__sflush_r+0x18>
    7664:	680b      	ldr	r3, [r1, #0]
    7666:	600f      	str	r7, [r1, #0]
    7668:	1bdb      	subs	r3, r3, r7
    766a:	9301      	str	r3, [sp, #4]
    766c:	2300      	movs	r3, #0
    766e:	0792      	lsls	r2, r2, #30
    7670:	d100      	bne.n	7674 <__sflush_r+0xe4>
    7672:	694b      	ldr	r3, [r1, #20]
    7674:	60a3      	str	r3, [r4, #8]
    7676:	9b01      	ldr	r3, [sp, #4]
    7678:	2b00      	cmp	r3, #0
    767a:	dc00      	bgt.n	767e <__sflush_r+0xee>
    767c:	e794      	b.n	75a8 <__sflush_r+0x18>
    767e:	9b01      	ldr	r3, [sp, #4]
    7680:	003a      	movs	r2, r7
    7682:	6a21      	ldr	r1, [r4, #32]
    7684:	0028      	movs	r0, r5
    7686:	6aa6      	ldr	r6, [r4, #40]	; 0x28
    7688:	47b0      	blx	r6
    768a:	2800      	cmp	r0, #0
    768c:	dc03      	bgt.n	7696 <__sflush_r+0x106>
    768e:	2340      	movs	r3, #64	; 0x40
    7690:	89a2      	ldrh	r2, [r4, #12]
    7692:	4313      	orrs	r3, r2
    7694:	e7df      	b.n	7656 <__sflush_r+0xc6>
    7696:	9b01      	ldr	r3, [sp, #4]
    7698:	183f      	adds	r7, r7, r0
    769a:	1a1b      	subs	r3, r3, r0
    769c:	9301      	str	r3, [sp, #4]
    769e:	e7ea      	b.n	7676 <__sflush_r+0xe6>
    76a0:	20400001 	.word	0x20400001

000076a4 <_fflush_r>:
    76a4:	690b      	ldr	r3, [r1, #16]
    76a6:	b570      	push	{r4, r5, r6, lr}
    76a8:	0005      	movs	r5, r0
    76aa:	000c      	movs	r4, r1
    76ac:	2b00      	cmp	r3, #0
    76ae:	d101      	bne.n	76b4 <_fflush_r+0x10>
    76b0:	2000      	movs	r0, #0
    76b2:	bd70      	pop	{r4, r5, r6, pc}
    76b4:	2800      	cmp	r0, #0
    76b6:	d004      	beq.n	76c2 <_fflush_r+0x1e>
    76b8:	6983      	ldr	r3, [r0, #24]
    76ba:	2b00      	cmp	r3, #0
    76bc:	d101      	bne.n	76c2 <_fflush_r+0x1e>
    76be:	f000 f85f 	bl	7780 <__sinit>
    76c2:	4b0b      	ldr	r3, [pc, #44]	; (76f0 <_fflush_r+0x4c>)
    76c4:	429c      	cmp	r4, r3
    76c6:	d109      	bne.n	76dc <_fflush_r+0x38>
    76c8:	686c      	ldr	r4, [r5, #4]
    76ca:	220c      	movs	r2, #12
    76cc:	5ea3      	ldrsh	r3, [r4, r2]
    76ce:	2b00      	cmp	r3, #0
    76d0:	d0ee      	beq.n	76b0 <_fflush_r+0xc>
    76d2:	0021      	movs	r1, r4
    76d4:	0028      	movs	r0, r5
    76d6:	f7ff ff5b 	bl	7590 <__sflush_r>
    76da:	e7ea      	b.n	76b2 <_fflush_r+0xe>
    76dc:	4b05      	ldr	r3, [pc, #20]	; (76f4 <_fflush_r+0x50>)
    76de:	429c      	cmp	r4, r3
    76e0:	d101      	bne.n	76e6 <_fflush_r+0x42>
    76e2:	68ac      	ldr	r4, [r5, #8]
    76e4:	e7f1      	b.n	76ca <_fflush_r+0x26>
    76e6:	4b04      	ldr	r3, [pc, #16]	; (76f8 <_fflush_r+0x54>)
    76e8:	429c      	cmp	r4, r3
    76ea:	d1ee      	bne.n	76ca <_fflush_r+0x26>
    76ec:	68ec      	ldr	r4, [r5, #12]
    76ee:	e7ec      	b.n	76ca <_fflush_r+0x26>
    76f0:	0000adcc 	.word	0x0000adcc
    76f4:	0000adec 	.word	0x0000adec
    76f8:	0000adac 	.word	0x0000adac

000076fc <_cleanup_r>:
    76fc:	b510      	push	{r4, lr}
    76fe:	4902      	ldr	r1, [pc, #8]	; (7708 <_cleanup_r+0xc>)
    7700:	f000 f8b2 	bl	7868 <_fwalk_reent>
    7704:	bd10      	pop	{r4, pc}
    7706:	46c0      	nop			; (mov r8, r8)
    7708:	000076a5 	.word	0x000076a5

0000770c <std.isra.0>:
    770c:	2300      	movs	r3, #0
    770e:	b510      	push	{r4, lr}
    7710:	0004      	movs	r4, r0
    7712:	6003      	str	r3, [r0, #0]
    7714:	6043      	str	r3, [r0, #4]
    7716:	6083      	str	r3, [r0, #8]
    7718:	8181      	strh	r1, [r0, #12]
    771a:	6643      	str	r3, [r0, #100]	; 0x64
    771c:	81c2      	strh	r2, [r0, #14]
    771e:	6103      	str	r3, [r0, #16]
    7720:	6143      	str	r3, [r0, #20]
    7722:	6183      	str	r3, [r0, #24]
    7724:	0019      	movs	r1, r3
    7726:	2208      	movs	r2, #8
    7728:	305c      	adds	r0, #92	; 0x5c
    772a:	f7ff fc2d 	bl	6f88 <memset>
    772e:	4b05      	ldr	r3, [pc, #20]	; (7744 <std.isra.0+0x38>)
    7730:	6224      	str	r4, [r4, #32]
    7732:	6263      	str	r3, [r4, #36]	; 0x24
    7734:	4b04      	ldr	r3, [pc, #16]	; (7748 <std.isra.0+0x3c>)
    7736:	62a3      	str	r3, [r4, #40]	; 0x28
    7738:	4b04      	ldr	r3, [pc, #16]	; (774c <std.isra.0+0x40>)
    773a:	62e3      	str	r3, [r4, #44]	; 0x2c
    773c:	4b04      	ldr	r3, [pc, #16]	; (7750 <std.isra.0+0x44>)
    773e:	6323      	str	r3, [r4, #48]	; 0x30
    7740:	bd10      	pop	{r4, pc}
    7742:	46c0      	nop			; (mov r8, r8)
    7744:	00007f21 	.word	0x00007f21
    7748:	00007f49 	.word	0x00007f49
    774c:	00007f81 	.word	0x00007f81
    7750:	00007fad 	.word	0x00007fad

00007754 <__sfmoreglue>:
    7754:	b570      	push	{r4, r5, r6, lr}
    7756:	2568      	movs	r5, #104	; 0x68
    7758:	1e4a      	subs	r2, r1, #1
    775a:	4355      	muls	r5, r2
    775c:	000e      	movs	r6, r1
    775e:	0029      	movs	r1, r5
    7760:	3174      	adds	r1, #116	; 0x74
    7762:	f7ff fc63 	bl	702c <_malloc_r>
    7766:	1e04      	subs	r4, r0, #0
    7768:	d008      	beq.n	777c <__sfmoreglue+0x28>
    776a:	2100      	movs	r1, #0
    776c:	002a      	movs	r2, r5
    776e:	6001      	str	r1, [r0, #0]
    7770:	6046      	str	r6, [r0, #4]
    7772:	300c      	adds	r0, #12
    7774:	60a0      	str	r0, [r4, #8]
    7776:	3268      	adds	r2, #104	; 0x68
    7778:	f7ff fc06 	bl	6f88 <memset>
    777c:	0020      	movs	r0, r4
    777e:	bd70      	pop	{r4, r5, r6, pc}

00007780 <__sinit>:
    7780:	6983      	ldr	r3, [r0, #24]
    7782:	b513      	push	{r0, r1, r4, lr}
    7784:	0004      	movs	r4, r0
    7786:	2b00      	cmp	r3, #0
    7788:	d128      	bne.n	77dc <__sinit+0x5c>
    778a:	6483      	str	r3, [r0, #72]	; 0x48
    778c:	64c3      	str	r3, [r0, #76]	; 0x4c
    778e:	6503      	str	r3, [r0, #80]	; 0x50
    7790:	4b13      	ldr	r3, [pc, #76]	; (77e0 <__sinit+0x60>)
    7792:	4a14      	ldr	r2, [pc, #80]	; (77e4 <__sinit+0x64>)
    7794:	681b      	ldr	r3, [r3, #0]
    7796:	6282      	str	r2, [r0, #40]	; 0x28
    7798:	9301      	str	r3, [sp, #4]
    779a:	4298      	cmp	r0, r3
    779c:	d101      	bne.n	77a2 <__sinit+0x22>
    779e:	2301      	movs	r3, #1
    77a0:	6183      	str	r3, [r0, #24]
    77a2:	0020      	movs	r0, r4
    77a4:	f000 f820 	bl	77e8 <__sfp>
    77a8:	6060      	str	r0, [r4, #4]
    77aa:	0020      	movs	r0, r4
    77ac:	f000 f81c 	bl	77e8 <__sfp>
    77b0:	60a0      	str	r0, [r4, #8]
    77b2:	0020      	movs	r0, r4
    77b4:	f000 f818 	bl	77e8 <__sfp>
    77b8:	2200      	movs	r2, #0
    77ba:	60e0      	str	r0, [r4, #12]
    77bc:	2104      	movs	r1, #4
    77be:	6860      	ldr	r0, [r4, #4]
    77c0:	f7ff ffa4 	bl	770c <std.isra.0>
    77c4:	2201      	movs	r2, #1
    77c6:	2109      	movs	r1, #9
    77c8:	68a0      	ldr	r0, [r4, #8]
    77ca:	f7ff ff9f 	bl	770c <std.isra.0>
    77ce:	2202      	movs	r2, #2
    77d0:	2112      	movs	r1, #18
    77d2:	68e0      	ldr	r0, [r4, #12]
    77d4:	f7ff ff9a 	bl	770c <std.isra.0>
    77d8:	2301      	movs	r3, #1
    77da:	61a3      	str	r3, [r4, #24]
    77dc:	bd13      	pop	{r0, r1, r4, pc}
    77de:	46c0      	nop			; (mov r8, r8)
    77e0:	0000ada8 	.word	0x0000ada8
    77e4:	000076fd 	.word	0x000076fd

000077e8 <__sfp>:
    77e8:	b5f8      	push	{r3, r4, r5, r6, r7, lr}
    77ea:	4b1e      	ldr	r3, [pc, #120]	; (7864 <__sfp+0x7c>)
    77ec:	0007      	movs	r7, r0
    77ee:	681e      	ldr	r6, [r3, #0]
    77f0:	69b3      	ldr	r3, [r6, #24]
    77f2:	2b00      	cmp	r3, #0
    77f4:	d102      	bne.n	77fc <__sfp+0x14>
    77f6:	0030      	movs	r0, r6
    77f8:	f7ff ffc2 	bl	7780 <__sinit>
    77fc:	3648      	adds	r6, #72	; 0x48
    77fe:	68b4      	ldr	r4, [r6, #8]
    7800:	6873      	ldr	r3, [r6, #4]
    7802:	3b01      	subs	r3, #1
    7804:	d504      	bpl.n	7810 <__sfp+0x28>
    7806:	6833      	ldr	r3, [r6, #0]
    7808:	2b00      	cmp	r3, #0
    780a:	d007      	beq.n	781c <__sfp+0x34>
    780c:	6836      	ldr	r6, [r6, #0]
    780e:	e7f6      	b.n	77fe <__sfp+0x16>
    7810:	220c      	movs	r2, #12
    7812:	5ea5      	ldrsh	r5, [r4, r2]
    7814:	2d00      	cmp	r5, #0
    7816:	d00d      	beq.n	7834 <__sfp+0x4c>
    7818:	3468      	adds	r4, #104	; 0x68
    781a:	e7f2      	b.n	7802 <__sfp+0x1a>
    781c:	2104      	movs	r1, #4
    781e:	0038      	movs	r0, r7
    7820:	f7ff ff98 	bl	7754 <__sfmoreglue>
    7824:	6030      	str	r0, [r6, #0]
    7826:	2800      	cmp	r0, #0
    7828:	d1f0      	bne.n	780c <__sfp+0x24>
    782a:	230c      	movs	r3, #12
    782c:	0004      	movs	r4, r0
    782e:	603b      	str	r3, [r7, #0]
    7830:	0020      	movs	r0, r4
    7832:	bdf8      	pop	{r3, r4, r5, r6, r7, pc}
    7834:	2301      	movs	r3, #1
    7836:	0020      	movs	r0, r4
    7838:	425b      	negs	r3, r3
    783a:	81e3      	strh	r3, [r4, #14]
    783c:	3302      	adds	r3, #2
    783e:	81a3      	strh	r3, [r4, #12]
    7840:	6665      	str	r5, [r4, #100]	; 0x64
    7842:	6025      	str	r5, [r4, #0]
    7844:	60a5      	str	r5, [r4, #8]
    7846:	6065      	str	r5, [r4, #4]
    7848:	6125      	str	r5, [r4, #16]
    784a:	6165      	str	r5, [r4, #20]
    784c:	61a5      	str	r5, [r4, #24]
    784e:	2208      	movs	r2, #8
    7850:	0029      	movs	r1, r5
    7852:	305c      	adds	r0, #92	; 0x5c
    7854:	f7ff fb98 	bl	6f88 <memset>
    7858:	6365      	str	r5, [r4, #52]	; 0x34
    785a:	63a5      	str	r5, [r4, #56]	; 0x38
    785c:	64a5      	str	r5, [r4, #72]	; 0x48
    785e:	64e5      	str	r5, [r4, #76]	; 0x4c
    7860:	e7e6      	b.n	7830 <__sfp+0x48>
    7862:	46c0      	nop			; (mov r8, r8)
    7864:	0000ada8 	.word	0x0000ada8

00007868 <_fwalk_reent>:
    7868:	b5f7      	push	{r0, r1, r2, r4, r5, r6, r7, lr}
    786a:	0004      	movs	r4, r0
    786c:	0007      	movs	r7, r0
    786e:	2600      	movs	r6, #0
    7870:	9101      	str	r1, [sp, #4]
    7872:	3448      	adds	r4, #72	; 0x48
    7874:	2c00      	cmp	r4, #0
    7876:	d101      	bne.n	787c <_fwalk_reent+0x14>
    7878:	0030      	movs	r0, r6
    787a:	bdfe      	pop	{r1, r2, r3, r4, r5, r6, r7, pc}
    787c:	6863      	ldr	r3, [r4, #4]
    787e:	68a5      	ldr	r5, [r4, #8]
    7880:	9300      	str	r3, [sp, #0]
    7882:	9b00      	ldr	r3, [sp, #0]
    7884:	3b01      	subs	r3, #1
    7886:	9300      	str	r3, [sp, #0]
    7888:	d501      	bpl.n	788e <_fwalk_reent+0x26>
    788a:	6824      	ldr	r4, [r4, #0]
    788c:	e7f2      	b.n	7874 <_fwalk_reent+0xc>
    788e:	89ab      	ldrh	r3, [r5, #12]
    7890:	2b01      	cmp	r3, #1
    7892:	d908      	bls.n	78a6 <_fwalk_reent+0x3e>
    7894:	220e      	movs	r2, #14
    7896:	5eab      	ldrsh	r3, [r5, r2]
    7898:	3301      	adds	r3, #1
    789a:	d004      	beq.n	78a6 <_fwalk_reent+0x3e>
    789c:	0029      	movs	r1, r5
    789e:	0038      	movs	r0, r7
    78a0:	9b01      	ldr	r3, [sp, #4]
    78a2:	4798      	blx	r3
    78a4:	4306      	orrs	r6, r0
    78a6:	3568      	adds	r5, #104	; 0x68
    78a8:	e7eb      	b.n	7882 <_fwalk_reent+0x1a>
	...

000078ac <__swhatbuf_r>:
    78ac:	b570      	push	{r4, r5, r6, lr}
    78ae:	000e      	movs	r6, r1
    78b0:	001d      	movs	r5, r3
    78b2:	230e      	movs	r3, #14
    78b4:	5ec9      	ldrsh	r1, [r1, r3]
    78b6:	b090      	sub	sp, #64	; 0x40
    78b8:	0014      	movs	r4, r2
    78ba:	2900      	cmp	r1, #0
    78bc:	da07      	bge.n	78ce <__swhatbuf_r+0x22>
    78be:	2300      	movs	r3, #0
    78c0:	602b      	str	r3, [r5, #0]
    78c2:	89b3      	ldrh	r3, [r6, #12]
    78c4:	061b      	lsls	r3, r3, #24
    78c6:	d411      	bmi.n	78ec <__swhatbuf_r+0x40>
    78c8:	2380      	movs	r3, #128	; 0x80
    78ca:	00db      	lsls	r3, r3, #3
    78cc:	e00f      	b.n	78ee <__swhatbuf_r+0x42>
    78ce:	aa01      	add	r2, sp, #4
    78d0:	f000 fb98 	bl	8004 <_fstat_r>
    78d4:	2800      	cmp	r0, #0
    78d6:	dbf2      	blt.n	78be <__swhatbuf_r+0x12>
    78d8:	22f0      	movs	r2, #240	; 0xf0
    78da:	9b02      	ldr	r3, [sp, #8]
    78dc:	0212      	lsls	r2, r2, #8
    78de:	4013      	ands	r3, r2
    78e0:	4a05      	ldr	r2, [pc, #20]	; (78f8 <__swhatbuf_r+0x4c>)
    78e2:	189b      	adds	r3, r3, r2
    78e4:	425a      	negs	r2, r3
    78e6:	4153      	adcs	r3, r2
    78e8:	602b      	str	r3, [r5, #0]
    78ea:	e7ed      	b.n	78c8 <__swhatbuf_r+0x1c>
    78ec:	2340      	movs	r3, #64	; 0x40
    78ee:	2000      	movs	r0, #0
    78f0:	6023      	str	r3, [r4, #0]
    78f2:	b010      	add	sp, #64	; 0x40
    78f4:	bd70      	pop	{r4, r5, r6, pc}
    78f6:	46c0      	nop			; (mov r8, r8)
    78f8:	ffffe000 	.word	0xffffe000

000078fc <__smakebuf_r>:
    78fc:	b5f7      	push	{r0, r1, r2, r4, r5, r6, r7, lr}
    78fe:	2602      	movs	r6, #2
    7900:	898b      	ldrh	r3, [r1, #12]
    7902:	0005      	movs	r5, r0
    7904:	000c      	movs	r4, r1
    7906:	4233      	tst	r3, r6
    7908:	d006      	beq.n	7918 <__smakebuf_r+0x1c>
    790a:	0023      	movs	r3, r4
    790c:	3347      	adds	r3, #71	; 0x47
    790e:	6023      	str	r3, [r4, #0]
    7910:	6123      	str	r3, [r4, #16]
    7912:	2301      	movs	r3, #1
    7914:	6163      	str	r3, [r4, #20]
    7916:	bdf7      	pop	{r0, r1, r2, r4, r5, r6, r7, pc}
    7918:	ab01      	add	r3, sp, #4
    791a:	466a      	mov	r2, sp
    791c:	f7ff ffc6 	bl	78ac <__swhatbuf_r>
    7920:	9900      	ldr	r1, [sp, #0]
    7922:	0007      	movs	r7, r0
    7924:	0028      	movs	r0, r5
    7926:	f7ff fb81 	bl	702c <_malloc_r>
    792a:	2800      	cmp	r0, #0
    792c:	d108      	bne.n	7940 <__smakebuf_r+0x44>
    792e:	220c      	movs	r2, #12
    7930:	5ea3      	ldrsh	r3, [r4, r2]
    7932:	059a      	lsls	r2, r3, #22
    7934:	d4ef      	bmi.n	7916 <__smakebuf_r+0x1a>
    7936:	2203      	movs	r2, #3
    7938:	4393      	bics	r3, r2
    793a:	431e      	orrs	r6, r3
    793c:	81a6      	strh	r6, [r4, #12]
    793e:	e7e4      	b.n	790a <__smakebuf_r+0xe>
    7940:	4b0f      	ldr	r3, [pc, #60]	; (7980 <__smakebuf_r+0x84>)
    7942:	62ab      	str	r3, [r5, #40]	; 0x28
    7944:	2380      	movs	r3, #128	; 0x80
    7946:	89a2      	ldrh	r2, [r4, #12]
    7948:	6020      	str	r0, [r4, #0]
    794a:	4313      	orrs	r3, r2
    794c:	81a3      	strh	r3, [r4, #12]
    794e:	9b00      	ldr	r3, [sp, #0]
    7950:	6120      	str	r0, [r4, #16]
    7952:	6163      	str	r3, [r4, #20]
    7954:	9b01      	ldr	r3, [sp, #4]
    7956:	2b00      	cmp	r3, #0
    7958:	d00d      	beq.n	7976 <__smakebuf_r+0x7a>
    795a:	230e      	movs	r3, #14
    795c:	5ee1      	ldrsh	r1, [r4, r3]
    795e:	0028      	movs	r0, r5
    7960:	f000 fb62 	bl	8028 <_isatty_r>
    7964:	2800      	cmp	r0, #0
    7966:	d006      	beq.n	7976 <__smakebuf_r+0x7a>
    7968:	2203      	movs	r2, #3
    796a:	89a3      	ldrh	r3, [r4, #12]
    796c:	4393      	bics	r3, r2
    796e:	001a      	movs	r2, r3
    7970:	2301      	movs	r3, #1
    7972:	4313      	orrs	r3, r2
    7974:	81a3      	strh	r3, [r4, #12]
    7976:	89a0      	ldrh	r0, [r4, #12]
    7978:	4338      	orrs	r0, r7
    797a:	81a0      	strh	r0, [r4, #12]
    797c:	e7cb      	b.n	7916 <__smakebuf_r+0x1a>
    797e:	46c0      	nop			; (mov r8, r8)
    7980:	000076fd 	.word	0x000076fd

00007984 <__malloc_lock>:
    7984:	4770      	bx	lr

00007986 <__malloc_unlock>:
    7986:	4770      	bx	lr

00007988 <__sfputc_r>:
    7988:	6893      	ldr	r3, [r2, #8]
    798a:	b510      	push	{r4, lr}
    798c:	3b01      	subs	r3, #1
    798e:	6093      	str	r3, [r2, #8]
    7990:	2b00      	cmp	r3, #0
    7992:	da05      	bge.n	79a0 <__sfputc_r+0x18>
    7994:	6994      	ldr	r4, [r2, #24]
    7996:	42a3      	cmp	r3, r4
    7998:	db08      	blt.n	79ac <__sfputc_r+0x24>
    799a:	b2cb      	uxtb	r3, r1
    799c:	2b0a      	cmp	r3, #10
    799e:	d005      	beq.n	79ac <__sfputc_r+0x24>
    79a0:	6813      	ldr	r3, [r2, #0]
    79a2:	1c58      	adds	r0, r3, #1
    79a4:	6010      	str	r0, [r2, #0]
    79a6:	7019      	strb	r1, [r3, #0]
    79a8:	b2c8      	uxtb	r0, r1
    79aa:	bd10      	pop	{r4, pc}
    79ac:	f7ff fd24 	bl	73f8 <__swbuf_r>
    79b0:	e7fb      	b.n	79aa <__sfputc_r+0x22>

000079b2 <__sfputs_r>:
    79b2:	b5f8      	push	{r3, r4, r5, r6, r7, lr}
    79b4:	0006      	movs	r6, r0
    79b6:	000f      	movs	r7, r1
    79b8:	0014      	movs	r4, r2
    79ba:	18d5      	adds	r5, r2, r3
    79bc:	42ac      	cmp	r4, r5
    79be:	d101      	bne.n	79c4 <__sfputs_r+0x12>
    79c0:	2000      	movs	r0, #0
    79c2:	e007      	b.n	79d4 <__sfputs_r+0x22>
    79c4:	7821      	ldrb	r1, [r4, #0]
    79c6:	003a      	movs	r2, r7
    79c8:	0030      	movs	r0, r6
    79ca:	f7ff ffdd 	bl	7988 <__sfputc_r>
    79ce:	3401      	adds	r4, #1
    79d0:	1c43      	adds	r3, r0, #1
    79d2:	d1f3      	bne.n	79bc <__sfputs_r+0xa>
    79d4:	bdf8      	pop	{r3, r4, r5, r6, r7, pc}
	...

000079d8 <_vfiprintf_r>:
    79d8:	b5f0      	push	{r4, r5, r6, r7, lr}
    79da:	b09f      	sub	sp, #124	; 0x7c
    79dc:	0006      	movs	r6, r0
    79de:	000f      	movs	r7, r1
    79e0:	0014      	movs	r4, r2
    79e2:	9305      	str	r3, [sp, #20]
    79e4:	2800      	cmp	r0, #0
    79e6:	d004      	beq.n	79f2 <_vfiprintf_r+0x1a>
    79e8:	6983      	ldr	r3, [r0, #24]
    79ea:	2b00      	cmp	r3, #0
    79ec:	d101      	bne.n	79f2 <_vfiprintf_r+0x1a>
    79ee:	f7ff fec7 	bl	7780 <__sinit>
    79f2:	4b7f      	ldr	r3, [pc, #508]	; (7bf0 <_vfiprintf_r+0x218>)
    79f4:	429f      	cmp	r7, r3
    79f6:	d15c      	bne.n	7ab2 <_vfiprintf_r+0xda>
    79f8:	6877      	ldr	r7, [r6, #4]
    79fa:	89bb      	ldrh	r3, [r7, #12]
    79fc:	071b      	lsls	r3, r3, #28
    79fe:	d562      	bpl.n	7ac6 <_vfiprintf_r+0xee>
    7a00:	693b      	ldr	r3, [r7, #16]
    7a02:	2b00      	cmp	r3, #0
    7a04:	d05f      	beq.n	7ac6 <_vfiprintf_r+0xee>
    7a06:	2300      	movs	r3, #0
    7a08:	ad06      	add	r5, sp, #24
    7a0a:	616b      	str	r3, [r5, #20]
    7a0c:	3320      	adds	r3, #32
    7a0e:	766b      	strb	r3, [r5, #25]
    7a10:	3310      	adds	r3, #16
    7a12:	76ab      	strb	r3, [r5, #26]
    7a14:	9402      	str	r4, [sp, #8]
    7a16:	9c02      	ldr	r4, [sp, #8]
    7a18:	7823      	ldrb	r3, [r4, #0]
    7a1a:	2b00      	cmp	r3, #0
    7a1c:	d15d      	bne.n	7ada <_vfiprintf_r+0x102>
    7a1e:	9b02      	ldr	r3, [sp, #8]
    7a20:	1ae3      	subs	r3, r4, r3
    7a22:	9304      	str	r3, [sp, #16]
    7a24:	d00d      	beq.n	7a42 <_vfiprintf_r+0x6a>
    7a26:	9b04      	ldr	r3, [sp, #16]
    7a28:	9a02      	ldr	r2, [sp, #8]
    7a2a:	0039      	movs	r1, r7
    7a2c:	0030      	movs	r0, r6
    7a2e:	f7ff ffc0 	bl	79b2 <__sfputs_r>
    7a32:	1c43      	adds	r3, r0, #1
    7a34:	d100      	bne.n	7a38 <_vfiprintf_r+0x60>
    7a36:	e0cc      	b.n	7bd2 <_vfiprintf_r+0x1fa>
    7a38:	696a      	ldr	r2, [r5, #20]
    7a3a:	9b04      	ldr	r3, [sp, #16]
    7a3c:	4694      	mov	ip, r2
    7a3e:	4463      	add	r3, ip
    7a40:	616b      	str	r3, [r5, #20]
    7a42:	7823      	ldrb	r3, [r4, #0]
    7a44:	2b00      	cmp	r3, #0
    7a46:	d100      	bne.n	7a4a <_vfiprintf_r+0x72>
    7a48:	e0c3      	b.n	7bd2 <_vfiprintf_r+0x1fa>
    7a4a:	2201      	movs	r2, #1
    7a4c:	2300      	movs	r3, #0
    7a4e:	4252      	negs	r2, r2
    7a50:	606a      	str	r2, [r5, #4]
    7a52:	a902      	add	r1, sp, #8
    7a54:	3254      	adds	r2, #84	; 0x54
    7a56:	1852      	adds	r2, r2, r1
    7a58:	3401      	adds	r4, #1
    7a5a:	602b      	str	r3, [r5, #0]
    7a5c:	60eb      	str	r3, [r5, #12]
    7a5e:	60ab      	str	r3, [r5, #8]
    7a60:	7013      	strb	r3, [r2, #0]
    7a62:	65ab      	str	r3, [r5, #88]	; 0x58
    7a64:	7821      	ldrb	r1, [r4, #0]
    7a66:	2205      	movs	r2, #5
    7a68:	4862      	ldr	r0, [pc, #392]	; (7bf4 <_vfiprintf_r+0x21c>)
    7a6a:	f000 fb03 	bl	8074 <memchr>
    7a6e:	1c63      	adds	r3, r4, #1
    7a70:	469c      	mov	ip, r3
    7a72:	2800      	cmp	r0, #0
    7a74:	d135      	bne.n	7ae2 <_vfiprintf_r+0x10a>
    7a76:	6829      	ldr	r1, [r5, #0]
    7a78:	06cb      	lsls	r3, r1, #27
    7a7a:	d504      	bpl.n	7a86 <_vfiprintf_r+0xae>
    7a7c:	2353      	movs	r3, #83	; 0x53
    7a7e:	aa02      	add	r2, sp, #8
    7a80:	3020      	adds	r0, #32
    7a82:	189b      	adds	r3, r3, r2
    7a84:	7018      	strb	r0, [r3, #0]
    7a86:	070b      	lsls	r3, r1, #28
    7a88:	d504      	bpl.n	7a94 <_vfiprintf_r+0xbc>
    7a8a:	2353      	movs	r3, #83	; 0x53
    7a8c:	202b      	movs	r0, #43	; 0x2b
    7a8e:	aa02      	add	r2, sp, #8
    7a90:	189b      	adds	r3, r3, r2
    7a92:	7018      	strb	r0, [r3, #0]
    7a94:	7823      	ldrb	r3, [r4, #0]
    7a96:	2b2a      	cmp	r3, #42	; 0x2a
    7a98:	d02c      	beq.n	7af4 <_vfiprintf_r+0x11c>
    7a9a:	2000      	movs	r0, #0
    7a9c:	210a      	movs	r1, #10
    7a9e:	9b09      	ldr	r3, [sp, #36]	; 0x24
    7aa0:	7822      	ldrb	r2, [r4, #0]
    7aa2:	3a30      	subs	r2, #48	; 0x30
    7aa4:	2a09      	cmp	r2, #9
    7aa6:	d800      	bhi.n	7aaa <_vfiprintf_r+0xd2>
    7aa8:	e06b      	b.n	7b82 <_vfiprintf_r+0x1aa>
    7aaa:	2800      	cmp	r0, #0
    7aac:	d02a      	beq.n	7b04 <_vfiprintf_r+0x12c>
    7aae:	9309      	str	r3, [sp, #36]	; 0x24
    7ab0:	e028      	b.n	7b04 <_vfiprintf_r+0x12c>
    7ab2:	4b51      	ldr	r3, [pc, #324]	; (7bf8 <_vfiprintf_r+0x220>)
    7ab4:	429f      	cmp	r7, r3
    7ab6:	d101      	bne.n	7abc <_vfiprintf_r+0xe4>
    7ab8:	68b7      	ldr	r7, [r6, #8]
    7aba:	e79e      	b.n	79fa <_vfiprintf_r+0x22>
    7abc:	4b4f      	ldr	r3, [pc, #316]	; (7bfc <_vfiprintf_r+0x224>)
    7abe:	429f      	cmp	r7, r3
    7ac0:	d19b      	bne.n	79fa <_vfiprintf_r+0x22>
    7ac2:	68f7      	ldr	r7, [r6, #12]
    7ac4:	e799      	b.n	79fa <_vfiprintf_r+0x22>
    7ac6:	0039      	movs	r1, r7
    7ac8:	0030      	movs	r0, r6
    7aca:	f7ff fceb 	bl	74a4 <__swsetup_r>
    7ace:	2800      	cmp	r0, #0
    7ad0:	d099      	beq.n	7a06 <_vfiprintf_r+0x2e>
    7ad2:	2001      	movs	r0, #1
    7ad4:	4240      	negs	r0, r0
    7ad6:	b01f      	add	sp, #124	; 0x7c
    7ad8:	bdf0      	pop	{r4, r5, r6, r7, pc}
    7ada:	2b25      	cmp	r3, #37	; 0x25
    7adc:	d09f      	beq.n	7a1e <_vfiprintf_r+0x46>
    7ade:	3401      	adds	r4, #1
    7ae0:	e79a      	b.n	7a18 <_vfiprintf_r+0x40>
    7ae2:	4b44      	ldr	r3, [pc, #272]	; (7bf4 <_vfiprintf_r+0x21c>)
    7ae4:	6829      	ldr	r1, [r5, #0]
    7ae6:	1ac0      	subs	r0, r0, r3
    7ae8:	2301      	movs	r3, #1
    7aea:	4083      	lsls	r3, r0
    7aec:	430b      	orrs	r3, r1
    7aee:	602b      	str	r3, [r5, #0]
    7af0:	4664      	mov	r4, ip
    7af2:	e7b7      	b.n	7a64 <_vfiprintf_r+0x8c>
    7af4:	9b05      	ldr	r3, [sp, #20]
    7af6:	1d18      	adds	r0, r3, #4
    7af8:	681b      	ldr	r3, [r3, #0]
    7afa:	9005      	str	r0, [sp, #20]
    7afc:	2b00      	cmp	r3, #0
    7afe:	db3a      	blt.n	7b76 <_vfiprintf_r+0x19e>
    7b00:	9309      	str	r3, [sp, #36]	; 0x24
    7b02:	4664      	mov	r4, ip
    7b04:	7823      	ldrb	r3, [r4, #0]
    7b06:	2b2e      	cmp	r3, #46	; 0x2e
    7b08:	d10b      	bne.n	7b22 <_vfiprintf_r+0x14a>
    7b0a:	7863      	ldrb	r3, [r4, #1]
    7b0c:	1c62      	adds	r2, r4, #1
    7b0e:	2b2a      	cmp	r3, #42	; 0x2a
    7b10:	d13f      	bne.n	7b92 <_vfiprintf_r+0x1ba>
    7b12:	9b05      	ldr	r3, [sp, #20]
    7b14:	3402      	adds	r4, #2
    7b16:	1d1a      	adds	r2, r3, #4
    7b18:	681b      	ldr	r3, [r3, #0]
    7b1a:	9205      	str	r2, [sp, #20]
    7b1c:	2b00      	cmp	r3, #0
    7b1e:	db35      	blt.n	7b8c <_vfiprintf_r+0x1b4>
    7b20:	9307      	str	r3, [sp, #28]
    7b22:	7821      	ldrb	r1, [r4, #0]
    7b24:	2203      	movs	r2, #3
    7b26:	4836      	ldr	r0, [pc, #216]	; (7c00 <_vfiprintf_r+0x228>)
    7b28:	f000 faa4 	bl	8074 <memchr>
    7b2c:	2800      	cmp	r0, #0
    7b2e:	d007      	beq.n	7b40 <_vfiprintf_r+0x168>
    7b30:	4b33      	ldr	r3, [pc, #204]	; (7c00 <_vfiprintf_r+0x228>)
    7b32:	682a      	ldr	r2, [r5, #0]
    7b34:	1ac0      	subs	r0, r0, r3
    7b36:	2340      	movs	r3, #64	; 0x40
    7b38:	4083      	lsls	r3, r0
    7b3a:	4313      	orrs	r3, r2
    7b3c:	602b      	str	r3, [r5, #0]
    7b3e:	3401      	adds	r4, #1
    7b40:	7821      	ldrb	r1, [r4, #0]
    7b42:	1c63      	adds	r3, r4, #1
    7b44:	2206      	movs	r2, #6
    7b46:	482f      	ldr	r0, [pc, #188]	; (7c04 <_vfiprintf_r+0x22c>)
    7b48:	9302      	str	r3, [sp, #8]
    7b4a:	7629      	strb	r1, [r5, #24]
    7b4c:	f000 fa92 	bl	8074 <memchr>
    7b50:	2800      	cmp	r0, #0
    7b52:	d044      	beq.n	7bde <_vfiprintf_r+0x206>
    7b54:	4b2c      	ldr	r3, [pc, #176]	; (7c08 <_vfiprintf_r+0x230>)
    7b56:	2b00      	cmp	r3, #0
    7b58:	d12f      	bne.n	7bba <_vfiprintf_r+0x1e2>
    7b5a:	6829      	ldr	r1, [r5, #0]
    7b5c:	9b05      	ldr	r3, [sp, #20]
    7b5e:	2207      	movs	r2, #7
    7b60:	05c9      	lsls	r1, r1, #23
    7b62:	d528      	bpl.n	7bb6 <_vfiprintf_r+0x1de>
    7b64:	189b      	adds	r3, r3, r2
    7b66:	4393      	bics	r3, r2
    7b68:	3308      	adds	r3, #8
    7b6a:	9305      	str	r3, [sp, #20]
    7b6c:	696b      	ldr	r3, [r5, #20]
    7b6e:	9a03      	ldr	r2, [sp, #12]
    7b70:	189b      	adds	r3, r3, r2
    7b72:	616b      	str	r3, [r5, #20]
    7b74:	e74f      	b.n	7a16 <_vfiprintf_r+0x3e>
    7b76:	425b      	negs	r3, r3
    7b78:	60eb      	str	r3, [r5, #12]
    7b7a:	2302      	movs	r3, #2
    7b7c:	430b      	orrs	r3, r1
    7b7e:	602b      	str	r3, [r5, #0]
    7b80:	e7bf      	b.n	7b02 <_vfiprintf_r+0x12a>
    7b82:	434b      	muls	r3, r1
    7b84:	3401      	adds	r4, #1
    7b86:	189b      	adds	r3, r3, r2
    7b88:	2001      	movs	r0, #1
    7b8a:	e789      	b.n	7aa0 <_vfiprintf_r+0xc8>
    7b8c:	2301      	movs	r3, #1
    7b8e:	425b      	negs	r3, r3
    7b90:	e7c6      	b.n	7b20 <_vfiprintf_r+0x148>
    7b92:	2300      	movs	r3, #0
    7b94:	0014      	movs	r4, r2
    7b96:	200a      	movs	r0, #10
    7b98:	001a      	movs	r2, r3
    7b9a:	606b      	str	r3, [r5, #4]
    7b9c:	7821      	ldrb	r1, [r4, #0]
    7b9e:	3930      	subs	r1, #48	; 0x30
    7ba0:	2909      	cmp	r1, #9
    7ba2:	d903      	bls.n	7bac <_vfiprintf_r+0x1d4>
    7ba4:	2b00      	cmp	r3, #0
    7ba6:	d0bc      	beq.n	7b22 <_vfiprintf_r+0x14a>
    7ba8:	9207      	str	r2, [sp, #28]
    7baa:	e7ba      	b.n	7b22 <_vfiprintf_r+0x14a>
    7bac:	4342      	muls	r2, r0
    7bae:	3401      	adds	r4, #1
    7bb0:	1852      	adds	r2, r2, r1
    7bb2:	2301      	movs	r3, #1
    7bb4:	e7f2      	b.n	7b9c <_vfiprintf_r+0x1c4>
    7bb6:	3307      	adds	r3, #7
    7bb8:	e7d5      	b.n	7b66 <_vfiprintf_r+0x18e>
    7bba:	ab05      	add	r3, sp, #20
    7bbc:	9300      	str	r3, [sp, #0]
    7bbe:	003a      	movs	r2, r7
    7bc0:	4b12      	ldr	r3, [pc, #72]	; (7c0c <_vfiprintf_r+0x234>)
    7bc2:	0029      	movs	r1, r5
    7bc4:	0030      	movs	r0, r6
    7bc6:	e000      	b.n	7bca <_vfiprintf_r+0x1f2>
    7bc8:	bf00      	nop
    7bca:	9003      	str	r0, [sp, #12]
    7bcc:	9b03      	ldr	r3, [sp, #12]
    7bce:	3301      	adds	r3, #1
    7bd0:	d1cc      	bne.n	7b6c <_vfiprintf_r+0x194>
    7bd2:	89bb      	ldrh	r3, [r7, #12]
    7bd4:	065b      	lsls	r3, r3, #25
    7bd6:	d500      	bpl.n	7bda <_vfiprintf_r+0x202>
    7bd8:	e77b      	b.n	7ad2 <_vfiprintf_r+0xfa>
    7bda:	980b      	ldr	r0, [sp, #44]	; 0x2c
    7bdc:	e77b      	b.n	7ad6 <_vfiprintf_r+0xfe>
    7bde:	ab05      	add	r3, sp, #20
    7be0:	9300      	str	r3, [sp, #0]
    7be2:	003a      	movs	r2, r7
    7be4:	4b09      	ldr	r3, [pc, #36]	; (7c0c <_vfiprintf_r+0x234>)
    7be6:	0029      	movs	r1, r5
    7be8:	0030      	movs	r0, r6
    7bea:	f000 f87f 	bl	7cec <_printf_i>
    7bee:	e7ec      	b.n	7bca <_vfiprintf_r+0x1f2>
    7bf0:	0000adcc 	.word	0x0000adcc
    7bf4:	0000ae0c 	.word	0x0000ae0c
    7bf8:	0000adec 	.word	0x0000adec
    7bfc:	0000adac 	.word	0x0000adac
    7c00:	0000ae12 	.word	0x0000ae12
    7c04:	0000ae16 	.word	0x0000ae16
    7c08:	00000000 	.word	0x00000000
    7c0c:	000079b3 	.word	0x000079b3

00007c10 <_printf_common>:
    7c10:	b5f7      	push	{r0, r1, r2, r4, r5, r6, r7, lr}
    7c12:	0015      	movs	r5, r2
    7c14:	9301      	str	r3, [sp, #4]
    7c16:	688a      	ldr	r2, [r1, #8]
    7c18:	690b      	ldr	r3, [r1, #16]
    7c1a:	9000      	str	r0, [sp, #0]
    7c1c:	000c      	movs	r4, r1
    7c1e:	4293      	cmp	r3, r2
    7c20:	da00      	bge.n	7c24 <_printf_common+0x14>
    7c22:	0013      	movs	r3, r2
    7c24:	0022      	movs	r2, r4
    7c26:	602b      	str	r3, [r5, #0]
    7c28:	3243      	adds	r2, #67	; 0x43
    7c2a:	7812      	ldrb	r2, [r2, #0]
    7c2c:	2a00      	cmp	r2, #0
    7c2e:	d001      	beq.n	7c34 <_printf_common+0x24>
    7c30:	3301      	adds	r3, #1
    7c32:	602b      	str	r3, [r5, #0]
    7c34:	6823      	ldr	r3, [r4, #0]
    7c36:	069b      	lsls	r3, r3, #26
    7c38:	d502      	bpl.n	7c40 <_printf_common+0x30>
    7c3a:	682b      	ldr	r3, [r5, #0]
    7c3c:	3302      	adds	r3, #2
    7c3e:	602b      	str	r3, [r5, #0]
    7c40:	2706      	movs	r7, #6
    7c42:	6823      	ldr	r3, [r4, #0]
    7c44:	401f      	ands	r7, r3
    7c46:	d027      	beq.n	7c98 <_printf_common+0x88>
    7c48:	0023      	movs	r3, r4
    7c4a:	3343      	adds	r3, #67	; 0x43
    7c4c:	781b      	ldrb	r3, [r3, #0]
    7c4e:	1e5a      	subs	r2, r3, #1
    7c50:	4193      	sbcs	r3, r2
    7c52:	6822      	ldr	r2, [r4, #0]
    7c54:	0692      	lsls	r2, r2, #26
    7c56:	d430      	bmi.n	7cba <_printf_common+0xaa>
    7c58:	0022      	movs	r2, r4
    7c5a:	9901      	ldr	r1, [sp, #4]
    7c5c:	3243      	adds	r2, #67	; 0x43
    7c5e:	9800      	ldr	r0, [sp, #0]
    7c60:	9e08      	ldr	r6, [sp, #32]
    7c62:	47b0      	blx	r6
    7c64:	1c43      	adds	r3, r0, #1
    7c66:	d025      	beq.n	7cb4 <_printf_common+0xa4>
    7c68:	2306      	movs	r3, #6
    7c6a:	6820      	ldr	r0, [r4, #0]
    7c6c:	682a      	ldr	r2, [r5, #0]
    7c6e:	68e1      	ldr	r1, [r4, #12]
    7c70:	4003      	ands	r3, r0
    7c72:	2500      	movs	r5, #0
    7c74:	2b04      	cmp	r3, #4
    7c76:	d103      	bne.n	7c80 <_printf_common+0x70>
    7c78:	1a8d      	subs	r5, r1, r2
    7c7a:	43eb      	mvns	r3, r5
    7c7c:	17db      	asrs	r3, r3, #31
    7c7e:	401d      	ands	r5, r3
    7c80:	68a3      	ldr	r3, [r4, #8]
    7c82:	6922      	ldr	r2, [r4, #16]
    7c84:	4293      	cmp	r3, r2
    7c86:	dd01      	ble.n	7c8c <_printf_common+0x7c>
    7c88:	1a9b      	subs	r3, r3, r2
    7c8a:	18ed      	adds	r5, r5, r3
    7c8c:	2700      	movs	r7, #0
    7c8e:	42bd      	cmp	r5, r7
    7c90:	d120      	bne.n	7cd4 <_printf_common+0xc4>
    7c92:	2000      	movs	r0, #0
    7c94:	e010      	b.n	7cb8 <_printf_common+0xa8>
    7c96:	3701      	adds	r7, #1
    7c98:	68e3      	ldr	r3, [r4, #12]
    7c9a:	682a      	ldr	r2, [r5, #0]
    7c9c:	1a9b      	subs	r3, r3, r2
    7c9e:	429f      	cmp	r7, r3
    7ca0:	dad2      	bge.n	7c48 <_printf_common+0x38>
    7ca2:	0022      	movs	r2, r4
    7ca4:	2301      	movs	r3, #1
    7ca6:	3219      	adds	r2, #25
    7ca8:	9901      	ldr	r1, [sp, #4]
    7caa:	9800      	ldr	r0, [sp, #0]
    7cac:	9e08      	ldr	r6, [sp, #32]
    7cae:	47b0      	blx	r6
    7cb0:	1c43      	adds	r3, r0, #1
    7cb2:	d1f0      	bne.n	7c96 <_printf_common+0x86>
    7cb4:	2001      	movs	r0, #1
    7cb6:	4240      	negs	r0, r0
    7cb8:	bdfe      	pop	{r1, r2, r3, r4, r5, r6, r7, pc}
    7cba:	2030      	movs	r0, #48	; 0x30
    7cbc:	18e1      	adds	r1, r4, r3
    7cbe:	3143      	adds	r1, #67	; 0x43
    7cc0:	7008      	strb	r0, [r1, #0]
    7cc2:	0021      	movs	r1, r4
    7cc4:	1c5a      	adds	r2, r3, #1
    7cc6:	3145      	adds	r1, #69	; 0x45
    7cc8:	7809      	ldrb	r1, [r1, #0]
    7cca:	18a2      	adds	r2, r4, r2
    7ccc:	3243      	adds	r2, #67	; 0x43
    7cce:	3302      	adds	r3, #2
    7cd0:	7011      	strb	r1, [r2, #0]
    7cd2:	e7c1      	b.n	7c58 <_printf_common+0x48>
    7cd4:	0022      	movs	r2, r4
    7cd6:	2301      	movs	r3, #1
    7cd8:	321a      	adds	r2, #26
    7cda:	9901      	ldr	r1, [sp, #4]
    7cdc:	9800      	ldr	r0, [sp, #0]
    7cde:	9e08      	ldr	r6, [sp, #32]
    7ce0:	47b0      	blx	r6
    7ce2:	1c43      	adds	r3, r0, #1
    7ce4:	d0e6      	beq.n	7cb4 <_printf_common+0xa4>
    7ce6:	3701      	adds	r7, #1
    7ce8:	e7d1      	b.n	7c8e <_printf_common+0x7e>
	...

00007cec <_printf_i>:
    7cec:	b5f0      	push	{r4, r5, r6, r7, lr}
    7cee:	b08b      	sub	sp, #44	; 0x2c
    7cf0:	9206      	str	r2, [sp, #24]
    7cf2:	000a      	movs	r2, r1
    7cf4:	3243      	adds	r2, #67	; 0x43
    7cf6:	9307      	str	r3, [sp, #28]
    7cf8:	9005      	str	r0, [sp, #20]
    7cfa:	9204      	str	r2, [sp, #16]
    7cfc:	7e0a      	ldrb	r2, [r1, #24]
    7cfe:	000c      	movs	r4, r1
    7d00:	9b10      	ldr	r3, [sp, #64]	; 0x40
    7d02:	2a6e      	cmp	r2, #110	; 0x6e
    7d04:	d100      	bne.n	7d08 <_printf_i+0x1c>
    7d06:	e08f      	b.n	7e28 <_printf_i+0x13c>
    7d08:	d817      	bhi.n	7d3a <_printf_i+0x4e>
    7d0a:	2a63      	cmp	r2, #99	; 0x63
    7d0c:	d02c      	beq.n	7d68 <_printf_i+0x7c>
    7d0e:	d808      	bhi.n	7d22 <_printf_i+0x36>
    7d10:	2a00      	cmp	r2, #0
    7d12:	d100      	bne.n	7d16 <_printf_i+0x2a>
    7d14:	e099      	b.n	7e4a <_printf_i+0x15e>
    7d16:	2a58      	cmp	r2, #88	; 0x58
    7d18:	d054      	beq.n	7dc4 <_printf_i+0xd8>
    7d1a:	0026      	movs	r6, r4
    7d1c:	3642      	adds	r6, #66	; 0x42
    7d1e:	7032      	strb	r2, [r6, #0]
    7d20:	e029      	b.n	7d76 <_printf_i+0x8a>
    7d22:	2a64      	cmp	r2, #100	; 0x64
    7d24:	d001      	beq.n	7d2a <_printf_i+0x3e>
    7d26:	2a69      	cmp	r2, #105	; 0x69
    7d28:	d1f7      	bne.n	7d1a <_printf_i+0x2e>
    7d2a:	6821      	ldr	r1, [r4, #0]
    7d2c:	681a      	ldr	r2, [r3, #0]
    7d2e:	0608      	lsls	r0, r1, #24
    7d30:	d523      	bpl.n	7d7a <_printf_i+0x8e>
    7d32:	1d11      	adds	r1, r2, #4
    7d34:	6019      	str	r1, [r3, #0]
    7d36:	6815      	ldr	r5, [r2, #0]
    7d38:	e025      	b.n	7d86 <_printf_i+0x9a>
    7d3a:	2a73      	cmp	r2, #115	; 0x73
    7d3c:	d100      	bne.n	7d40 <_printf_i+0x54>
    7d3e:	e088      	b.n	7e52 <_printf_i+0x166>
    7d40:	d808      	bhi.n	7d54 <_printf_i+0x68>
    7d42:	2a6f      	cmp	r2, #111	; 0x6f
    7d44:	d029      	beq.n	7d9a <_printf_i+0xae>
    7d46:	2a70      	cmp	r2, #112	; 0x70
    7d48:	d1e7      	bne.n	7d1a <_printf_i+0x2e>
    7d4a:	2220      	movs	r2, #32
    7d4c:	6809      	ldr	r1, [r1, #0]
    7d4e:	430a      	orrs	r2, r1
    7d50:	6022      	str	r2, [r4, #0]
    7d52:	e003      	b.n	7d5c <_printf_i+0x70>
    7d54:	2a75      	cmp	r2, #117	; 0x75
    7d56:	d020      	beq.n	7d9a <_printf_i+0xae>
    7d58:	2a78      	cmp	r2, #120	; 0x78
    7d5a:	d1de      	bne.n	7d1a <_printf_i+0x2e>
    7d5c:	0022      	movs	r2, r4
    7d5e:	2178      	movs	r1, #120	; 0x78
    7d60:	3245      	adds	r2, #69	; 0x45
    7d62:	7011      	strb	r1, [r2, #0]
    7d64:	4a6c      	ldr	r2, [pc, #432]	; (7f18 <_printf_i+0x22c>)
    7d66:	e030      	b.n	7dca <_printf_i+0xde>
    7d68:	000e      	movs	r6, r1
    7d6a:	681a      	ldr	r2, [r3, #0]
    7d6c:	3642      	adds	r6, #66	; 0x42
    7d6e:	1d11      	adds	r1, r2, #4
    7d70:	6019      	str	r1, [r3, #0]
    7d72:	6813      	ldr	r3, [r2, #0]
    7d74:	7033      	strb	r3, [r6, #0]
    7d76:	2301      	movs	r3, #1
    7d78:	e079      	b.n	7e6e <_printf_i+0x182>
    7d7a:	0649      	lsls	r1, r1, #25
    7d7c:	d5d9      	bpl.n	7d32 <_printf_i+0x46>
    7d7e:	1d11      	adds	r1, r2, #4
    7d80:	6019      	str	r1, [r3, #0]
    7d82:	2300      	movs	r3, #0
    7d84:	5ed5      	ldrsh	r5, [r2, r3]
    7d86:	2d00      	cmp	r5, #0
    7d88:	da03      	bge.n	7d92 <_printf_i+0xa6>
    7d8a:	232d      	movs	r3, #45	; 0x2d
    7d8c:	9a04      	ldr	r2, [sp, #16]
    7d8e:	426d      	negs	r5, r5
    7d90:	7013      	strb	r3, [r2, #0]
    7d92:	4b62      	ldr	r3, [pc, #392]	; (7f1c <_printf_i+0x230>)
    7d94:	270a      	movs	r7, #10
    7d96:	9303      	str	r3, [sp, #12]
    7d98:	e02f      	b.n	7dfa <_printf_i+0x10e>
    7d9a:	6820      	ldr	r0, [r4, #0]
    7d9c:	6819      	ldr	r1, [r3, #0]
    7d9e:	0605      	lsls	r5, r0, #24
    7da0:	d503      	bpl.n	7daa <_printf_i+0xbe>
    7da2:	1d08      	adds	r0, r1, #4
    7da4:	6018      	str	r0, [r3, #0]
    7da6:	680d      	ldr	r5, [r1, #0]
    7da8:	e005      	b.n	7db6 <_printf_i+0xca>
    7daa:	0640      	lsls	r0, r0, #25
    7dac:	d5f9      	bpl.n	7da2 <_printf_i+0xb6>
    7dae:	680d      	ldr	r5, [r1, #0]
    7db0:	1d08      	adds	r0, r1, #4
    7db2:	6018      	str	r0, [r3, #0]
    7db4:	b2ad      	uxth	r5, r5
    7db6:	4b59      	ldr	r3, [pc, #356]	; (7f1c <_printf_i+0x230>)
    7db8:	2708      	movs	r7, #8
    7dba:	9303      	str	r3, [sp, #12]
    7dbc:	2a6f      	cmp	r2, #111	; 0x6f
    7dbe:	d018      	beq.n	7df2 <_printf_i+0x106>
    7dc0:	270a      	movs	r7, #10
    7dc2:	e016      	b.n	7df2 <_printf_i+0x106>
    7dc4:	3145      	adds	r1, #69	; 0x45
    7dc6:	700a      	strb	r2, [r1, #0]
    7dc8:	4a54      	ldr	r2, [pc, #336]	; (7f1c <_printf_i+0x230>)
    7dca:	9203      	str	r2, [sp, #12]
    7dcc:	681a      	ldr	r2, [r3, #0]
    7dce:	6821      	ldr	r1, [r4, #0]
    7dd0:	1d10      	adds	r0, r2, #4
    7dd2:	6018      	str	r0, [r3, #0]
    7dd4:	6815      	ldr	r5, [r2, #0]
    7dd6:	0608      	lsls	r0, r1, #24
    7dd8:	d522      	bpl.n	7e20 <_printf_i+0x134>
    7dda:	07cb      	lsls	r3, r1, #31
    7ddc:	d502      	bpl.n	7de4 <_printf_i+0xf8>
    7dde:	2320      	movs	r3, #32
    7de0:	4319      	orrs	r1, r3
    7de2:	6021      	str	r1, [r4, #0]
    7de4:	2710      	movs	r7, #16
    7de6:	2d00      	cmp	r5, #0
    7de8:	d103      	bne.n	7df2 <_printf_i+0x106>
    7dea:	2320      	movs	r3, #32
    7dec:	6822      	ldr	r2, [r4, #0]
    7dee:	439a      	bics	r2, r3
    7df0:	6022      	str	r2, [r4, #0]
    7df2:	0023      	movs	r3, r4
    7df4:	2200      	movs	r2, #0
    7df6:	3343      	adds	r3, #67	; 0x43
    7df8:	701a      	strb	r2, [r3, #0]
    7dfa:	6863      	ldr	r3, [r4, #4]
    7dfc:	60a3      	str	r3, [r4, #8]
    7dfe:	2b00      	cmp	r3, #0
    7e00:	db5c      	blt.n	7ebc <_printf_i+0x1d0>
    7e02:	2204      	movs	r2, #4
    7e04:	6821      	ldr	r1, [r4, #0]
    7e06:	4391      	bics	r1, r2
    7e08:	6021      	str	r1, [r4, #0]
    7e0a:	2d00      	cmp	r5, #0
    7e0c:	d158      	bne.n	7ec0 <_printf_i+0x1d4>
    7e0e:	9e04      	ldr	r6, [sp, #16]
    7e10:	2b00      	cmp	r3, #0
    7e12:	d064      	beq.n	7ede <_printf_i+0x1f2>
    7e14:	0026      	movs	r6, r4
    7e16:	9b03      	ldr	r3, [sp, #12]
    7e18:	3642      	adds	r6, #66	; 0x42
    7e1a:	781b      	ldrb	r3, [r3, #0]
    7e1c:	7033      	strb	r3, [r6, #0]
    7e1e:	e05e      	b.n	7ede <_printf_i+0x1f2>
    7e20:	0648      	lsls	r0, r1, #25
    7e22:	d5da      	bpl.n	7dda <_printf_i+0xee>
    7e24:	b2ad      	uxth	r5, r5
    7e26:	e7d8      	b.n	7dda <_printf_i+0xee>
    7e28:	6809      	ldr	r1, [r1, #0]
    7e2a:	681a      	ldr	r2, [r3, #0]
    7e2c:	0608      	lsls	r0, r1, #24
    7e2e:	d505      	bpl.n	7e3c <_printf_i+0x150>
    7e30:	1d11      	adds	r1, r2, #4
    7e32:	6019      	str	r1, [r3, #0]
    7e34:	6813      	ldr	r3, [r2, #0]
    7e36:	6962      	ldr	r2, [r4, #20]
    7e38:	601a      	str	r2, [r3, #0]
    7e3a:	e006      	b.n	7e4a <_printf_i+0x15e>
    7e3c:	0649      	lsls	r1, r1, #25
    7e3e:	d5f7      	bpl.n	7e30 <_printf_i+0x144>
    7e40:	1d11      	adds	r1, r2, #4
    7e42:	6019      	str	r1, [r3, #0]
    7e44:	6813      	ldr	r3, [r2, #0]
    7e46:	8aa2      	ldrh	r2, [r4, #20]
    7e48:	801a      	strh	r2, [r3, #0]
    7e4a:	2300      	movs	r3, #0
    7e4c:	9e04      	ldr	r6, [sp, #16]
    7e4e:	6123      	str	r3, [r4, #16]
    7e50:	e054      	b.n	7efc <_printf_i+0x210>
    7e52:	681a      	ldr	r2, [r3, #0]
    7e54:	1d11      	adds	r1, r2, #4
    7e56:	6019      	str	r1, [r3, #0]
    7e58:	6816      	ldr	r6, [r2, #0]
    7e5a:	2100      	movs	r1, #0
    7e5c:	6862      	ldr	r2, [r4, #4]
    7e5e:	0030      	movs	r0, r6
    7e60:	f000 f908 	bl	8074 <memchr>
    7e64:	2800      	cmp	r0, #0
    7e66:	d001      	beq.n	7e6c <_printf_i+0x180>
    7e68:	1b80      	subs	r0, r0, r6
    7e6a:	6060      	str	r0, [r4, #4]
    7e6c:	6863      	ldr	r3, [r4, #4]
    7e6e:	6123      	str	r3, [r4, #16]
    7e70:	2300      	movs	r3, #0
    7e72:	9a04      	ldr	r2, [sp, #16]
    7e74:	7013      	strb	r3, [r2, #0]
    7e76:	e041      	b.n	7efc <_printf_i+0x210>
    7e78:	6923      	ldr	r3, [r4, #16]
    7e7a:	0032      	movs	r2, r6
    7e7c:	9906      	ldr	r1, [sp, #24]
    7e7e:	9805      	ldr	r0, [sp, #20]
    7e80:	9d07      	ldr	r5, [sp, #28]
    7e82:	47a8      	blx	r5
    7e84:	1c43      	adds	r3, r0, #1
    7e86:	d043      	beq.n	7f10 <_printf_i+0x224>
    7e88:	6823      	ldr	r3, [r4, #0]
    7e8a:	2500      	movs	r5, #0
    7e8c:	079b      	lsls	r3, r3, #30
    7e8e:	d40f      	bmi.n	7eb0 <_printf_i+0x1c4>
    7e90:	9b09      	ldr	r3, [sp, #36]	; 0x24
    7e92:	68e0      	ldr	r0, [r4, #12]
    7e94:	4298      	cmp	r0, r3
    7e96:	da3d      	bge.n	7f14 <_printf_i+0x228>
    7e98:	0018      	movs	r0, r3
    7e9a:	e03b      	b.n	7f14 <_printf_i+0x228>
    7e9c:	0022      	movs	r2, r4
    7e9e:	2301      	movs	r3, #1
    7ea0:	3219      	adds	r2, #25
    7ea2:	9906      	ldr	r1, [sp, #24]
    7ea4:	9805      	ldr	r0, [sp, #20]
    7ea6:	9e07      	ldr	r6, [sp, #28]
    7ea8:	47b0      	blx	r6
    7eaa:	1c43      	adds	r3, r0, #1
    7eac:	d030      	beq.n	7f10 <_printf_i+0x224>
    7eae:	3501      	adds	r5, #1
    7eb0:	68e3      	ldr	r3, [r4, #12]
    7eb2:	9a09      	ldr	r2, [sp, #36]	; 0x24
    7eb4:	1a9b      	subs	r3, r3, r2
    7eb6:	429d      	cmp	r5, r3
    7eb8:	dbf0      	blt.n	7e9c <_printf_i+0x1b0>
    7eba:	e7e9      	b.n	7e90 <_printf_i+0x1a4>
    7ebc:	2d00      	cmp	r5, #0
    7ebe:	d0a9      	beq.n	7e14 <_printf_i+0x128>
    7ec0:	9e04      	ldr	r6, [sp, #16]
    7ec2:	0028      	movs	r0, r5
    7ec4:	0039      	movs	r1, r7
    7ec6:	f7fe fed7 	bl	6c78 <__aeabi_uidivmod>
    7eca:	9b03      	ldr	r3, [sp, #12]
    7ecc:	3e01      	subs	r6, #1
    7ece:	5c5b      	ldrb	r3, [r3, r1]
    7ed0:	0028      	movs	r0, r5
    7ed2:	7033      	strb	r3, [r6, #0]
    7ed4:	0039      	movs	r1, r7
    7ed6:	f7fe fe49 	bl	6b6c <__udivsi3>
    7eda:	1e05      	subs	r5, r0, #0
    7edc:	d1f1      	bne.n	7ec2 <_printf_i+0x1d6>
    7ede:	2f08      	cmp	r7, #8
    7ee0:	d109      	bne.n	7ef6 <_printf_i+0x20a>
    7ee2:	6823      	ldr	r3, [r4, #0]
    7ee4:	07db      	lsls	r3, r3, #31
    7ee6:	d506      	bpl.n	7ef6 <_printf_i+0x20a>
    7ee8:	6863      	ldr	r3, [r4, #4]
    7eea:	6922      	ldr	r2, [r4, #16]
    7eec:	4293      	cmp	r3, r2
    7eee:	dc02      	bgt.n	7ef6 <_printf_i+0x20a>
    7ef0:	2330      	movs	r3, #48	; 0x30
    7ef2:	3e01      	subs	r6, #1
    7ef4:	7033      	strb	r3, [r6, #0]
    7ef6:	9b04      	ldr	r3, [sp, #16]
    7ef8:	1b9b      	subs	r3, r3, r6
    7efa:	6123      	str	r3, [r4, #16]
    7efc:	9b07      	ldr	r3, [sp, #28]
    7efe:	aa09      	add	r2, sp, #36	; 0x24
    7f00:	9300      	str	r3, [sp, #0]
    7f02:	0021      	movs	r1, r4
    7f04:	9b06      	ldr	r3, [sp, #24]
    7f06:	9805      	ldr	r0, [sp, #20]
    7f08:	f7ff fe82 	bl	7c10 <_printf_common>
    7f0c:	1c43      	adds	r3, r0, #1
    7f0e:	d1b3      	bne.n	7e78 <_printf_i+0x18c>
    7f10:	2001      	movs	r0, #1
    7f12:	4240      	negs	r0, r0
    7f14:	b00b      	add	sp, #44	; 0x2c
    7f16:	bdf0      	pop	{r4, r5, r6, r7, pc}
    7f18:	0000ae2e 	.word	0x0000ae2e
    7f1c:	0000ae1d 	.word	0x0000ae1d

00007f20 <__sread>:
    7f20:	b570      	push	{r4, r5, r6, lr}
    7f22:	000c      	movs	r4, r1
    7f24:	250e      	movs	r5, #14
    7f26:	5f49      	ldrsh	r1, [r1, r5]
    7f28:	f000 f8b0 	bl	808c <_read_r>
    7f2c:	2800      	cmp	r0, #0
    7f2e:	db03      	blt.n	7f38 <__sread+0x18>
    7f30:	6d63      	ldr	r3, [r4, #84]	; 0x54
    7f32:	181b      	adds	r3, r3, r0
    7f34:	6563      	str	r3, [r4, #84]	; 0x54
    7f36:	bd70      	pop	{r4, r5, r6, pc}
    7f38:	89a3      	ldrh	r3, [r4, #12]
    7f3a:	4a02      	ldr	r2, [pc, #8]	; (7f44 <__sread+0x24>)
    7f3c:	4013      	ands	r3, r2
    7f3e:	81a3      	strh	r3, [r4, #12]
    7f40:	e7f9      	b.n	7f36 <__sread+0x16>
    7f42:	46c0      	nop			; (mov r8, r8)
    7f44:	ffffefff 	.word	0xffffefff

00007f48 <__swrite>:
    7f48:	b5f8      	push	{r3, r4, r5, r6, r7, lr}
    7f4a:	001f      	movs	r7, r3
    7f4c:	898b      	ldrh	r3, [r1, #12]
    7f4e:	0005      	movs	r5, r0
    7f50:	000c      	movs	r4, r1
    7f52:	0016      	movs	r6, r2
    7f54:	05db      	lsls	r3, r3, #23
    7f56:	d505      	bpl.n	7f64 <__swrite+0x1c>
    7f58:	230e      	movs	r3, #14
    7f5a:	5ec9      	ldrsh	r1, [r1, r3]
    7f5c:	2200      	movs	r2, #0
    7f5e:	2302      	movs	r3, #2
    7f60:	f000 f874 	bl	804c <_lseek_r>
    7f64:	89a3      	ldrh	r3, [r4, #12]
    7f66:	4a05      	ldr	r2, [pc, #20]	; (7f7c <__swrite+0x34>)
    7f68:	0028      	movs	r0, r5
    7f6a:	4013      	ands	r3, r2
    7f6c:	81a3      	strh	r3, [r4, #12]
    7f6e:	0032      	movs	r2, r6
    7f70:	230e      	movs	r3, #14
    7f72:	5ee1      	ldrsh	r1, [r4, r3]
    7f74:	003b      	movs	r3, r7
    7f76:	f000 f81f 	bl	7fb8 <_write_r>
    7f7a:	bdf8      	pop	{r3, r4, r5, r6, r7, pc}
    7f7c:	ffffefff 	.word	0xffffefff

00007f80 <__sseek>:
    7f80:	b570      	push	{r4, r5, r6, lr}
    7f82:	000c      	movs	r4, r1
    7f84:	250e      	movs	r5, #14
    7f86:	5f49      	ldrsh	r1, [r1, r5]
    7f88:	f000 f860 	bl	804c <_lseek_r>
    7f8c:	89a3      	ldrh	r3, [r4, #12]
    7f8e:	1c42      	adds	r2, r0, #1
    7f90:	d103      	bne.n	7f9a <__sseek+0x1a>
    7f92:	4a05      	ldr	r2, [pc, #20]	; (7fa8 <__sseek+0x28>)
    7f94:	4013      	ands	r3, r2
    7f96:	81a3      	strh	r3, [r4, #12]
    7f98:	bd70      	pop	{r4, r5, r6, pc}
    7f9a:	2280      	movs	r2, #128	; 0x80
    7f9c:	0152      	lsls	r2, r2, #5
    7f9e:	4313      	orrs	r3, r2
    7fa0:	81a3      	strh	r3, [r4, #12]
    7fa2:	6560      	str	r0, [r4, #84]	; 0x54
    7fa4:	e7f8      	b.n	7f98 <__sseek+0x18>
    7fa6:	46c0      	nop			; (mov r8, r8)
    7fa8:	ffffefff 	.word	0xffffefff

00007fac <__sclose>:
    7fac:	b510      	push	{r4, lr}
    7fae:	230e      	movs	r3, #14
    7fb0:	5ec9      	ldrsh	r1, [r1, r3]
    7fb2:	f000 f815 	bl	7fe0 <_close_r>
    7fb6:	bd10      	pop	{r4, pc}

00007fb8 <_write_r>:
    7fb8:	b570      	push	{r4, r5, r6, lr}
    7fba:	0005      	movs	r5, r0
    7fbc:	0008      	movs	r0, r1
    7fbe:	0011      	movs	r1, r2
    7fc0:	2200      	movs	r2, #0
    7fc2:	4c06      	ldr	r4, [pc, #24]	; (7fdc <_write_r+0x24>)
    7fc4:	6022      	str	r2, [r4, #0]
    7fc6:	001a      	movs	r2, r3
    7fc8:	f7fb fdb6 	bl	3b38 <_write>
    7fcc:	1c43      	adds	r3, r0, #1
    7fce:	d103      	bne.n	7fd8 <_write_r+0x20>
    7fd0:	6823      	ldr	r3, [r4, #0]
    7fd2:	2b00      	cmp	r3, #0
    7fd4:	d000      	beq.n	7fd8 <_write_r+0x20>
    7fd6:	602b      	str	r3, [r5, #0]
    7fd8:	bd70      	pop	{r4, r5, r6, pc}
    7fda:	46c0      	nop			; (mov r8, r8)
    7fdc:	20002b9c 	.word	0x20002b9c

00007fe0 <_close_r>:
    7fe0:	2300      	movs	r3, #0
    7fe2:	b570      	push	{r4, r5, r6, lr}
    7fe4:	4c06      	ldr	r4, [pc, #24]	; (8000 <_close_r+0x20>)
    7fe6:	0005      	movs	r5, r0
    7fe8:	0008      	movs	r0, r1
    7fea:	6023      	str	r3, [r4, #0]
    7fec:	f7fb fdde 	bl	3bac <_close>
    7ff0:	1c43      	adds	r3, r0, #1
    7ff2:	d103      	bne.n	7ffc <_close_r+0x1c>
    7ff4:	6823      	ldr	r3, [r4, #0]
    7ff6:	2b00      	cmp	r3, #0
    7ff8:	d000      	beq.n	7ffc <_close_r+0x1c>
    7ffa:	602b      	str	r3, [r5, #0]
    7ffc:	bd70      	pop	{r4, r5, r6, pc}
    7ffe:	46c0      	nop			; (mov r8, r8)
    8000:	20002b9c 	.word	0x20002b9c

00008004 <_fstat_r>:
    8004:	2300      	movs	r3, #0
    8006:	b570      	push	{r4, r5, r6, lr}
    8008:	4c06      	ldr	r4, [pc, #24]	; (8024 <_fstat_r+0x20>)
    800a:	0005      	movs	r5, r0
    800c:	0008      	movs	r0, r1
    800e:	0011      	movs	r1, r2
    8010:	6023      	str	r3, [r4, #0]
    8012:	f7fb fdce 	bl	3bb2 <_fstat>
    8016:	1c43      	adds	r3, r0, #1
    8018:	d103      	bne.n	8022 <_fstat_r+0x1e>
    801a:	6823      	ldr	r3, [r4, #0]
    801c:	2b00      	cmp	r3, #0
    801e:	d000      	beq.n	8022 <_fstat_r+0x1e>
    8020:	602b      	str	r3, [r5, #0]
    8022:	bd70      	pop	{r4, r5, r6, pc}
    8024:	20002b9c 	.word	0x20002b9c

00008028 <_isatty_r>:
    8028:	2300      	movs	r3, #0
    802a:	b570      	push	{r4, r5, r6, lr}
    802c:	4c06      	ldr	r4, [pc, #24]	; (8048 <_isatty_r+0x20>)
    802e:	0005      	movs	r5, r0
    8030:	0008      	movs	r0, r1
    8032:	6023      	str	r3, [r4, #0]
    8034:	f7fb fdc2 	bl	3bbc <_isatty>
    8038:	1c43      	adds	r3, r0, #1
    803a:	d103      	bne.n	8044 <_isatty_r+0x1c>
    803c:	6823      	ldr	r3, [r4, #0]
    803e:	2b00      	cmp	r3, #0
    8040:	d000      	beq.n	8044 <_isatty_r+0x1c>
    8042:	602b      	str	r3, [r5, #0]
    8044:	bd70      	pop	{r4, r5, r6, pc}
    8046:	46c0      	nop			; (mov r8, r8)
    8048:	20002b9c 	.word	0x20002b9c

0000804c <_lseek_r>:
    804c:	b570      	push	{r4, r5, r6, lr}
    804e:	0005      	movs	r5, r0
    8050:	0008      	movs	r0, r1
    8052:	0011      	movs	r1, r2
    8054:	2200      	movs	r2, #0
    8056:	4c06      	ldr	r4, [pc, #24]	; (8070 <_lseek_r+0x24>)
    8058:	6022      	str	r2, [r4, #0]
    805a:	001a      	movs	r2, r3
    805c:	f7fb fdb0 	bl	3bc0 <_lseek>
    8060:	1c43      	adds	r3, r0, #1
    8062:	d103      	bne.n	806c <_lseek_r+0x20>
    8064:	6823      	ldr	r3, [r4, #0]
    8066:	2b00      	cmp	r3, #0
    8068:	d000      	beq.n	806c <_lseek_r+0x20>
    806a:	602b      	str	r3, [r5, #0]
    806c:	bd70      	pop	{r4, r5, r6, pc}
    806e:	46c0      	nop			; (mov r8, r8)
    8070:	20002b9c 	.word	0x20002b9c

00008074 <memchr>:
    8074:	b2c9      	uxtb	r1, r1
    8076:	1882      	adds	r2, r0, r2
    8078:	4290      	cmp	r0, r2
    807a:	d101      	bne.n	8080 <memchr+0xc>
    807c:	2000      	movs	r0, #0
    807e:	4770      	bx	lr
    8080:	7803      	ldrb	r3, [r0, #0]
    8082:	428b      	cmp	r3, r1
    8084:	d0fb      	beq.n	807e <memchr+0xa>
    8086:	3001      	adds	r0, #1
    8088:	e7f6      	b.n	8078 <memchr+0x4>
	...

0000808c <_read_r>:
    808c:	b570      	push	{r4, r5, r6, lr}
    808e:	0005      	movs	r5, r0
    8090:	0008      	movs	r0, r1
    8092:	0011      	movs	r1, r2
    8094:	2200      	movs	r2, #0
    8096:	4c06      	ldr	r4, [pc, #24]	; (80b0 <_read_r+0x24>)
    8098:	6022      	str	r2, [r4, #0]
    809a:	001a      	movs	r2, r3
    809c:	f7fb fd2a 	bl	3af4 <_read>
    80a0:	1c43      	adds	r3, r0, #1
    80a2:	d103      	bne.n	80ac <_read_r+0x20>
    80a4:	6823      	ldr	r3, [r4, #0]
    80a6:	2b00      	cmp	r3, #0
    80a8:	d000      	beq.n	80ac <_read_r+0x20>
    80aa:	602b      	str	r3, [r5, #0]
    80ac:	bd70      	pop	{r4, r5, r6, pc}
    80ae:	46c0      	nop			; (mov r8, r8)
    80b0:	20002b9c 	.word	0x20002b9c
    80b4:	00000148 	.word	0x00000148
    80b8:	00000128 	.word	0x00000128
    80bc:	0000012c 	.word	0x0000012c
    80c0:	00000130 	.word	0x00000130
    80c4:	00000134 	.word	0x00000134
    80c8:	00000138 	.word	0x00000138
    80cc:	00000128 	.word	0x00000128
    80d0:	00000128 	.word	0x00000128
    80d4:	0000013c 	.word	0x0000013c
    80d8:	00000128 	.word	0x00000128
    80dc:	00000128 	.word	0x00000128
    80e0:	0000013c 	.word	0x0000013c
    80e4:	00000128 	.word	0x00000128
    80e8:	00000140 	.word	0x00000140
    80ec:	00000140 	.word	0x00000140
    80f0:	00000128 	.word	0x00000128
    80f4:	203a7325 	.word	0x203a7325
    80f8:	72646461 	.word	0x72646461
    80fc:	5d64255b 	.word	0x5d64255b
    8100:	25203d20 	.word	0x25203d20
    8104:	000d0a64 	.word	0x000d0a64
    8108:	203a7325 	.word	0x203a7325
    810c:	73706f68 	.word	0x73706f68
    8110:	5d64255b 	.word	0x5d64255b
    8114:	25203d20 	.word	0x25203d20
    8118:	000d0a64 	.word	0x000d0a64
    811c:	203a7325 	.word	0x203a7325
    8120:	65636552 	.word	0x65636552
    8124:	6e697669 	.word	0x6e697669
    8128:	72662067 	.word	0x72662067
    812c:	6e206d6f 	.word	0x6e206d6f
    8130:	72646461 	.word	0x72646461
    8134:	2c782520 	.word	0x2c782520
    8138:	74657220 	.word	0x74657220
    813c:	0a782520 	.word	0x0a782520
    8140:	0000000d 	.word	0x0000000d
    8144:	203a7325 	.word	0x203a7325
    8148:	646e6553 	.word	0x646e6553
    814c:	20676e69 	.word	0x20676e69
    8150:	6e206f74 	.word	0x6e206f74
    8154:	72646461 	.word	0x72646461
    8158:	2c782520 	.word	0x2c782520
    815c:	6e656c20 	.word	0x6e656c20
    8160:	0a642520 	.word	0x0a642520
    8164:	0000000d 	.word	0x0000000d
    8168:	203a7325 	.word	0x203a7325
    816c:	72636544 	.word	0x72636544
    8170:	20747079 	.word	0x20747079
    8174:	20676154 	.word	0x20676154
    8178:	6c696146 	.word	0x6c696146
    817c:	25206465 	.word	0x25206465
    8180:	25202c69 	.word	0x25202c69
    8184:	000d0a69 	.word	0x000d0a69
    8188:	203a7325 	.word	0x203a7325
    818c:	65636552 	.word	0x65636552
    8190:	64657669 	.word	0x64657669
    8194:	0d0a203a 	.word	0x0d0a203a
    8198:	00000000 	.word	0x00000000
    819c:	00207825 	.word	0x00207825
    81a0:	203a7325 	.word	0x203a7325
    81a4:	73736553 	.word	0x73736553
    81a8:	206e6f69 	.word	0x206e6f69
    81ac:	3a79654b 	.word	0x3a79654b
    81b0:	000d0a20 	.word	0x000d0a20
    81b4:	203a7325 	.word	0x203a7325
    81b8:	636e6f4e 	.word	0x636e6f4e
    81bc:	0a203a65 	.word	0x0a203a65
    81c0:	0000000d 	.word	0x0000000d
    81c4:	00000b38 	.word	0x00000b38
    81c8:	00000baa 	.word	0x00000baa
    81cc:	00000baa 	.word	0x00000baa
    81d0:	00000baa 	.word	0x00000baa
    81d4:	00000b62 	.word	0x00000b62
    81d8:	00000baa 	.word	0x00000baa
    81dc:	00000baa 	.word	0x00000baa
    81e0:	00000baa 	.word	0x00000baa
    81e4:	00000b6e 	.word	0x00000b6e
    81e8:	00000baa 	.word	0x00000baa
    81ec:	00000baa 	.word	0x00000baa
    81f0:	00000baa 	.word	0x00000baa
    81f4:	00000b7a 	.word	0x00000b7a
    81f8:	00000baa 	.word	0x00000baa
    81fc:	00000baa 	.word	0x00000baa
    8200:	00000baa 	.word	0x00000baa
    8204:	00000baa 	.word	0x00000baa
    8208:	00000baa 	.word	0x00000baa
    820c:	00000baa 	.word	0x00000baa
    8210:	00000baa 	.word	0x00000baa
    8214:	00000b86 	.word	0x00000b86
    8218:	00000baa 	.word	0x00000baa
    821c:	00000baa 	.word	0x00000baa
    8220:	00000baa 	.word	0x00000baa
    8224:	00000baa 	.word	0x00000baa
    8228:	00000baa 	.word	0x00000baa
    822c:	00000baa 	.word	0x00000baa
    8230:	00000baa 	.word	0x00000baa
    8234:	00000baa 	.word	0x00000baa
    8238:	00000baa 	.word	0x00000baa
    823c:	00000baa 	.word	0x00000baa
    8240:	00000baa 	.word	0x00000baa
    8244:	00000baa 	.word	0x00000baa
    8248:	00000baa 	.word	0x00000baa
    824c:	00000baa 	.word	0x00000baa
    8250:	00000baa 	.word	0x00000baa
    8254:	00000b92 	.word	0x00000b92
    8258:	00000baa 	.word	0x00000baa
    825c:	00000baa 	.word	0x00000baa
    8260:	00000baa 	.word	0x00000baa
    8264:	00000baa 	.word	0x00000baa
    8268:	00000baa 	.word	0x00000baa
    826c:	00000baa 	.word	0x00000baa
    8270:	00000baa 	.word	0x00000baa
    8274:	00000baa 	.word	0x00000baa
    8278:	00000baa 	.word	0x00000baa
    827c:	00000baa 	.word	0x00000baa
    8280:	00000baa 	.word	0x00000baa
    8284:	00000baa 	.word	0x00000baa
    8288:	00000baa 	.word	0x00000baa
    828c:	00000baa 	.word	0x00000baa
    8290:	00000baa 	.word	0x00000baa
    8294:	00000b9e 	.word	0x00000b9e
    8298:	00000d76 	.word	0x00000d76
    829c:	00000d54 	.word	0x00000d54
    82a0:	00000d58 	.word	0x00000d58
    82a4:	00000d5c 	.word	0x00000d5c
    82a8:	00000d60 	.word	0x00000d60
    82ac:	00000d64 	.word	0x00000d64
    82b0:	00000d68 	.word	0x00000d68
    82b4:	00000db8 	.word	0x00000db8
    82b8:	00000d96 	.word	0x00000d96
    82bc:	00000d9a 	.word	0x00000d9a
    82c0:	00000d9e 	.word	0x00000d9e
    82c4:	00000da2 	.word	0x00000da2
    82c8:	00000da6 	.word	0x00000da6
    82cc:	00000daa 	.word	0x00000daa
    82d0:	00000dfc 	.word	0x00000dfc
    82d4:	00000dda 	.word	0x00000dda
    82d8:	00000dde 	.word	0x00000dde
    82dc:	00000de2 	.word	0x00000de2
    82e0:	00000de6 	.word	0x00000de6
    82e4:	00000dea 	.word	0x00000dea
    82e8:	00000dee 	.word	0x00000dee
    82ec:	00000ec2 	.word	0x00000ec2
    82f0:	00000ea0 	.word	0x00000ea0
    82f4:	00000ea4 	.word	0x00000ea4
    82f8:	00000ea8 	.word	0x00000ea8
    82fc:	00000eac 	.word	0x00000eac
    8300:	00000eb0 	.word	0x00000eb0
    8304:	00000eb4 	.word	0x00000eb4
    8308:	00000f04 	.word	0x00000f04
    830c:	00000ee2 	.word	0x00000ee2
    8310:	00000ee6 	.word	0x00000ee6
    8314:	00000eea 	.word	0x00000eea
    8318:	00000eee 	.word	0x00000eee
    831c:	00000ef2 	.word	0x00000ef2
    8320:	00000ef6 	.word	0x00000ef6
    8324:	00000f48 	.word	0x00000f48
    8328:	00000f26 	.word	0x00000f26
    832c:	00000f2a 	.word	0x00000f2a
    8330:	00000f2e 	.word	0x00000f2e
    8334:	00000f32 	.word	0x00000f32
    8338:	00000f36 	.word	0x00000f36
    833c:	00000f3a 	.word	0x00000f3a
    8340:	75206e41 	.word	0x75206e41
    8344:	7078656e 	.word	0x7078656e
    8348:	65746365 	.word	0x65746365
    834c:	61762064 	.word	0x61762064
    8350:	2065756c 	.word	0x2065756c
    8354:	20736177 	.word	0x20736177
    8358:	6f636e65 	.word	0x6f636e65
    835c:	65746e75 	.word	0x65746e75
    8360:	20646572 	.word	0x20646572
    8364:	43206e69 	.word	0x43206e69
    8368:	545f4e41 	.word	0x545f4e41
    836c:	61525f78 	.word	0x61525f78
    8370:	25202c77 	.word	0x25202c77
    8374:	64252064 	.word	0x64252064
    8378:	000a0d2e 	.word	0x000a0d2e

0000837c <map>:
    837c:	030201ff 07060504 14100c08 40302018     ............. 0@
    838c:	203a7325 65636552 64657669 67657220     %s: Received reg
    839c:	72616c75 74616420 0d0a2e61 00000000     ular data.......
    83ac:	74616857 64696420 756f7920 73756a20     What did you jus
    83bc:	69672074 6d206576 000d2e65 55424544     t give me...DEBU
    83cc:	44203a47 7420434c 6156206f 25203a6c     G: DLC to Val: %
    83dc:	000a0d64 203a7325 7774654e 206b726f     d...%s: Network 
    83ec:	65636552 20657669 654d202d 67617373     Receive - Messag
    83fc:	0a203a65 0000000d 203a7325 65636552     e: .....%s: Rece
    840c:	64657669 6f726220 61636461 64207473     ived broadcast d
    841c:	2e617461 00000d0a 203a7325 616f7242     ata.....%s: Broa
    842c:	73616364 654e2074 726f7774 6552206b     dcast Network Re
    843c:	76696563 202d2065 7373654d 3a656761     ceive - Message:
    844c:	000d0a20 203a7325 7774654e 206b726f      ...%s: Network 
    845c:	646e6573 4d202d20 61737365 203a6567     send - Message: 
    846c:	00000d0a 203a7325 63637553 66737365     ....%s: Successf
    847c:	796c6c75 6e655320 61442074 74206174     ully Sent Data t
    848c:	4449206f 2e642520 00000d0a              o ID %d.....

00008498 <HARDWARE_ID_VAL>:
    8498:	00000009 6c696146 50206465 696c6275     ....Failed Publi
    84a8:	654b2063 65472079 6172656e 6e6f6974     c Key Generation
    84b8:	0000000d 6c696146 53206465 65726168     ....Failed Share
    84c8:	65532064 74657263 65724320 6f697461     d Secret Creatio
    84d8:	00000d6e 20656854 76726573 69207265     n...The server i
    84e8:	6f6e2073 68742074 6e6f2065 6f792065     s not the one yo
    84f8:	61772075 7420746e 6f63206f 63656e6e     u want to connec
    8508:	6f742074 00000d21 203a7325 65707845     t to!...%s: Expe
    8518:	64657463 73655220 736e6f70 0a203a65     cted Response: .
    8528:	0000000d 203a7325 65636552 64657669     ....%s: Received
    8538:	73655220 736e6f70 0a203a65 0000000d      Response: .....
    8548:	203a7325 6e676953 72757461 6f662065     %s: Signature fo
    8558:	65532072 6f697373 654b206e 61772079     r Session Key wa
    8568:	6e492073 72726f63 21746365 00000d0a     s Incorrect!....
    8578:	203a7325 706d6f43 6574656c 61502064     %s: Completed Pa
    8588:	746e6572 41207327 65687475 6369746e     rent's Authentic
    8598:	6f697461 000d0a6e 325f5045 53545f42     ation...EP_2B_TS
    85a8:	00534e45 42000400 42000800 42000c00     ENS....B...B...B
    85b8:	42001000 42001400 42001800 000033ae     ...B...B...B.3..
    85c8:	000033aa 000033aa 000033dc 000033dc     .3...3...3...3..
    85d8:	000033c6 000033b4 000033cc 000035a0     .3...3...3...5..
    85e8:	00003580 00003580 000035d6 00003592     .5...5...5...5..
    85f8:	000035ae 00003584 000035bc              .5...5...5..

00008604 <PARAMETER_d>:
    8604:	00000142 00000000 000e4000 00000000     B........@......
    8614:	00000000 01fc0c8d 0085223c 020fcb38     ........<"..8...
    8624:	0211995f 005e472f                       _.../G^.

0000862c <FIXED_BASE_TABLE>:
    862c:	0303e631 028d3ce9 02b5fe18 02fc7540     1....<......@u..
    863c:	00287460 00f90353 0398bdf9 02cdee02     `t(.S...........
    864c:	00de2e1a 000c3ba0 00937edc 03c3e62c     .....;...~..,...
    865c:	0055590b 01e093c3 00740b7c 03a01366     .YU.....|.t.f...
    866c:	0048e448 017a5b32 02e4ea55 004ffcf5     H.H.2[z.U.....O.
    867c:	03da42bb 02bf32ea 017c6297 00dd55b2     .B...2...b|..U..
    868c:	005948d1 0330684c 02268e4c 01f27a81     .HY.Lh0.L.&..z..
    869c:	01c828d0 000caf2b 01188787 02e8063f     .(..+.......?...
    86ac:	012a83a8 02062374 00554612 009f9b77     ..*.t#...FU.w...
    86bc:	00f30cf0 02049b0b 03e2e134 001baeea     ........4.......
    86cc:	01faf900 01096984 03789006 004b869b     .....i....x...K.
    86dc:	0018f7cd 02556066 033c2684 036eb6dc     ....f`U..&<...n.
    86ec:	03bab39e 00448e05 012829b0 03ccda27     ......D..)(.'...
    86fc:	03db4bf2 032ca55e 006d911d 003c03ee     .K..^.,...m...<.
    870c:	00d4f6f7 025019f2 0016eafb 0006c543     ......P.....C...
    871c:	01afa125 03d15c4f 0364d2ea 01619228     %...O\....d.(.a.
    872c:	00729630 01313ef2 01ddc7e7 0306961b     0.r..>1.........
    873c:	03e2ff8a 004f41c7 019790ac 0188eb96     .....AO.........
    874c:	00a42408 021910cc 004d3385 00dd7487     .$.......3M..t..
    875c:	01a59927 02114fc5 03839663 0074df72     '....O..c...r.t.
    876c:	013c110b 0018c964 030d8c9a 00457f92     ..<.d.........E.
    877c:	00076bd4 02bff3d9 00679975 03a08766     .k......u.g.f...
    878c:	0051f3b8 00249240 00965a73 016e5852     ..Q.@.$.sZ..RXn.
    879c:	03706d69 028a20a7 0028aac8 01f7a57b     imp.. ....(.{...
    87ac:	007014ca 0200e41f 03a27c0f 00441ca9     ..p......|....D.
    87bc:	03f7241e 028e2ae2 037f4e1a 02bf20ca     .$...*...N... ..
    87cc:	0058f28c 025400c6 02be2e3e 0063ecad     ..X...T.>.....c.
    87dc:	0018a13a 0034b6d1 02f15097 02632ace     :.....4..P...*c.
    87ec:	01c49f54 024005f6 006dbe77 0048e8bc     T.....@.w.m...H.
    87fc:	03ddaa05 0200663b 016fc8eb 00637192     ....;f....o..qc.
    880c:	01ed81fa 00b1c86f 016abc5e 03bb5a01     ....o...^.j..Z..
    881c:	004ede70 00975810 03366d6d 01aa88f3     p.N..X..mm6.....
    882c:	0064bc2a 004752fd 03734414 01e53ac7     *.d..RG..Ds..:..
    883c:	00662318 034b211a 0011ddf7 02b1a34e     .#f..!K.....N...
    884c:	00ec1bdc 02770261 02cdeac1 00465575     ....a.w.....uUF.
    885c:	02638d2b 026117e0 018ce40b 0141e40a     +.c...a.......A.
    886c:	00488940 01b4f131 02e4e940 032fbbed     @.H.1...@...../.
    887c:	0034a226 0004f356 015b278b 03761d44     &.4.V....'[.D.v.
    888c:	0058a457 0395364a 0056f25e 020c977e     W.X.J6..^.V.~...
    889c:	01307373 0099692d 01061f5d 00078fca     ss0.-i..].......
    88ac:	02cc22a1 02cb7b5d 02bf63bb 0214f770     ."..]{...c..p...
    88bc:	00117b28 01c2baa2 00dd9f2e 00a8f43f     ({..........?...
    88cc:	009783aa 0073079e 0215796d 01e64ad6     ......s.my...J..
    88dc:	02f92017 00520367 002e7772 03372916     . ..g.R.rw...)7.
    88ec:	02620d59 0176dbe0 01adebdd 00258f17     Y.b...v.......%.
    88fc:	0168391b 00ce3f58 013a4308 017e69cd     .9h.X?...C:..i~.
    890c:	00728592 03e85114 0303f413 02b51862     ..r..Q......b...
    891c:	039d08eb 0053259e 033b1a68 000c6a12     .....%S.h.;..j..
    892c:	031fcfe0 01987e81 001a4f1d 01c928a7     .....~...O...(..
    893c:	035505a3 02a6a2dd 006b7c65 0060185c     ..U.....e|k.\.`.
    894c:	006da9b4 0025c5f7 03c03498 012d373f     ..m...%..4..?7-.
    895c:	00606209 01fa7e8d 03a9be81 008a0a41     .b`..~......A...
    896c:	01bc9dc5 004a4fe0 029e80f0 0094ea7b     .....OJ.....{...
    897c:	017337bb 022f32c4 00419a92 029a039e     .7s..2/...A.....
    898c:	008ef99a 014bb843 02ba5ca0 0001b2d1     ....C.K..\......
    899c:	03051231 02216134 01dd7a75 0083325e     1...4a!.uz..^2..
    89ac:	0054df1e 022f22dd 0241bf8f 01a0f91d     ..T.."/...A.....
    89bc:	025d7f7c 004e36e9 03747634 021c5d1a     |.]..6N.4vt..]..
    89cc:	03433d81 02ebbb84 003e5e31 0173baa3     .=C.....1^>...s.
    89dc:	02a025e5 037c6e4d 0365f3f9 004b852a     .%..Mn|...e.*.K.
    89ec:	00418b9e 02cd19c5 02f88e08 026cbf9b     ..A...........l.
    89fc:	00283d71 005c180b 00e74b79 015c8b73     q=(...\.yK..s.\.
    8a0c:	03bc474b 0075acfc 00561876 001ddea3     KG....u.v.V.....
    8a1c:	00c4b8f4 01029c4d 000c54ac 02baee08     ....M....T......
    8a2c:	038a1f59 008bfb92 01401a86 006f357e     Y.........@.~5o.
    8a3c:	011e6971 000cc67b 03d40c59 03be476b     qi..{...Y...kG..
    8a4c:	00747c45 012f816e 0021aa47 02f7dde4     E|t.n./.G.!.....
    8a5c:	03b6cecf 005dcb27 021dd2ee 03711b3e     ....'.].....>.q.
    8a6c:	0249843f 027dc259 0051551f 01ed9bdc     ?.I.Y.}..UQ.....
    8a7c:	014d3dd8 0307fb54 02cc1cfe 00453455     .=M.T.......U4E.
    8a8c:	03cab70b 01dcf8e0 034dff24 0179d633     ........$.M.3.y.
    8a9c:	00679be2 003eee29 01fb7ca5 00f66da1     ..g.).>..|...m..
    8aac:	02e35b70 003dc9e5 013fb75b 01432e90     p[....=.[.?...C.
    8abc:	0137f56a 016f16a1 001e6531 002c7213     j.7...o.1e...r,.
    8acc:	024090a0 0252e5ff 0323d094 0073c9d8     ..@...R...#...s.
    8adc:	03198c8f 00dee18c 00f333c6 02cfb505     .........3......
    8aec:	00534f84 02dd6902 004f9cb7 033afad3     .OS..i....O...:.
    8afc:	0250737c 005ed57e 0257306e 03f8074a     |sP.~.^.n0W.J...
    8b0c:	013f95a6 03a8d11c 0073b63d 031c2bf3     ..?.....=.s..+..
    8b1c:	02dc15c3 018db39c 03927c68 002df8c6     ........h|....-.
    8b2c:	037797e4 02f0d259 01062661 032efafa     ..w.Y...a&......
    8b3c:	00501ae7 00959643 00aa237a 01d515b5     ..P.C...z#......
    8b4c:	00a04700 00037275 001bb928 0315e88c     .G..ur..(.......
    8b5c:	00fc6010 01c55555 00378b31 01a02cf1     .`..UU..1.7..,..
    8b6c:	00fe908a 01b29f88 02e1435f 005f0047     ........_C..G._.
    8b7c:	00402daa 011eb8ca 022bc4d2 009ea142     .-@.......+.B...
    8b8c:	000d0306 00a443f5 019766a2 03089b4e     .....C...f..N...
    8b9c:	01acb5b6 006ec968 02a1d987 000b823f     ....h.n.....?...
    8bac:	03600de2 034fca35 005c64e1 0261bfb7     ..`.5.O..d\...a.
    8bbc:	0345efbd 0334c157 00db75d4 0056392d     ..E.W.4..u..-9V.
    8bcc:	0119155c 011e362f 02afde25 00b4f4cd     \.../6..%.......
    8bdc:	00146d4f 014e15e8 02f802fe 010c09bf     Om....N.........
    8bec:	0269ab7c 002b185a 0152ab7b 0149ecfb     |.i.Z.+.{.R...I.
    8bfc:	01e80926 0051cc40 0067997e 007cc541     &...@.Q.~.g.A.|.
    8c0c:	03d3fd25 01a7ab58 031feb26 0036f800     %...X...&.....6.
    8c1c:	000456d9 000b8c90 0297bd03 00d902f1     .V..............
    8c2c:	004372e4 0350d898 0132aed1 03cbf914     .rC...P...2.....
    8c3c:	03eb2688 0075d25a 0255cbfe 01645d9d     .&..Z.u...U..]d.
    8c4c:	00b07794 01985ff1 0074db21 0166d0c9     .w..._..!.t...f.
    8c5c:	01ec8909 03b23705 01642105 001d543b     .....7...!d.;T..
    8c6c:	00428783 00a02d11 003ef19c 03f62db3     ..B..-....>..-..
    8c7c:	00352309 0068ae72 00cf5ab0 019f4378     .#5.r.h..Z..xC..
    8c8c:	00688f00 004ec067 03d05bb5 020db868     ..h.g.N..[..h...
    8c9c:	02fe39d9 037fc893 0044fe1a 017efb4a     .9........D.J.~.
    8cac:	01af0f39 00150a29 01a0d685 002efec8     9...)...........
    8cbc:	03194bca 0067027e 012062fe 034e54f3     .K..~.g..b ..TN.
    8ccc:	0018cc07 01c0b9e0 03fc85f2 03cee5bd     ................
    8cdc:	0159606a 00671aa7 00f7d1a2 030ceb8a     j`Y...g.........
    8cec:	023fee1c 0124de82 001b6f25 01babb83     ..?...$.%o......
    8cfc:	000f4599 01211515 00db5622 0074b956     .E....!."V..V.t.
    8d0c:	0296f869 025eb93a 010bdbdb 00627894     i...:.^......xb.
    8d1c:	001507ce 02b93b13 0393553e 00929796     .....;..>U......
    8d2c:	017c1658 006a8176 01a833ed 01014879     X.|.v.j..3..yH..
    8d3c:	036442e9 00cac917 003bdea5 03d52693     .Bd.......;..&..
    8d4c:	01da5d7f 00ed6bea 0122e9b5 0064b948     .]...k....".H.d.
    8d5c:	00e33ec7 014b4065 01f259db 0369558e     .>..e@K..Y...Ui.
    8d6c:	0071cf65 035a8138 01cec7f6 01c22ede     e.q.8.Z.........
    8d7c:	00edb18b 0012e4d1 01185517 026c3099     .........U...0l.
    8d8c:	03dd09d1 03495ed7 0077a011 02cd84e4     .....^I...w.....
    8d9c:	037172ab 012d11fe 005478d2 0046844e     .rq...-..xT.N.F.
    8dac:	004220df 008e8c64 030997a4 031d1fa3     . B.d...........
    8dbc:	005b3165 0335e22e 0197bab7 0195b1c6     e1[...5.........
    8dcc:	015bf115 007802b5 015bd2de 00b7bd00     ..[...x...[.....
    8ddc:	026ad85a 021e55c5 0017f2ab 0060c1e5     Z.j..U........`.
    8dec:	03db4d48 00e6a19c 0346f902 00122a7a     HM........F.z*..
    8dfc:	005bf766 026ef219 01acf5b7 0275342b     f.[...n.....+4u.
    8e0c:	0020fb00 03a28538 009a89ca 00bde975     .. .8.......u...
    8e1c:	03a43508 007041b4 00dab057 00044cd6     .5...Ap.W....L..
    8e2c:	002433b3 019bc349 003d398b 03cd4708     .3$.I....9=..G..
    8e3c:	01666680 0009691a 0027364e 001eae24     .ff..i..N6'.$...
    8e4c:	0036108c 035ad813 0196866d 00de2420     ..6...Z.m... $..
    8e5c:	00171308 0125dcfd 02b5a45c 031ca57c     ......%.\...|...
    8e6c:	02e25c13 0034b06c 0335abf2 03fa39c7     .\..l.4...5..9..
    8e7c:	00db9dca 00663551 00698331 03af075b     ....Q5f.1.i.[...
    8e8c:	01d9d990 02b6d628 03955674 00200950     ....(...tV..P. .
    8e9c:	00dd9074 018ff0fb 013a2d4f 01c50ab0     t.......O-:.....
    8eac:	00747331 01319356 0000c201 038ba96b     1st.V.1.....k...
    8ebc:	0380910d 002c20ff 026ac01a 025446b4     ..... ,...j..FT.
    8ecc:	03cf6488 0086665f 004ee327 030bf8ea     .d.._f..'.N.....
    8edc:	03f9b9c3 026d715f 02d29b42 006b617f     ...._qm.B....ak.
    8eec:	012f7324 01b72871 00277491 03c2191a     $s/.q(...t'.....
    8efc:	003c8269 0037e04b 00843132 0142cc24     i.<.K.7.21..$.B.
    8f0c:	013e4569 004e480b 027fe35e 03bcec26     iE>..HN.^...&...
    8f1c:	004b2c5f 037913f6 0031a501 00a407b9     _,K...y...1.....
    8f2c:	00a79250 025ab79f 00f29733 000ba7e0     P.....Z.3.......
    8f3c:	0274d8ea 022c8162 01adca7a 0204389b     ..t.b.,.z....8..
    8f4c:	0046f4c7 00a1128a 01c6b3a5 02811461     ..F.........a...
    8f5c:	00095256 0044db55 03f18d5c 02278692     VR..U.D.\.....'.
    8f6c:	006b27f8 00a90fcc 004d4f17 031cffad     .'k......OM.....
    8f7c:	0265d9ae 01aca33a 0164934e 00625477     ..e.:...N.d.wTb.
    8f8c:	0225136e 0148c3b0 0211dd85 0341e364     n.%...H.....d.A.
    8f9c:	001c544d 023f63ba 03a65a7d 0138212f     MT...c?.}Z../!8.
    8fac:	03725277 00069af1 03e5c256 02f3d033     wRr.....V...3...
    8fbc:	03595305 02492eee 0063ae90 03b7de06     .SY...I...c.....
    8fcc:	00425de4 0043ee45 03ce7f00 0009780c     .]B.E.C......x..
    8fdc:	03798871 02be39fa 03a37827 01b1dd5d     q.y..9..'x..]...
    8fec:	003ace8a 02e055ba 03c184cc 0292b79d     ..:..U..........
    8ffc:	01eaab3a 00561dc0 020d2673 0108b660     :.....V.s&..`...
    900c:	013487e4 020f82bd 006b85df 02d8526b     ..4.......k.kR..
    901c:	0146b077 002bd1f1 039455c5 0035ead8     w.F...+..U....5.
    902c:	03c79dd4 01bbdb0c 03de46da 01349653     .........F..S.4.
    903c:	005f2ea0 0027d5fa 00df4330 0331b910     .._...'.0C....1.
    904c:	00401ec0 0053b540 014ba5a3 03c6628f     ..@.@.S...K..b..
    905c:	00195810 00966ea5 004463bd 002acf9e     .X...n...cD...*.
    906c:	02252b3b 009ce32b 0187590d 00787117     ;+%.+....Y...qx.
    907c:	011fe211 02b86cfd 02463253 00fd4d6d     .....l..S2F.mM..
    908c:	00409e4b 025e49de 00db4436 0336a3a2     K.@..I^.6D....6.
    909c:	000a7084 0019d2b1 02aadd90 017d010d     .p............}.
    90ac:	00b19283 00541464 000942a3 02828279     ....d.T..B..y...
    90bc:	0244c61d 01f9cc18 030f2a38 003afe96     ..D.....8*....:.
    90cc:	01230693 02006d24 010919f1 02e1897f     ..#.$m..........
    90dc:	0039e28d 01d44c8e 02d40d57 0280d9fa     ..9..L..W.......
    90ec:	0369ca6c 00145155 014d76d5 033e0407     l.i.UQ...vM...>.
    90fc:	02c68d3c 006a30ad 005a0faa 0354ea8a     <....0j...Z...T.
    910c:	019b2132 007733cc 038fd59b 0051052c     2!...3w.....,.Q.
    911c:	01ae9ff5 03853799 030243be 02280733     .....7...C..3.(.
    912c:	00758611 016bf15e 039e4722 013d6089     ..u.^.k."G...`=.
    913c:	00b49876 0035ff02 037d1cf9 03384f63     v.....5...}.cO8.
    914c:	038f6cd3 023e56de 004f1de9 02dc41b4     .l...V>...O..A..
    915c:	01a28918 01d2951e 00f08fdb 0061ad9e     ..............a.
    916c:	00ebdb51 03fa9920 02cf3584 001cfe77     Q... ....5..w...
    917c:	005d52fe 01f336d5 03920fab 0296a9af     .R]..6..........
    918c:	032602c5 001dfa03 03819a19 01cf51ff     ..&..........Q..
    919c:	000ed55f 0174d844 00697bf5 02399419     _...D.t..{i...9.
    91ac:	01201111 0259fded 0119ff38 00618c94     .. ...Y.8.....a.
    91bc:	008ef50c 025ffc7c 033c0f25 02e63764     ....|._.%.<.d7..
    91cc:	0007c935 00ded5f6 01632f1e 0148fbb7     5......../c...H.
    91dc:	001abc4c 001e9a0d 034cd4db 0338515f     L.........L._Q8.
    91ec:	00994879 028658b5 0028396c 017605c3     yH...X..l9(...v.
    91fc:	02568f71 027b1f50 00f69314 001e570f     q.V.P.{......W..
    920c:	00935787 01a68e41 01cce2af 01dbf740     .W..A.......@...
    921c:	00591ee3 00bc8633 02d637e2 015d1f77     ..Y.3....7..w.].
    922c:	0146cbce 005464d6 029a86ae 03025ac7     ..F..dT......Z..
    923c:	02b28afb 012fd96d 006ce2df 029d3e08     ....m./...l..>..
    924c:	02a0a34b 026d03b3 007634b5 00638201     K.....m..4v...c.
    925c:	013d193d 021f2993 016af949 0034edb5     =.=..)..I.j...4.
    926c:	0050ddf7 00ad15a9 037d9f32 01f928d5     ..P.....2.}..(..
    927c:	0262f16c 00392080 03d5a4fb 027d4837     l.b.. 9.....7H}.
    928c:	03ba9ce9 021ee1a9 00323bbc 0003c789     .........;2.....
    929c:	03e22a36 00055e13 02f7c880 0056ffdc     6*...^........V.
    92ac:	0324c72d 03c368c6 00c163af 01991830     -.$..h...c..0...
    92bc:	00700115 02c46a13 01edfd4e 03bc276f     ..p..j..N...o'..
    92cc:	03fadc1d 001c069b 014a3c36 01c64f28     ........6<J.(O..
    92dc:	01e3d8f4 012bc223 006d73e3 017d6634     ....#.+..sm.4f}.
    92ec:	02caf64c 01ec8634 00e2ddfc 005b4047     L...4.......G@[.
    92fc:	00a1cb1d 03eaedc7 02a46f34 032b2951     ........4o..Q)+.
    930c:	00054abb 00eda660 0372b742 01ef1e8c     .J..`...B.r.....
    931c:	02fe562f 006971ab 01db4eaf 00e155f7     /V...qi..N...U..
    932c:	0367c413 0216c1e6 001e1585 03a26068     ..g.........h`..
    933c:	01c11d33 02469d22 00cacf3a 0053b36d     3...".F.:...m.S.
    934c:	00543d08 0148f05b 0314e011 00b17dcc     .=T.[.H......}..
    935c:	004668e9 0117acd1 03cfaf90 0131abae     .hF...........1.
    936c:	006a9c4e 0004037d 0390c68d 00463938     N.j.}.......89F.
    937c:	0157568e 01569130 006b80cd 0329c032     .VW.0.V...k.2.).
    938c:	01faa295 01ab2730 017fbba6 005cc547     ....0'......G.\.
    939c:	0014ac75 01439093 01cd8344 01f976cf     u.....C.D....v..
    93ac:	003f0915 00588052 038ac6d4 02f8f62c     ..?.R.X.....,...
    93bc:	03153994 0027a899 03c2a5ed 0340e7cb     .9....'.......@.
    93cc:	03eec0ac 03775604 004b4044 00a75958     .....Vw.D@K.XY..
    93dc:	034627a4 033a1c04 02f39c74 00242551     .'F...:.t...Q%$.
    93ec:	01f87f05 02be5ad4 01815d95 0083e027     .....Z...]..'...
    93fc:	00029888 039483c5 03d97dce 00b43b27     .........}..';..
    940c:	0117d0d9 002ef607 034fb8b9 01af724f     ..........O.Or..
    941c:	03b8acb6 02d21d5a 002b86c9 039867a1     ....Z.....+..g..
    942c:	02f6b826 029aaf8e 006139bf 00441e70     &........9a.p.D.
    943c:	00cc1289 0094c0cc 02992fdc 016a2d35     ........./..5-j.
    944c:	0047d8d6 00ae74be 00edbe8c 019d58c0     ..G..t.......X..
    945c:	00f30ef6 001ca869 0018f2a6 03ac5444     ....i.......DT..
    946c:	03ff5699 019367d3 003da047 013aab59     .V...g..G.=.Y.:.
    947c:	01c810cf 017ff361 0184b2e1 002fa911     ....a........./.
    948c:	002f1cac 015f6843 00619a40 02e4ce97     ../.Ch_.@.a.....
    949c:	0048a219 015f0bc5 01040834 01dad423     ..H..._.4...#...
    94ac:	01411a82 0073f889 027421b8 0354c4b1     ..A...s..!t...T.
    94bc:	0222e1ba 006cda39 00419477 004e0dff     ..".9.l.w.A...N.
    94cc:	01c69e79 031c28cc 0391519f 004b4564     y....(...Q..dEK.
    94dc:	03e52093 027c5aab 03ea9775 03735d7e     . ...Z|.u...~]s.
    94ec:	00391b71 034ef798 0301a52a 0130d2a1     q.9...N.*.....0.
    94fc:	01515110 00023087 03aa1aa1 02b87ff3     .QQ..0..........
    950c:	021e74b7 00cb5ccd 0064e26f 010b54b9     .t...\..o.d..T..
    951c:	011c0e2f 02e158da 01bfabb3 00148cfa     /....X..........
    952c:	01c2cc3d 01b5351e 003de375 02a34c55     =....5..u.=.UL..
    953c:	0025d44e 02bb2c43 0322fbc9 0337fd82     N.%.C,...."...7.
    954c:	000cf49f 002c2047 03dad260 00cf660d     ....G ,.`....f..
    955c:	03b7d5bd 005e8ce0 00779431 02a583f2     ......^.1.w.....
    956c:	01c75a5f 01bf2120 009ca889 003c7c41     _Z.. !......A|<.
    957c:	01f03ad3 02ef7ebc 0370492e 0031a2d8     .:...~...Ip...1.
    958c:	005d6103 02ee75d1 038a14ee 03636ca6     .a]..u.......lc.
    959c:	00d1dc68 0012404b 02667e4f 00f118c9     h...K@..O~f.....
    95ac:	023b0be1 0245be6f 002bd261 01c80f89     ..;.o.E.a.+.....
    95bc:	00fe32eb 00b4886e 02285e53 0074520d     .2..n...S^(..Rt.
    95cc:	024cf97e 0171d140 02b021e1 0078794f     ~.L.@.q..!..Oyx.
    95dc:	005cee74 0399cda1 0223782b 0062c8d0     t.\.....+x#...b.
    95ec:	02587302 00625812 01c0e934 00d0dcc8     .sX..Xb.4.......
    95fc:	037a4431 01a31093 0060bbc7 0010e143     1Dz.......`.C...
    960c:	01c7efcf 015b8aba 027c52a4 0037b8ea     ......[..R|...7.
    961c:	000213ff 01bb1971 0045c8d9 00a3fdde     ....q.....E.....
    962c:	0074a088 02f607a3 02dc6536 00706bed     ..t.....6e...kp.
    963c:	01c45872 0017e866 024059cf 02e63814     rX..f....Y@..8..
    964c:	02f09ace 03125245 0068552a 031b3c47     ....ER..*Uh.G<..
    965c:	00a5c6eb 01b704cd 02f37788 0068442e     .........w...Dh.
    966c:	02867595 00a6e303 0247a196 034d8d7e     .u........G.~.M.
    967c:	006a6955 02e393ad 02d1783c 010c46fa     Uij.....<x...F..
    968c:	03d3f3c1 0066dd3e 01dc7df1 02deaf3f     ....>.f..}..?...
    969c:	00f9cbb0 01d46c2f 0014eb5b 02fd411d     ..../l..[....A..
    96ac:	01e7e728 0200a1cf 01cfffc1 005c496f     (...........oI\.
    96bc:	01426d70 01236155 018a9496 01a88c8b     pmB.Ua#.........
    96cc:	0046c101 019b6d4f 03f6e1c3 03633b57     ..F.Om......W;c.
    96dc:	01482776 00609eb6 02dc82c5 03e459af     v'H...`......Y..
    96ec:	02f27e70 02d722be 00772fb5 00227a20     p~...".../w. z".
    96fc:	00a5366c 03c8d79a 010444b6 007f75b1     l6.......D...u..
    970c:	02070020 0071fe23 017b198d 02ab1208      ...#.q...{.....
    971c:	005953d0 015f33ff 0094faf8 00c45e28     .SY..3_.....(^..
    972c:	03047985 00267d1d 019e2246 013d42ae     .y...}&.F"...B=.
    973c:	01495be6 01720bf9 004eaaab 0260bed0     .[I...r...N...`.
    974c:	0356b01f 01b4d927 01b79aa8 0067d378     ..V.'.......x.g.
    975c:	036e2945 0258afc3 02a9ba71 01128d7b     E)n...X.q...{...
    976c:	0063d938 026640ac 008a31f4 035a1b34     8.c..@f..1..4.Z.
    977c:	034baca3 00169c38 0039dc22 025caccd     ..K.8...".9...\.
    978c:	01e144b7 015f36a8 00714784 001d58c7     .D...6_..Gq..X..
    979c:	01b8497b 014f1522 025b9e3f 00669d87     {I..".O.?.[...f.
    97ac:	0244a07f 03746aaa 03ecf750 02d56bae     ..D..jt.P....k..
    97bc:	00327c62 014fbd25 02e3a56d 0364e006     b|2.%.O.m.....d.
    97cc:	017407ac 002ab3f9 00d5e196 03942030     ..t...*.....0 ..
    97dc:	02725fcb 035d695f 002a1b9b 00139b5d     ._r._i]...*.]...
    97ec:	02cad9d6 03a731d2 02be126d 00751cf4     .....1..m.....u.
    97fc:	037d00a5 029f4b8c 024bc164 02932e0e     ..}..K..d.K.....
    980c:	0000cee3 01be28f9 02380d9b 00502349     .....(....8.I#P.
    981c:	0245234a 00053d89 02b0fb69 01975932     J#E..=..i...2Y..
    982c:	00e74016 0088235a 004a9913 013f915d     .@..Z#....J.].?.
    983c:	012ef52f 022bbba4 03e45c84 001d34b0     /.....+..\...4..
    984c:	01e8a9f3 005371ca 00b605d1 00f754cd     .....qS......T..
    985c:	0008e7a4 02f0f3e8 02e3a48c 00f6228d     ............."..
    986c:	006e0099 005cb7be 02508f23 00b1e1e0     ..n...\.#.P.....
    987c:	021b29af 0333df8e 00336ae7 01d194be     .)....3..j3.....
    988c:	00b53b8b 028727fe 006cae29 00573d2e     .;...'..).l..=W.
    989c:	03b2ea36 00ba8cd8 00243333 00dd6c7d     6.......33$.}l..
    98ac:	00200bc1 02b3260d 011f2301 01c5e65c     .. ..&...#..\...
    98bc:	03294e65 0042021f 03b19946 039b3d26     eN)...B.F...&=..
    98cc:	02d2c2f7 01a88c65 00311fba 03e0d70d     ....e.....1.....
    98dc:	0304ed8a 030dcc30 00509c46 0061eeac     ....0...F.P...a.
    98ec:	017d35d4 009a6596 021d7885 032f9af4     .5}..e...x..../.
    98fc:	0070169b 0129a510 006cb42b 0394da0f     ..p...).+.l.....
    990c:	0051cb06 002ade53 009873e7 00c83706     ..Q.S.*..s...7..
    991c:	01b3811e 0253a173 002d2a17 02f621e3     ....s.S..*-..!..
    992c:	023114e9 036f7a0a 02d51497 004b06d5     ..1..zo.......K.
    993c:	0048ec1c 02459a46 00730f42 0155755e     ..H.F.E.B.s.^uU.
    994c:	001d4216 010a5b4e 018369ca 0165ff8c     .B..N[...i....e.
    995c:	00e687cd 0066dd9f 03b474a0 030a764d     ......f..t..Mv..
    996c:	01ee455a 01e928da 00429196 02e6bc89     ZE...(....B.....
    997c:	036b2a84 00310918 02401947 003d46e8     .*k...1.G.@..F=.
    998c:	000e90b1 01550c28 00a39af0 03d5b697     ....(.U.........
    999c:	0016f62b 008c51e6 00870cd2 03cd51a0     +....Q.......Q..
    99ac:	037d8fee 000d64da 01bfea7c 023b3967     ..}..d..|...g9;.
    99bc:	0203a091 035f75d0 003b3319 039fa90c     .....u_..3;.....
    99cc:	021516e2 019e61d8 03724231 0013b792     .....a..1Br.....
    99dc:	003d0979 0364e6a7 031270a2 02fadd2f     y.=...d..p../...
    99ec:	00321a5d 026d8470 0251fffd 03c995e5     ].2.p.m...Q.....
    99fc:	032bf49a 0022ec9e 03b10536 01f2a0a4     ..+...".6.......
    9a0c:	01846de1 03015677 00593f56 01485023     .m..wV..V?Y.#PH.
    9a1c:	020dccdd 00b1c114 03f7dd12 0023c6b0     ..............#.
    9a2c:	0227804f 02411162 02a70377 02589c9b     O.'.b.A.w.....X.
    9a3c:	00573e91 0235ac70 006c93cc 0385e35e     .>W.p.5...l.^...
    9a4c:	008127d3 0051ba08 00d47194 01246058     .'....Q..q..X`$.
    9a5c:	021dd4bc 0078cc23 005d29a2 026e4e33     ....#.x..)].3Nn.
    9a6c:	016252cf 010fb7e1 00bd3cc7 0050dbbd     .Rb......<....P.
    9a7c:	01a9c9de 0122f48d 00710ef2 03486d8d     ......"...q..mH.
    9a8c:	003418ad 02363bd2 01c8ce94 0099f96c     ..4..;6.....l...
    9a9c:	02b66823 007c8414 00e6c05c 02b2d295     #h....|.\.......
    9aac:	0179abc6 0068464d 00572902 0308fa1c     ..y.MFh..)W.....
    9abc:	01f0f802 02a73062 03e785f0 003d0b4f     ....b0......O.=.
    9acc:	0190317f 01fa1d56 03e48d50 02cef1ef     .1..V...P.......
    9adc:	0075b27b 00e651f5 0203cb1b 02e4644a     {.u..Q......Jd..
    9aec:	03f06dc1 007b9795 01f9a640 01d6f7bf     .m....{.@.......
    9afc:	03aa89de 002aeaff 0075ade5 030889a0     ......*...u.....
    9b0c:	02ac45a1 02c6cce0 03f37567 006f3ddc     .E......gu...=o.
    9b1c:	00de0674 01a0cd62 020736e3 00a7a8a2     t...b....6......
    9b2c:	00291d11 00884d61 02394e19 00d76f8b     ..).aM...N9..o..
    9b3c:	03c6ba15 00706ef8 03753069 02a31960     .....np.i0u.`...
    9b4c:	03966137 00731883 0001e45f 0376c7ba     7a....s._.....v.
    9b5c:	0387fe0b 01c54e28 02b38fa2 0036d29e     ....(N........6.
    9b6c:	030b49cb 01e7c55f 03937833 0278aeb2     .I.._...3x....x.
    9b7c:	0065e9c3 030cda3e 008f1141 02de59b3     ..e.>...A....Y..
    9b8c:	00c6adf8 0016e02f 035122b7 033cd198     ..../...."Q...<.
    9b9c:	01e0953b 001f5b0b 001fd7e2 021e57ac     ;....[.......W..
    9bac:	03d7e53a 034df3a5 03a343c2 000cba06     :.....M..C......
    9bbc:	03a9c392 011030e1 0180070b 010f7b87     .....0.......{..
    9bcc:	001e7dc1 0239912b 022e9b5c 02d14549     .}..+.9.\...IE..
    9bdc:	02805c60 00332870 032d794c 00c1bf19     `\..p(3.Ly-.....
    9bec:	02b4e6be 0044916c 002c2ce2 012ba79f     ....l.D..,,...+.
    9bfc:	02dc8b23 0327a109 03ea717d 00268520     #.....'.}q.. .&.
    9c0c:	00fe78ee 02cc0149 02698515 03b32eba     .x..I.....i.....
    9c1c:	00736201 0210bf78 022b044c 01843460     .bs.x...L.+.`4..
    9c2c:	02467110 0032d8fd 00b8f2d8 015f86c1     .qF...2......._.
    9c3c:	03459c95 03de6371 00775437 03a417f5     ..E.qc..7Tw.....
    9c4c:	003d5616 01304120 017cf9eb 002e00ec     .V=. A0...|.....
    9c5c:	03446288 01cf57ca 036e4fc8 024d8921     .bD..W...On.!.M.
    9c6c:	0032270a 00789b22 01a91f02 016bec64     .'2.".x.....d.k.
    9c7c:	03fa4958 002370d9 01e671c4 02be8d86     XI...p#..q......
    9c8c:	01fb2430 033ab07d 00156468 02417635     0$..}.:.hd..5vA.
    9c9c:	0137b0bc 0258f3b8 02405f03 0031140e     ..7...X.._@...1.
    9cac:	037443fa 017e2332 024ac5c8 01759361     .Ct.2#~...J.a.u.
    9cbc:	000da75f 01b0fb84 03fd121c 036c3295     _............2l.
    9ccc:	002eb4cc 001b79e1 012977b3 03e650b7     .....y...w)..P..
    9cdc:	01a23ffd 02343e68 004c1b19 0112864e     .?..h>4...L.N...
    9cec:	01e28930 008d0ba7 025fc9b5 0074f668     0........._.h.t.
    9cfc:	027ab611 01701ba1 038b93fd 00cffde1     ..z...p.........
    9d0c:	004b98ce 01cb9165 02d3739d 01163f7d     ..K.e....s..}?..
    9d1c:	028267b1 0011665a 027118b9 0263c5ab     .g..Zf....q...c.
    9d2c:	0109a2a4 036ed3ad 00265ec3 00ce2c86     ......n..^&..,..
    9d3c:	0108c19a 033853da 02aacb8c 0036e62b     .....S8.....+.6.
    9d4c:	01ab4478 001f529e 00875995 03f1047a     xD...R...Y..z...
    9d5c:	0025bfb2 03022ce1 0307b24c 00466d7a     ..%..,..L...zmF.
    9d6c:	02b80cf4 0023d341 0162bc00 016d197a     ....A.#...b.z.m.
    9d7c:	03180d29 006e8b5c 0023d021 03922d4d     )...\.n.!.#.M-..
    9d8c:	03335ebf 01514a03 012378c0 001e7671     .^3..JQ..x#.qv..
    9d9c:	0094efab 006acdaa 01e58c24 03cd0ff0     ......j.$.......
    9dac:	001c9fc2 03d27a87 02e5958a 03015ca3     .....z.......\..
    9dbc:	008a1775 0053623e 00219420 01047c07     u...>bS. .!..|..
    9dcc:	002f9557 01dc25ad 00192655 0323592f     W./..%..U&../Y#.
    9ddc:	004b6506 01c06d33 02870f14 0030a9a9     .eK.3m........0.
    9dec:	026e8f79 026c2cfa 03cb23d8 0077171d     y.n..,l..#....w.
    9dfc:	007eab75 02df6e36 026c61b9 01694c0a     u.~.6n...al..Li.
    9e0c:	0160fc55 004f844d 0393dffa 000608c9     U.`.M.O.........
    9e1c:	0054d419 002daf4e 002add44 01df6e32     ..T.N.-.D.*.2n..
    9e2c:	01203c4c 02417d55 0211ab8f 00318ce3     L< .U}A.......1.
    9e3c:	020984f4 01418b46 039f6056 018f4aff     ....F.A.V`...J..
    9e4c:	006ebaec 01e79790 01d7f9ca 024e7770     ..n.........pwN.
    9e5c:	01189322 000dd943 03a9b062 03c478b7     "...C...b....x..
    9e6c:	03364bf8 00957ba2 001b17d8 032c6344     .K6..{......Dc,.
    9e7c:	0085433d 028dc62c 02034207 00281068     =C..,....B..h.(.
    9e8c:	03ec91c1 012bc377 01f2ef4a 01b25df8     ....w.+.J....]..
    9e9c:	001a8f0e 00b9316f 01e8e9ce 022ec72a     ....o1......*...
    9eac:	01ca3138 00323716 03a4af3b 001a4196     81...72.;....A..
    9ebc:	01367c14 00922447 00081514 00b6c337     .|6.G$......7...
    9ecc:	0352beaa 000e751b 026d44d0 0050e77a     ..R..u...Dm.z.P.
    9edc:	02822548 000146ca 01cfc46c 0390697b     H%...F..l...{i..
    9eec:	00024886 01cac17f 02c3be90 01675a06     .H...........Zg.
    9efc:	02c06e71 00336a30 02097626 02cb0432     qn..0j3.&v..2...
    9f0c:	0098174f 02a923a4 002b204c 01a17b74     O....#..L +.t{..
    9f1c:	00b254ae 0303b690 02dae488 0039c2e9     .T............9.
    9f2c:	00597419 005ae6cf 01f76b92 000993c5     .tY...Z..k......
    9f3c:	006d9293 02ae1427 00a5f57b 013077b1     ..m.'...{....w0.
    9f4c:	02b7f86f 000f0744 03e6a89d 015f8996     o...D........._.
    9f5c:	02c1033b 0394ccd5 00282fa2 01dc772c     ;......../(.,w..
    9f6c:	00e65718 00ff53a0 017a24f7 004f5d8f     .W...S...$z..]O.
    9f7c:	0048023f 03249fbf 005ae4bf 01075a9a     ?.H...$...Z..Z..
    9f8c:	00596f22 0029b8a2 00f82bfb 038423cb     "oY...)..+...#..
    9f9c:	00344194 0031018e 00575626 0003fa51     .A4...1.&VW.Q...
    9fac:	020112fd 01c1260b 001241d8 026781a7     .....&...A....g.
    9fbc:	03559993 022ce970 02743cf7 001b05f4     ..U.p.,..<t.....
    9fcc:	03717e66 013ff7d8 00e98a99 029daea2     f~q...?.........
    9fdc:	00416374 03f1579a 020b3b54 02a4b8b0     tcA..W..T;......
    9fec:	03ead74a 0056781d 0065b318 0077bf46     J....xV...e.F.w.
    9ffc:	001f7815 02103582 0064669b 0338e14e     .x...5...fd.N.8.
    a00c:	01bd2ed7 00b40e43 01042a5d 0043d438     ....C...]*..8.C.
    a01c:	0266be02 00b3acf5 0028e583 02786b86     ..f.......(..kx.
    a02c:	0006347d 01e3ea86 0251c6ce 01ae4697     }4........Q..F..
    a03c:	01872d2d 002cf2cf 025a6ee4 02ca7ab6     --....,..nZ..z..
    a04c:	01768b7a 02ca6b29 0012e75c 030d1ffc     z.v.)k..\.......
    a05c:	02c44274 00e5ae65 0335acc8 0071f9be     tB..e.....5...q.
    a06c:	0247eed9 00a24099 0058fdc8 00143295     ..G..@....X..2..
    a07c:	0031d62d 0254c1e5 02efd48e 01491ea2     -.1...T.......I.
    a08c:	02e78fb9 00602bf0 0380ad4b 029cd888     .....+`.K.......
    a09c:	01f5825a 00c9c77d 002b6b1e 02a0470d     Z...}....k+..G..
    a0ac:	017bf61a 0354bdbc 0092e310 0005353c     ..{...T.....<5..
    a0bc:	01e06bca 01f6cf3d 025f7a3c 023cad3a     .k..=...<z_.:.<.
    a0cc:	00288a1c 02ce7ca1 014bd784 03c7dd61     ..(..|....K.a...
    a0dc:	02d0d99c 0059d4c1 021fcb95 00955394     ......Y......S..
    a0ec:	014401e0 003c902b 0066d398 01a4d9d1     ..D.+.<...f.....
    a0fc:	005bdace 02f62abf 0072a530 007fea35     ..[..*..0.r.5...
    a10c:	009163ba 00adbcce 015ea3d6 013cb9e2     .c........^...<.
    a11c:	000fc6b4 01a7c669 019100f3 03193d5c     ....i.......\=..
    a12c:	00243980 002e4099 01fa4c2f 0303ebc5     .9$..@../L......
    a13c:	036399b5 0276384a 0046295c 025b331b     ..c.J8v.\)F..3[.
    a14c:	012b758e 018795ce 01cdb131 005fa7bd     .u+.....1....._.
    a15c:	03d1aef2 00d1c511 0173947b 007088c9     ........{.s...p.
    a16c:	0028004c 023c5299 0210df66 027e8d58     L.(..R<.f...X.~.
    a17c:	00604b34 002ab19c 00037802 01c03da0     4K`...*..x...=..
    a18c:	02b363ae 02002d08 001ad163 02bc2139     .c...-..c...9!..
    a19c:	01fbcdbe 03d1d45b 03fc8772 0044bcde     ....[...r.....D.
    a1ac:	01e11c7b 01b6885c 00c1441c 01e7df13     {...\....D......
    a1bc:	002c35ee 01c13849 00a509d6 0050a485     .5,.I8........P.
    a1cc:	01bc42f8 006492d2 0050f0d9 0153a623     .B....d...P.#.S.
    a1dc:	0181ba6f 02db7588 006a2db2 025e57a3     o....u...-j..W^.
    a1ec:	02601aca 03d20f7d 036cee94 0057526b     ..`.}.....l.kRW.
    a1fc:	0100e650 039b2c7d 0334517c 02c10be3     P...},..|Q4.....
    a20c:	0005d841 018de970 00029b1a 00b8eaa8     A...p...........
    a21c:	0166af8b 0004f4b5 019ce49d 0037f5c9     ..f...........7.
    a22c:	03935c05 02f7e536 00213839 01306204     .\..6...98!..b0.
    a23c:	00496195 0305ab37 022c67e5 007d323b     .aI.7....g,.;2}.
    a24c:	02b6c618 01140ac5 0195b26d 01a6aa25     ........m...%...
    a25c:	00797170 01b41872 01f038db 021d0f86     pqy.r....8......
    a26c:	0361b1db 0013d601 031b7383 0322c34c     ..a......s..L.".
    a27c:	000752df 03cf90ba 00185472 0310eba0     .R......rT......
    a28c:	0344f9ca 01b9505b 01d243de 00519a38     ..D.[P...C..8.Q.
    a29c:	03ad2500 02706cb4 037338d0 0174b3c3     .%...lp..8s...t.
    a2ac:	00045da4 0062426c 0060655a 01b09640     .]..lBb.Ze`.@...
    a2bc:	03d66ff8 00728d57 01a2c585 0267e1e3     .o..W.r.......g.
    a2cc:	00e10f9a 00798771 004fc483 00394fe0     ....q.y...O..O9.
    a2dc:	0180b315 028ae6dc 01ad9fa7 00048456     ............V...
    a2ec:	0293809b 033c11d2 022bbc5f 00e963cf     ......<._.+..c..
    a2fc:	0071c0c2 02fe6c43 003eaf8d 000a7b40     ..q.Cl....>.@{..
    a30c:	00fabb93 00614c2f 00e1c6c1 002a6034     ..../La.....4`*.
    a31c:	01dcc761 01f22221 001ce819 02c2cb2b     a...!"......+...
    a32c:	038727ce 0341eead 01eebcbc 00471ad0     .'....A.......G.
    a33c:	0301121b 02a0df1a 00b59d67 00a07d67     ........g...g}..
    a34c:	002a8e64 033262ca 01c0790b 0058052e     d.*..b2..y....X.
    a35c:	01f7b394 0019e0a2 03bda6ac 024705e9     ..............G.
    a36c:	031f2b56 00c46e77 0043484c 03ae49ea     V+..wn..LHC..I..
    a37c:	00555526 03ae5a68 03768897 0043a2c5     &UU.hZ....v...C.
    a38c:	01700eef 03a64abb 00856fa5 01588e46     ..p..J...o..F.X.
    a39c:	0058911f 008c4da9 02e06879 003bd648     ..X..M..yh..H.;.
    a3ac:	0032f743 0066e6e3 029d266b 02882705     C.2...f.k&...'..
    a3bc:	03685f3b 0188c111 0020f7a8 020c3d2e     ;_h....... ..=..
    a3cc:	02d6aa86 011f1d1b 0210f444 00366c29     ........D...)l6.
    a3dc:	01cc9013 01e2d90b 023fb06c 01938427     ........l.?.'...
    a3ec:	0027484a 00677464 03ab2f29 00cc18f8     JH'.dtg.)/......
    a3fc:	006c7709 000b6cb3 018f0fa0 027213e2     .wl..l........r.
    a40c:	032a2df6 01d12483 002dd426 014c5c69     .-*..$..&.-.i\L.
    a41c:	004a865f 018d6c09 01fdaa63 00489ade     _.J..l..c.....H.
    a42c:	03203e28 01da7d1f 02c97458 008ff016     (> ..}..Xt......
    a43c:	00124f41 016d7d67 024dbd2b 00ff83bb     AO..g}m.+.M.....
    a44c:	03fb53c0 00330954 02f90eaf 03994011     .S..T.3......@..
    a45c:	01ebdc2c 018b53e7 007bf947 006dfb83     ,....S..G.{...m.
    a46c:	00c5ca96 03d962e9 018ad044 003c7a60     .....b..D...`z<.
    a47c:	007f0d93 02c0e5c5 010345dd 01bf1a0e     .........E......
    a48c:	0008e359 03639bfa 0399ffd9 00232374     Y.....c.....t##.
    a49c:	00846622 0019021c 01d55efa 03d7413f     "f.......^..?A..
    a4ac:	03aa3002 0381e786 0005b4c6 0174c84c     .0..........L.t.
    a4bc:	01e3a8eb 0277de56 0209a962 001c42f7     ....V.w.b....B..
    a4cc:	02cafacd 0119a2f4 0261ce05 034fb790     ..........a...O.
    a4dc:	00237668 00aebb32 011a98dd 00ef4edf     hv#.2........N..
    a4ec:	0164c73c 0031ec8c 035b5825 030ba570     <.d...1.%X[.p...
    a4fc:	01603955 03a9a096 0027d8b0 027d1ec0     U9`.......'...}.
    a50c:	0225db90 03d13b7a 0301c54a 006b6cc5     ..%.z;..J....lk.
    a51c:	00b244cd 0223c328 0189703d 026a33fb     .D..(.#.=p...3j.
    a52c:	00001cae 0293a7fd 012ce87d 02c96a84     ........}.,..j..
    a53c:	032deaf7 00676c9a 00cdbd33 02daf578     ..-..lg.3...x...
    a54c:	019b8631 03703377 0029f289 02fb2eff     1...w3p...).....
    a55c:	01f55d4d 03059094 019438fa 001eb2ce     M].......8......
    a56c:	028bf405 026ce903 02e8d213 03ece7d2     ......l.........
    a57c:	004165ed 0270d6a6 007b699e 004f6e06     .eA...p..i{..nO.
    a58c:	00ca3242 002e3cc0 0056063f 020ca7b4     B2...<..?.V.....
    a59c:	033d51ef 033927a2 006d4d01 0256d34b     .Q=..'9..Mm.K.V.
    a5ac:	00324bc5 029e0011 01385c20 006dad1c     .K2..... \8...m.
    a5bc:	00b477be 0315b164 02935584 002b5497     .w..d....U...T+.
    a5cc:	00597e5f 02b7d36d 02099363 0029e600     _~Y.m...c.....).
    a5dc:	01526672 003f5867 01546a1d 03aa277d     rfR.gX?..jT.}'..
    a5ec:	003643d7 01f668fd 0041754f 02f879a7     .C6..h..OuA..y..
    a5fc:	01e5a08b 028723b0 02566098 001ab277     .....#...`V.w...
    a60c:	03ef7923 01f27c2e 02097dc3 0063b0d6     #y...|...}....c.
    a61c:	00256ec8 01dd5846 00b69702 0145c4a7     .n%.FX........E.
    a62c:	0187b72b 0051df6c 035ce819 0093f373     +...l.Q...\.s...
    a63c:	009f1aef 02566b9a 000ba6bb 017b3a9e     .....kV......:{.
    a64c:	01ef5969 00e4ae66 02468a2a 0071ffd5     iY..f...*.F...q.
    a65c:	03a7fadf 00c97e94 00f1306c 0261acb7     .....~..l0....a.
    a66c:	006667f2 012a09e4 01d469b5 0074a3ef     .gf...*..i....t.
    a67c:	010902e3 00517a10 008183f5 03377f63     .....zQ.....c.7.
    a68c:	007f1d08 031c6e05 0059237c 00395933     .....n..|#Y.3Y9.
    a69c:	0253f462 02f67fff 0164b443 00538acc     b.S.....C.d...S.
    a6ac:	03f0eb1d 00738e1b 03e65ac5 02045317     ......s..Z...S..
    a6bc:	0069d42b 01bfe8b9 03b68e65 02341a17     +.i.....e.....4.
    a6cc:	023f7c16 005dc6d9 00e8be78 00134dd7     .|?...].x....M..
    a6dc:	003caf23 0087b312 0031b585 0380222a     #.<.......1.*"..
    a6ec:	00b60501 015c904d 00af8fb6 003dc18b     ....M.\.......=.
    a6fc:	02d70d2b 03858e7c 038d0a48 029af03c     +...|...H...<...
    a70c:	004ffd54 02b7143b 00f196e9 03a9d8ae     T.O.;...........
    a71c:	007e45e3 00482eb4 03ad4f1d 02e2d3a1     .E~...H..O......
    a72c:	02b40240 01080167 006d8532 00275132     @...g...2.m.2Q'.
    a73c:	017ddf91 02349c13 01a836ab 00626107     ..}...4..6...ab.
    a74c:	0042765c 005af6ce 03d92353 02e8ea2f     \vB...Z.S#../...
    a75c:	00246165 01177a75 035dd2f5 023b61c2     ea$.uz....]..a;.
    a76c:	0264591f 00045a2f 014671a8 02d648d6     .Yd./Z...qF..H..
    a77c:	00db5ed3 03696b35 000514fa 00a0f50f     .^..5ki.........
    a78c:	025ff0d6 02a91e82 0373ca54 007cd2ba     .._.....T.s...|.
    a79c:	029ac266 01144c3a 009790da 00f07853     f...:L......Sx..
    a7ac:	0026a0d4 0293a390 00adca7f 03ccbbb6     ..&.............
    a7bc:	02bfdfd9 00360357 007c59e8 0120d747     ....W.6..Y|.G. .
    a7cc:	0070b3ad 03f61be9 00570daf 03a3bd96     ..p.......W.....
    a7dc:	012f9a63 02ffcd7c 03b0ab5d 0017e4bd     c./.|...].......
    a7ec:	02d7dc51 0393aa7a 0118e43c 03835929     Q...z...<...)Y..
    a7fc:	0058ba7a 00680555 01331f99 030b8e01     z.X.U.h...3.....
    a80c:	014f3898 0003abc9 0399be57 0218831d     .8O.....W.......
    a81c:	02952a31 028ba136 002b258f 023b2ffd     1*..6....%+../;.
    a82c:	023f7141 02556dd8 035e68ea 0017371d     Aq?..mU..h^..7..
    a83c:	00981299 02e0dd5e 02b2d927 00407642     ....^...'...Bv@.
    a84c:	00554552 00e54bd0 00c18863 02235b45     REU..K..c...E[#.
    a85c:	0197ff6d 0059109b 0180a515 00f83128     m.....Y.....(1..
    a86c:	004f4866 03907198 0041467f 00b73878     fHO..q...FA.x8..
    a87c:	0306a937 03517ae2 000b1b01 0019d3cb     7....zQ.........
    a88c:	026745f1 011f25fa 0043caa1 0068c72b     .Eg..%....C.+.h.
    a89c:	0070dac7 02f87dfa 004fb09a 03b25b92     ..p..}....O..[..
    a8ac:	03a7d839 0067f228 038df3df 0166e33d     9...(.g.....=.f.
    a8bc:	02fa3bfb 024a9095 00366877 03177544     .;....J.wh6.Du..
    a8cc:	039707c8 01c90e1b 006d912c 00786a9e     ........,.m..jx.
    a8dc:	03ca7f5b 00bd1ce4 02b59417 02d2e2ab     [...............
    a8ec:	0062ae5b 02631b6f 02710c7e 00c6dbcd     [.b.o.c.~.q.....
    a8fc:	02cbb727 001fbe20 000ee085 0360a7ef     '... .........`.
    a90c:	01d595fd 0056b717 00241dd3 01f7dbb6     ......V...$.....
    a91c:	01a23589 012d4b4b 03fb96fb 00595a82     .5..KK-......ZY.
    a92c:	0011880d 014eb833 02f76696 03fbf100     ....3.N..f......
    a93c:	002b9e85 03770a81 01256d41 00731bb2     ..+...w.Am%...s.
    a94c:	015d7ecd 0005d20c 02485ab2 03988d0d     .~]......ZH.....
    a95c:	03ebb9d9 025997cf 0027012a 00c04ff7     ......Y.*.'..O..
    a96c:	033fbd21 03fbe586 003303aa 0044a586     !.?.......3...D.
    a97c:	03532e80 03f9b8bc 020fe6fb 02eabcc8     ..S.............
    a98c:	0005abea 03809678 03487cb2 03ed21be     ....x....|H..!..
    a99c:	004adfab 002aa621 0210190b 0220df3d     ..J.!.*.....=. .
    a9ac:	018f8e29 02f3be45 001ec8fb 00f96f6b     )...E.......ko..
    a9bc:	03a6cea9 00ef31ef 00a81a2c 006a3b84     .....1..,....;j.
    a9cc:	03f827f7 0352df35 01c9792d 02efcff4     .'..5.R.-y......
    a9dc:	00605175 001f6d98 02ed9067 03310139     uQ`..m..g...9.1.
    a9ec:	03a65e36 003a3ab2 01d5dd0b 02565072     6^...::.....rPV.
    a9fc:	03ce0c5c 018096ca 0034c6c7 01bb8126     \.........4.&...
    aa0c:	01045692 036190d4 03ac476b 007622cb     .V....a.kG..."v.
    aa1c:	024ef5ad 02ffe4c5 0345d785 01f4d572     ..N.......E.r...
    aa2c:	00719164 00ce6e5c 03c95713 02e3e117     d.q.\n...W......
    aa3c:	022c3a6a 00581b44 02225414 013cf2cd     j:,.D.X..T"...<.
    aa4c:	0068554a 0314e6f1 00790180 03c6b96f     JUh.......y.o...
    aa5c:	019010ed 0010b470 016ce8b0 0043cccf     ....p.....l...C.
    aa6c:	014c3731 02fcebf0 025741df 00c6555c     17L......AW.\U..
    aa7c:	001c368f 01070b5a 030bb4ed 03f6000b     .6..Z...........
    aa8c:	03758ecd 000332d8 009bd8f0 012c6423     ..u..2......#d,.
    aa9c:	039ce074 018a36b2 002d258e 01c61e14     t....6...%-.....
    aaac:	016d2f6e 02996bba 00a568d3 000bca12     n/m..k...h......
    aabc:	032175d4 0321319b 03e78059 010e1e42     .u!..1!.Y...B...
    aacc:	001a3bed 01abb5b0 0253d5df 033e4df3     .;........S..M>.
    aadc:	0398ecf0 00304777 002c5a6a 00a753fa     ....wG0.jZ,..S..
    aaec:	037a459a 0347a239 0072e421 03312959     .Ez.9.G.!.r.Y)1.
    aafc:	0188c0c4 03bb869e 02b633ca 002da03a     .........3..:.-.
    ab0c:	03ecb0b6 02361823 003a6285 039e9009     ....#.6..b:.....
    ab1c:	00343099 029a8f63 026d9d74 01886ba2     .04.c...t.m..k..
    ab2c:	0293dbc5 003d2028 02047d0a 0238b4a1     ....( =..}....8.
    ab3c:	00e20f06 0175b1dc 0014999b 0385da79     ......u.....y...
    ab4c:	01d29648 01cd9d18 014b0568 0078aeb5     H.......h.K...x.
    ab5c:	03e9c06e 03733308 01745482 027ed52d     n....3s..Tt.-.~.
    ab6c:	007b18a1 029a7a06 03225bbf 01c13036     ..{..z...[".60..
    ab7c:	0383461c 002f2c2c 025492c7 0366e7b5     .F..,,/...T...f.
    ab8c:	010773b2 03942067 000649c7 0365e3cb     .s..g ...I....e.
    ab9c:	02d9ba9e 0303fcda 010312ab 0049b15b     ............[.I.
    abac:	00000000                                ....

0000abb0 <Montgomery_Rprime>:
    abb0:	5ff3d621 c81db879 ea6b387d 173ea5aa     !.._y...}8k...>.
    abc0:	2136f61c 3d01b7c7 6ac8f9d3 0006a5f1     ..6!...=...j....

0000abd0 <Montgomery_rprime>:
    abd0:	79bc3929 e12fe5f0 d1fcdcf3 d75e78b8     )9.y../......x^.
    abe0:	76b5db21 bce409ed afc1c074 f32702fd     !..v....t.....'.

0000abf0 <PARAMETER_d>:
    abf0:	00000142 00000000 000e4000 00000000     B........@......
    ac00:	00000000 01fc0c8d 0085223c 020fcb38     ........<"..8...
    ac10:	0211995f 005e472f                       _.../G^.

0000ac18 <curve_order>:
    ac18:	c7768ce7 2fb2540e fe0f7999 dfbd004d     ..v..T./.y..M...
    ac28:	9cbc14e5 f0539782 4e5e0a72 0029cbc1     ......S.r.^N..).

0000ac38 <A144>:
    ac38:	05080201 05020208 0c060201 080f090c     ................
    ac48:	050d0d08 010a030b 0e0d0f01 0208080b     ................
    ac58:	08020303                                ....

0000ac5c <IC>:
    ac5c:	07030100 00000406                       ........

0000ac64 <RC>:
    ac64:	0e070301 0c060b0d 0a050209              ............

0000ac70 <sbox>:
    ac70:	0b06050c 0d0a0009 080f0e03 02010704     ................
    ac80:	203a7325 74696157 20676e69 20726f66     %s: Waiting for 
    ac90:	74696e69 00000d0a 203a7325 74696157     init....%s: Wait
    aca0:	20676e69 20726f66 69737361 656d6e67     ing for assignme
    acb0:	0d0a746e 00000000 203a7325 69737341     nt......%s: Assi
    acc0:	64656e67 64646120 61762072 2065756c     gned addr value 
    acd0:	0d0a6425 00000000 72617453 676e6974     %d......Starting
    ace0:	0000000d 203a7325 65636552 64657669     ....%s: Received
    acf0:	61657220 65722064 73657571 72662074      read request fr
    ad00:	25206d6f 6f662064 64612072 25207264     om %d for addr %
    ad10:	000d0a78 203a7325 646e6553 20676e69     x...%s: Sending 
    ad20:	70736572 65736e6f 206f7420 202c6425     response to %d, 
    ad30:	72646461 2c782520 74616420 78252061     addr %x, data %x
    ad40:	00000d0a 203a7325 65636552 64657669     ....%s: Received
    ad50:	69727720 72206574 65757165 66207473      write request f
    ad60:	206d6f72 66206425 6120726f 20726464     rom %d for addr 
    ad70:	202c7825 61746164 0a782520 0000000d     %x, data %x.....
    ad80:	203a7325 646e6553 20676e69 70736572     %s: Sending resp
    ad90:	65736e6f 206f7420 202c6425 72646461     onse to %d, addr
    ada0:	0a782520 0000000d                        %x.....

0000ada8 <_global_impure_ptr>:
    ada8:	20000204                                ... 

0000adac <__sf_fake_stderr>:
	...

0000adcc <__sf_fake_stdin>:
	...

0000adec <__sf_fake_stdout>:
	...
    ae0c:	2b302d23 6c680020 6665004c 47464567     #-0+ .hlL.efgEFG
    ae1c:	32313000 36353433 41393837 45444342     .0123456789ABCDE
    ae2c:	31300046 35343332 39383736 64636261     F.0123456789abcd
    ae3c:	00006665                                ef..

0000ae40 <_init>:
    ae40:	b5f8      	push	{r3, r4, r5, r6, r7, lr}
    ae42:	46c0      	nop			; (mov r8, r8)
    ae44:	bcf8      	pop	{r3, r4, r5, r6, r7}
    ae46:	bc08      	pop	{r3}
    ae48:	469e      	mov	lr, r3
    ae4a:	4770      	bx	lr

0000ae4c <__init_array_start>:
    ae4c:	000000e5 	.word	0x000000e5

0000ae50 <_fini>:
    ae50:	b5f8      	push	{r3, r4, r5, r6, r7, lr}
    ae52:	46c0      	nop			; (mov r8, r8)
    ae54:	bcf8      	pop	{r3, r4, r5, r6, r7}
    ae56:	bc08      	pop	{r3}
    ae58:	469e      	mov	lr, r3
    ae5a:	4770      	bx	lr

0000ae5c <__fini_array_start>:
    ae5c:	000000bd 	.word	0x000000bd
